; Listing generated by Microsoft (R) Optimizing Compiler Version 19.16.27050.0 

include listing.inc

INCLUDELIB OLDNAMES

PUBLIC	??_C@_0BC@EOODALEL@Unknown?5exception@		; `string'
PUBLIC	??_C@_0CB@COBPCPJC@Denver?52a03?5CPU?5?$CIfast?5emulation@ ; `string'
PUBLIC	??_C@_0HA@FGLJHMJI@cpu2a03_fast?3?3coldboot?$CI?$CJ?5called@ ; `string'
PUBLIC	??_R2cpu2a03_fast@@8				; cpu2a03_fast::`RTTI Base Class Array'
PUBLIC	??_R2runtime_error@std@@8			; std::runtime_error::`RTTI Base Class Array'
PUBLIC	??_R2exception@std@@8				; std::exception::`RTTI Base Class Array'
PUBLIC	??_R1A@?0A@EA@cpu2a03_fast@@8			; cpu2a03_fast::`RTTI Base Class Descriptor at (0,-1,0,64)'
PUBLIC	??_R1A@?0A@EA@runtime_error@std@@8		; std::runtime_error::`RTTI Base Class Descriptor at (0,-1,0,64)'
PUBLIC	??_R1A@?0A@EA@exception@std@@8			; std::exception::`RTTI Base Class Descriptor at (0,-1,0,64)'
PUBLIC	??_R3cpu2a03_fast@@8				; cpu2a03_fast::`RTTI Class Hierarchy Descriptor'
PUBLIC	??_R0?AVcpu2a03_fast@@@8			; cpu2a03_fast `RTTI Type Descriptor'
PUBLIC	??_R3runtime_error@std@@8			; std::runtime_error::`RTTI Class Hierarchy Descriptor'
PUBLIC	??_R3exception@std@@8				; std::exception::`RTTI Class Hierarchy Descriptor'
PUBLIC	??_R4cpu2a03_fast@@6B@				; cpu2a03_fast::`RTTI Complete Object Locator'
PUBLIC	??_R4runtime_error@std@@6B@			; std::runtime_error::`RTTI Complete Object Locator'
PUBLIC	??_R4exception@std@@6B@				; std::exception::`RTTI Complete Object Locator'
PUBLIC	_CTA3PEAVruntime_error@std@@
PUBLIC	_CT??_R0PEAX@88
PUBLIC	_CT??_R0PEAVexception@std@@@88
PUBLIC	_CT??_R0PEAVruntime_error@std@@@88
PUBLIC	??_R0PEAX@8					; void * `RTTI Type Descriptor'
PUBLIC	??_R0PEAVexception@std@@@8			; std::exception * `RTTI Type Descriptor'
PUBLIC	??_R0PEAVruntime_error@std@@@8			; std::runtime_error * `RTTI Type Descriptor'
PUBLIC	_TI3PEAVruntime_error@std@@
PUBLIC	??_7cpu2a03_fast@@6B@				; cpu2a03_fast::`vftable'
PUBLIC	??_R0?AVexception@std@@@8			; std::exception `RTTI Type Descriptor'
PUBLIC	??_R0?AVruntime_error@std@@@8			; std::runtime_error `RTTI Type Descriptor'
PUBLIC	??_7runtime_error@std@@6B@			; std::runtime_error::`vftable'
PUBLIC	??_7exception@std@@6B@				; std::exception::`vftable'
EXTRN	__imp___std_exception_destroy:PROC
EXTRN	__imp___std_exception_copy:PROC
;	COMDAT ??_7exception@std@@6B@
CONST	SEGMENT
??_7exception@std@@6B@ DQ FLAT:??_R4exception@std@@6B@	; std::exception::`vftable'
	DQ	FLAT:??_Eexception@std@@UEAAPEAXI@Z
	DQ	FLAT:?what@exception@std@@UEBAPEBDXZ
CONST	ENDS
;	COMDAT ??_7runtime_error@std@@6B@
CONST	SEGMENT
??_7runtime_error@std@@6B@ DQ FLAT:??_R4runtime_error@std@@6B@ ; std::runtime_error::`vftable'
	DQ	FLAT:??_Eruntime_error@std@@UEAAPEAXI@Z
	DQ	FLAT:?what@exception@std@@UEBAPEBDXZ
CONST	ENDS
;	COMDAT ??_R0?AVruntime_error@std@@@8
data$r	SEGMENT
??_R0?AVruntime_error@std@@@8 DQ FLAT:??_7type_info@@6B@ ; std::runtime_error `RTTI Type Descriptor'
	DQ	0000000000000000H
	DB	'.?AVruntime_error@std@@', 00H
data$r	ENDS
;	COMDAT ??_R0?AVexception@std@@@8
data$r	SEGMENT
??_R0?AVexception@std@@@8 DQ FLAT:??_7type_info@@6B@	; std::exception `RTTI Type Descriptor'
	DQ	0000000000000000H
	DB	'.?AVexception@std@@', 00H
data$r	ENDS
;	COMDAT ??_7cpu2a03_fast@@6B@
CONST	SEGMENT
??_7cpu2a03_fast@@6B@ DQ FLAT:??_R4cpu2a03_fast@@6B@	; cpu2a03_fast::`vftable'
	DQ	FLAT:?rundevice@cpu2a03_fast@@UEAAHH@Z
	DQ	FLAT:?dma@cpu2a03_fast@@UEAAXPEAE_N1@Z
	DQ	FLAT:??_Ecpu2a03_fast@@UEAAPEAXI@Z
	DQ	FLAT:?write@cpu2a03_fast@@UEAAXHHE@Z
	DQ	FLAT:?read@bus_device@@UEAAEHH@Z
CONST	ENDS
;	COMDAT _TI3PEAVruntime_error@std@@
xdata$x	SEGMENT
_TI3PEAVruntime_error@std@@ DD 00H
	DD	00H
	DD	00H
	DD	imagerel _CTA3PEAVruntime_error@std@@
xdata$x	ENDS
;	COMDAT ??_R0PEAVruntime_error@std@@@8
data$r	SEGMENT
??_R0PEAVruntime_error@std@@@8 DQ FLAT:??_7type_info@@6B@ ; std::runtime_error * `RTTI Type Descriptor'
	DQ	0000000000000000H
	DB	'.PEAVruntime_error@std@@', 00H
data$r	ENDS
;	COMDAT ??_R0PEAVexception@std@@@8
data$r	SEGMENT
??_R0PEAVexception@std@@@8 DQ FLAT:??_7type_info@@6B@	; std::exception * `RTTI Type Descriptor'
	DQ	0000000000000000H
	DB	'.PEAVexception@std@@', 00H
data$r	ENDS
;	COMDAT ??_R0PEAX@8
data$r	SEGMENT
??_R0PEAX@8 DQ	FLAT:??_7type_info@@6B@			; void * `RTTI Type Descriptor'
	DQ	0000000000000000H
	DB	'.PEAX', 00H
data$r	ENDS
;	COMDAT _CT??_R0PEAVruntime_error@std@@@88
xdata$x	SEGMENT
_CT??_R0PEAVruntime_error@std@@@88 DD 01H
	DD	imagerel ??_R0PEAVruntime_error@std@@@8
	DD	00H
	DD	0ffffffffH
	ORG $+4
	DD	08H
	DD	00H
xdata$x	ENDS
;	COMDAT _CT??_R0PEAVexception@std@@@88
xdata$x	SEGMENT
_CT??_R0PEAVexception@std@@@88 DD 01H
	DD	imagerel ??_R0PEAVexception@std@@@8
	DD	00H
	DD	0ffffffffH
	ORG $+4
	DD	08H
	DD	00H
xdata$x	ENDS
;	COMDAT _CT??_R0PEAX@88
xdata$x	SEGMENT
_CT??_R0PEAX@88 DD 01H
	DD	imagerel ??_R0PEAX@8
	DD	00H
	DD	0ffffffffH
	ORG $+4
	DD	08H
	DD	00H
xdata$x	ENDS
;	COMDAT _CTA3PEAVruntime_error@std@@
xdata$x	SEGMENT
_CTA3PEAVruntime_error@std@@ DD 03H
	DD	imagerel _CT??_R0PEAVruntime_error@std@@@88
	DD	imagerel _CT??_R0PEAVexception@std@@@88
	DD	imagerel _CT??_R0PEAX@88
xdata$x	ENDS
;	COMDAT ??_R4exception@std@@6B@
rdata$r	SEGMENT
??_R4exception@std@@6B@ DD 01H				; std::exception::`RTTI Complete Object Locator'
	DD	00H
	DD	00H
	DD	imagerel ??_R0?AVexception@std@@@8
	DD	imagerel ??_R3exception@std@@8
	DD	imagerel ??_R4exception@std@@6B@
rdata$r	ENDS
;	COMDAT ??_R4runtime_error@std@@6B@
rdata$r	SEGMENT
??_R4runtime_error@std@@6B@ DD 01H			; std::runtime_error::`RTTI Complete Object Locator'
	DD	00H
	DD	00H
	DD	imagerel ??_R0?AVruntime_error@std@@@8
	DD	imagerel ??_R3runtime_error@std@@8
	DD	imagerel ??_R4runtime_error@std@@6B@
rdata$r	ENDS
;	COMDAT ??_R4cpu2a03_fast@@6B@
rdata$r	SEGMENT
??_R4cpu2a03_fast@@6B@ DD 01H				; cpu2a03_fast::`RTTI Complete Object Locator'
	DD	00H
	DD	00H
	DD	imagerel ??_R0?AVcpu2a03_fast@@@8
	DD	imagerel ??_R3cpu2a03_fast@@8
	DD	imagerel ??_R4cpu2a03_fast@@6B@
rdata$r	ENDS
;	COMDAT ??_R3exception@std@@8
rdata$r	SEGMENT
??_R3exception@std@@8 DD 00H				; std::exception::`RTTI Class Hierarchy Descriptor'
	DD	00H
	DD	01H
	DD	imagerel ??_R2exception@std@@8
rdata$r	ENDS
;	COMDAT ??_R3runtime_error@std@@8
rdata$r	SEGMENT
??_R3runtime_error@std@@8 DD 00H			; std::runtime_error::`RTTI Class Hierarchy Descriptor'
	DD	00H
	DD	02H
	DD	imagerel ??_R2runtime_error@std@@8
rdata$r	ENDS
;	COMDAT ??_R0?AVcpu2a03_fast@@@8
data$r	SEGMENT
??_R0?AVcpu2a03_fast@@@8 DQ FLAT:??_7type_info@@6B@	; cpu2a03_fast `RTTI Type Descriptor'
	DQ	0000000000000000H
	DB	'.?AVcpu2a03_fast@@', 00H
data$r	ENDS
;	COMDAT ??_R3cpu2a03_fast@@8
rdata$r	SEGMENT
??_R3cpu2a03_fast@@8 DD 00H				; cpu2a03_fast::`RTTI Class Hierarchy Descriptor'
	DD	00H
	DD	03H
	DD	imagerel ??_R2cpu2a03_fast@@8
rdata$r	ENDS
;	COMDAT ??_R1A@?0A@EA@exception@std@@8
rdata$r	SEGMENT
??_R1A@?0A@EA@exception@std@@8 DD imagerel ??_R0?AVexception@std@@@8 ; std::exception::`RTTI Base Class Descriptor at (0,-1,0,64)'
	DD	00H
	DD	00H
	DD	0ffffffffH
	DD	00H
	DD	040H
	DD	imagerel ??_R3exception@std@@8
rdata$r	ENDS
;	COMDAT ??_R1A@?0A@EA@runtime_error@std@@8
rdata$r	SEGMENT
??_R1A@?0A@EA@runtime_error@std@@8 DD imagerel ??_R0?AVruntime_error@std@@@8 ; std::runtime_error::`RTTI Base Class Descriptor at (0,-1,0,64)'
	DD	01H
	DD	00H
	DD	0ffffffffH
	DD	00H
	DD	040H
	DD	imagerel ??_R3runtime_error@std@@8
rdata$r	ENDS
;	COMDAT ??_R1A@?0A@EA@cpu2a03_fast@@8
rdata$r	SEGMENT
??_R1A@?0A@EA@cpu2a03_fast@@8 DD imagerel ??_R0?AVcpu2a03_fast@@@8 ; cpu2a03_fast::`RTTI Base Class Descriptor at (0,-1,0,64)'
	DD	02H
	DD	00H
	DD	0ffffffffH
	DD	00H
	DD	040H
	DD	imagerel ??_R3cpu2a03_fast@@8
rdata$r	ENDS
;	COMDAT ??_R2exception@std@@8
rdata$r	SEGMENT
??_R2exception@std@@8 DD imagerel ??_R1A@?0A@EA@exception@std@@8 ; std::exception::`RTTI Base Class Array'
	ORG $+3
rdata$r	ENDS
;	COMDAT ??_R2runtime_error@std@@8
rdata$r	SEGMENT
??_R2runtime_error@std@@8 DD imagerel ??_R1A@?0A@EA@runtime_error@std@@8 ; std::runtime_error::`RTTI Base Class Array'
	DD	imagerel ??_R1A@?0A@EA@exception@std@@8
	ORG $+3
rdata$r	ENDS
;	COMDAT ??_R2cpu2a03_fast@@8
rdata$r	SEGMENT
??_R2cpu2a03_fast@@8 DD imagerel ??_R1A@?0A@EA@cpu2a03_fast@@8 ; cpu2a03_fast::`RTTI Base Class Array'
	DD	imagerel ??_R1A@?0A@EA@bus_device@@8
	DD	imagerel ??_R1A@?0A@EA@device@@8
	ORG $+3
rdata$r	ENDS
;	COMDAT ??_C@_0HA@FGLJHMJI@cpu2a03_fast?3?3coldboot?$CI?$CJ?5called@
CONST	SEGMENT
??_C@_0HA@FGLJHMJI@cpu2a03_fast?3?3coldboot?$CI?$CJ?5called@ DB 'cpu2a03_'
	DB	'fast::coldboot() called without defined memory bus!', 0dH, 0aH
	DB	'Please assign memory bus before calling coldboot()', 00H ; `string'
CONST	ENDS
;	COMDAT ??_C@_0CB@COBPCPJC@Denver?52a03?5CPU?5?$CIfast?5emulation@
CONST	SEGMENT
??_C@_0CB@COBPCPJC@Denver?52a03?5CPU?5?$CIfast?5emulation@ DB 'Denver 2a0'
	DB	'3 CPU (fast emulation)', 00H		; `string'
CONST	ENDS
;	COMDAT ??_C@_0BC@EOODALEL@Unknown?5exception@
CONST	SEGMENT
??_C@_0BC@EOODALEL@Unknown?5exception@ DB 'Unknown exception', 00H ; `string'
PUBLIC	?definememorybus@cpu2a03_fast@@QEAAXPEAVbus@@@Z	; cpu2a03_fast::definememorybus
PUBLIC	?dma@cpu2a03_fast@@UEAAXPEAE_N1@Z		; cpu2a03_fast::dma
PUBLIC	?write@cpu2a03_fast@@UEAAXHHE@Z			; cpu2a03_fast::write
PUBLIC	?coldboot@cpu2a03_fast@@QEAAXXZ			; cpu2a03_fast::coldboot
PUBLIC	?opc_inc@cpu2a03_fast@@AEAAEE@Z			; cpu2a03_fast::opc_inc
PUBLIC	?opc_dec@cpu2a03_fast@@AEAAEE@Z			; cpu2a03_fast::opc_dec
PUBLIC	?opc_sbc@cpu2a03_fast@@AEAAXE@Z			; cpu2a03_fast::opc_sbc
PUBLIC	?opc_adc@cpu2a03_fast@@AEAAXE@Z			; cpu2a03_fast::opc_adc
PUBLIC	?opc_lsr@cpu2a03_fast@@AEAAXG_N@Z		; cpu2a03_fast::opc_lsr
PUBLIC	?opc_xor@cpu2a03_fast@@AEAAXE@Z			; cpu2a03_fast::opc_xor
PUBLIC	?opc_bit@cpu2a03_fast@@AEAAXE@Z			; cpu2a03_fast::opc_bit
PUBLIC	?opc_ror@cpu2a03_fast@@AEAAXG_N@Z		; cpu2a03_fast::opc_ror
PUBLIC	?opc_rol@cpu2a03_fast@@AEAAXG_N@Z		; cpu2a03_fast::opc_rol
PUBLIC	?opc_and@cpu2a03_fast@@AEAAXE@Z			; cpu2a03_fast::opc_and
PUBLIC	?opc_asl@cpu2a03_fast@@AEAAXG_N@Z		; cpu2a03_fast::opc_asl
PUBLIC	?opc_ora@cpu2a03_fast@@AEAAXE@Z			; cpu2a03_fast::opc_ora
PUBLIC	?opc_cmp@cpu2a03_fast@@AEAAXEE@Z		; cpu2a03_fast::opc_cmp
PUBLIC	?opc_ld_@cpu2a03_fast@@AEAAXAEAEE@Z		; cpu2a03_fast::opc_ld_
PUBLIC	?rundevice_internal@cpu2a03_fast@@AEAAHH@Z	; cpu2a03_fast::rundevice_internal
PUBLIC	?rundevice@cpu2a03_fast@@UEAAHH@Z		; cpu2a03_fast::rundevice
PUBLIC	?pullstack_word@cpu2a03_fast@@QEAAGXZ		; cpu2a03_fast::pullstack_word
PUBLIC	?pullstack_byte@cpu2a03_fast@@QEAAEXZ		; cpu2a03_fast::pullstack_byte
PUBLIC	?pushstack_word@cpu2a03_fast@@QEAAXG@Z		; cpu2a03_fast::pushstack_word
PUBLIC	?pushstack_byte@cpu2a03_fast@@QEAAXE@Z		; cpu2a03_fast::pushstack_byte
PUBLIC	?log_register@cpu2a03_fast@@QEAAXXZ		; cpu2a03_fast::log_register
PUBLIC	??1cpu2a03_fast@@UEAA@XZ			; cpu2a03_fast::~cpu2a03_fast
PUBLIC	??_Gcpu2a03_fast@@UEAAPEAXI@Z			; cpu2a03_fast::`scalar deleting destructor'
PUBLIC	??0cpu2a03_fast@@QEAA@XZ			; cpu2a03_fast::cpu2a03_fast
PUBLIC	??1runtime_error@std@@UEAA@XZ			; std::runtime_error::~runtime_error
PUBLIC	??_Gruntime_error@std@@UEAAPEAXI@Z		; std::runtime_error::`scalar deleting destructor'
PUBLIC	??0runtime_error@std@@QEAA@PEBD@Z		; std::runtime_error::runtime_error
PUBLIC	??_Gexception@std@@UEAAPEAXI@Z			; std::exception::`scalar deleting destructor'
PUBLIC	?what@exception@std@@UEBAPEBDXZ			; std::exception::what
PUBLIC	??1exception@std@@UEAA@XZ			; std::exception::~exception
PUBLIC	??0exception@std@@QEAA@QEBD@Z			; std::exception::exception
EXTRN	??_Eexception@std@@UEAAPEAXI@Z:PROC		; std::exception::`vector deleting destructor'
EXTRN	??_Eruntime_error@std@@UEAAPEAXI@Z:PROC		; std::runtime_error::`vector deleting destructor'
EXTRN	??_Ecpu2a03_fast@@UEAAPEAXI@Z:PROC		; cpu2a03_fast::`vector deleting destructor'
;	COMDAT pdata
pdata	SEGMENT
$pdata$?dma@cpu2a03_fast@@UEAAXPEAE_N1@Z DD imagerel $LN8
	DD	imagerel $LN8+91
	DD	imagerel $unwind$?dma@cpu2a03_fast@@UEAAXPEAE_N1@Z
pdata	ENDS
;	COMDAT pdata
pdata	SEGMENT
$pdata$?coldboot@cpu2a03_fast@@QEAAXXZ DD imagerel $LN13
	DD	imagerel $LN13+25
	DD	imagerel $unwind$?coldboot@cpu2a03_fast@@QEAAXXZ
pdata	ENDS
;	COMDAT pdata
pdata	SEGMENT
$pdata$0$?coldboot@cpu2a03_fast@@QEAAXXZ DD imagerel $LN13+25
	DD	imagerel $LN13+99
	DD	imagerel $chain$0$?coldboot@cpu2a03_fast@@QEAAXXZ
pdata	ENDS
;	COMDAT pdata
pdata	SEGMENT
$pdata$1$?coldboot@cpu2a03_fast@@QEAAXXZ DD imagerel $LN13+99
	DD	imagerel $LN13+145
	DD	imagerel $chain$1$?coldboot@cpu2a03_fast@@QEAAXXZ
pdata	ENDS
;	COMDAT pdata
pdata	SEGMENT
$pdata$?opc_lsr@cpu2a03_fast@@AEAAXG_N@Z DD imagerel $LN16
	DD	imagerel $LN16+140
	DD	imagerel $unwind$?opc_lsr@cpu2a03_fast@@AEAAXG_N@Z
pdata	ENDS
;	COMDAT pdata
pdata	SEGMENT
$pdata$?opc_ror@cpu2a03_fast@@AEAAXG_N@Z DD imagerel $LN17
	DD	imagerel $LN17+183
	DD	imagerel $unwind$?opc_ror@cpu2a03_fast@@AEAAXG_N@Z
pdata	ENDS
;	COMDAT pdata
pdata	SEGMENT
$pdata$?opc_rol@cpu2a03_fast@@AEAAXG_N@Z DD imagerel $LN17
	DD	imagerel $LN17+180
	DD	imagerel $unwind$?opc_rol@cpu2a03_fast@@AEAAXG_N@Z
pdata	ENDS
;	COMDAT pdata
pdata	SEGMENT
$pdata$?opc_asl@cpu2a03_fast@@AEAAXG_N@Z DD imagerel $LN16
	DD	imagerel $LN16+151
	DD	imagerel $unwind$?opc_asl@cpu2a03_fast@@AEAAXG_N@Z
pdata	ENDS
;	COMDAT pdata
pdata	SEGMENT
$pdata$?rundevice_internal@cpu2a03_fast@@AEAAHH@Z DD imagerel $LN1865
	DD	imagerel $LN1865+82
	DD	imagerel $unwind$?rundevice_internal@cpu2a03_fast@@AEAAHH@Z
pdata	ENDS
;	COMDAT pdata
pdata	SEGMENT
$pdata$0$?rundevice_internal@cpu2a03_fast@@AEAAHH@Z DD imagerel $LN1865+82
	DD	imagerel $LN1865+254
	DD	imagerel $chain$0$?rundevice_internal@cpu2a03_fast@@AEAAHH@Z
pdata	ENDS
;	COMDAT pdata
pdata	SEGMENT
$pdata$3$?rundevice_internal@cpu2a03_fast@@AEAAHH@Z DD imagerel $LN1865+254
	DD	imagerel $LN1865+12804
	DD	imagerel $chain$3$?rundevice_internal@cpu2a03_fast@@AEAAHH@Z
pdata	ENDS
;	COMDAT pdata
pdata	SEGMENT
$pdata$4$?rundevice_internal@cpu2a03_fast@@AEAAHH@Z DD imagerel $LN1865+12804
	DD	imagerel $LN1865+13828
	DD	imagerel $chain$4$?rundevice_internal@cpu2a03_fast@@AEAAHH@Z
pdata	ENDS
;	COMDAT pdata
pdata	SEGMENT
$pdata$?rundevice@cpu2a03_fast@@UEAAHH@Z DD imagerel $LN11
	DD	imagerel $LN11+70
	DD	imagerel $unwind$?rundevice@cpu2a03_fast@@UEAAHH@Z
pdata	ENDS
;	COMDAT pdata
pdata	SEGMENT
$pdata$?pullstack_word@cpu2a03_fast@@QEAAGXZ DD imagerel $LN12
	DD	imagerel $LN12+83
	DD	imagerel $unwind$?pullstack_word@cpu2a03_fast@@QEAAGXZ
pdata	ENDS
;	COMDAT pdata
pdata	SEGMENT
$pdata$?pushstack_word@cpu2a03_fast@@QEAAXG@Z DD imagerel $LN8
	DD	imagerel $LN8+84
	DD	imagerel $unwind$?pushstack_word@cpu2a03_fast@@QEAAXG@Z
pdata	ENDS
;	COMDAT pdata
pdata	SEGMENT
$pdata$?pushstack_byte@cpu2a03_fast@@QEAAXE@Z DD imagerel $LN4
	DD	imagerel $LN4+41
	DD	imagerel $unwind$?pushstack_byte@cpu2a03_fast@@QEAAXE@Z
pdata	ENDS
;	COMDAT pdata
pdata	SEGMENT
$pdata$??_Gcpu2a03_fast@@UEAAPEAXI@Z DD imagerel $LN15
	DD	imagerel $LN15+67
	DD	imagerel $unwind$??_Gcpu2a03_fast@@UEAAPEAXI@Z
pdata	ENDS
;	COMDAT pdata
pdata	SEGMENT
$pdata$??0cpu2a03_fast@@QEAA@XZ DD imagerel $LN7
	DD	imagerel $LN7+106
	DD	imagerel $unwind$??0cpu2a03_fast@@QEAA@XZ
pdata	ENDS
;	COMDAT pdata
pdata	SEGMENT
$pdata$??_Gruntime_error@std@@UEAAPEAXI@Z DD imagerel $LN12
	DD	imagerel $LN12+67
	DD	imagerel $unwind$??_Gruntime_error@std@@UEAAPEAXI@Z
pdata	ENDS
;	COMDAT pdata
pdata	SEGMENT
$pdata$??0runtime_error@std@@QEAA@PEBD@Z DD imagerel $LN7
	DD	imagerel $LN7+107
	DD	imagerel $unwind$??0runtime_error@std@@QEAA@PEBD@Z
pdata	ENDS
;	COMDAT pdata
pdata	SEGMENT
$pdata$??_Gexception@std@@UEAAPEAXI@Z DD imagerel $LN9
	DD	imagerel $LN9+67
	DD	imagerel $unwind$??_Gexception@std@@UEAAPEAXI@Z
pdata	ENDS
;	COMDAT pdata
pdata	SEGMENT
$pdata$??0exception@std@@QEAA@QEBD@Z DD imagerel $LN5
	DD	imagerel $LN5+97
	DD	imagerel $unwind$??0exception@std@@QEAA@QEBD@Z
;	COMDAT xdata
xdata	SEGMENT
$unwind$??0exception@std@@QEAA@QEBD@Z DD 021519H
	DD	030027206H
	DD	imagerel __GSHandlerCheck
	DD	030H
xdata	ENDS
;	COMDAT xdata
xdata	SEGMENT
$unwind$??_Gexception@std@@UEAAPEAXI@Z DD 040a01H
	DD	06340aH
	DD	07006320aH
xdata	ENDS
;	COMDAT xdata
xdata	SEGMENT
$unwind$??0runtime_error@std@@QEAA@PEBD@Z DD 021519H
	DD	030027206H
	DD	imagerel __GSHandlerCheck
	DD	030H
xdata	ENDS
;	COMDAT xdata
xdata	SEGMENT
$unwind$??_Gruntime_error@std@@UEAAPEAXI@Z DD 040a01H
	DD	06340aH
	DD	07006320aH
xdata	ENDS
;	COMDAT xdata
xdata	SEGMENT
$unwind$??0cpu2a03_fast@@QEAA@XZ DD 020601H
	DD	030023206H
xdata	ENDS
;	COMDAT xdata
xdata	SEGMENT
$unwind$??_Gcpu2a03_fast@@UEAAPEAXI@Z DD 040a01H
	DD	06340aH
	DD	07006320aH
xdata	ENDS
;	COMDAT xdata
xdata	SEGMENT
$unwind$?pushstack_byte@cpu2a03_fast@@QEAAXE@Z DD 020601H
	DD	030023206H
xdata	ENDS
;	COMDAT xdata
xdata	SEGMENT
$unwind$?pushstack_word@cpu2a03_fast@@QEAAXG@Z DD 040a01H
	DD	06340aH
	DD	07006320aH
xdata	ENDS
;	COMDAT xdata
xdata	SEGMENT
$unwind$?pullstack_word@cpu2a03_fast@@QEAAGXZ DD 040a01H
	DD	06340aH
	DD	07006320aH
xdata	ENDS
;	COMDAT xdata
xdata	SEGMENT
$unwind$?rundevice@cpu2a03_fast@@UEAAHH@Z DD 060f01H
	DD	07640fH
	DD	06340fH
	DD	0700b320fH
xdata	ENDS
;	COMDAT xdata
xdata	SEGMENT
$chain$4$?rundevice_internal@cpu2a03_fast@@AEAAHH@Z DD 021H
	DD	imagerel $LN1865
	DD	imagerel $LN1865+82
	DD	imagerel $unwind$?rundevice_internal@cpu2a03_fast@@AEAAHH@Z
xdata	ENDS
;	COMDAT xdata
xdata	SEGMENT
$chain$3$?rundevice_internal@cpu2a03_fast@@AEAAHH@Z DD 040d21H
	DD	08540dH
	DD	063400H
	DD	imagerel $LN1865
	DD	imagerel $LN1865+82
	DD	imagerel $unwind$?rundevice_internal@cpu2a03_fast@@AEAAHH@Z
xdata	ENDS
;	COMDAT xdata
xdata	SEGMENT
$chain$0$?rundevice_internal@cpu2a03_fast@@AEAAHH@Z DD 020521H
	DD	063405H
	DD	imagerel $LN1865
	DD	imagerel $LN1865+82
	DD	imagerel $unwind$?rundevice_internal@cpu2a03_fast@@AEAAHH@Z
xdata	ENDS
;	COMDAT xdata
xdata	SEGMENT
$unwind$?rundevice_internal@cpu2a03_fast@@AEAAHH@Z DD 040a01H
	DD	09640aH
	DD	07006320aH
xdata	ENDS
;	COMDAT xdata
xdata	SEGMENT
$unwind$?opc_asl@cpu2a03_fast@@AEAAXG_N@Z DD 060f01H
	DD	07640fH
	DD	06340fH
	DD	0700b320fH
xdata	ENDS
;	COMDAT xdata
xdata	SEGMENT
$unwind$?opc_rol@cpu2a03_fast@@AEAAXG_N@Z DD 081401H
	DD	086414H
	DD	075414H
	DD	063414H
	DD	070103214H
xdata	ENDS
;	COMDAT xdata
xdata	SEGMENT
$unwind$?opc_ror@cpu2a03_fast@@AEAAXG_N@Z DD 081401H
	DD	086414H
	DD	075414H
	DD	063414H
	DD	070103214H
xdata	ENDS
;	COMDAT xdata
xdata	SEGMENT
$unwind$?opc_lsr@cpu2a03_fast@@AEAAXG_N@Z DD 060f01H
	DD	07640fH
	DD	06340fH
	DD	0700b320fH
xdata	ENDS
;	COMDAT xdata
xdata	SEGMENT
$chain$1$?coldboot@cpu2a03_fast@@QEAAXXZ DD 021H
	DD	imagerel $LN13
	DD	imagerel $LN13+25
	DD	imagerel $unwind$?coldboot@cpu2a03_fast@@QEAAXXZ
xdata	ENDS
;	COMDAT xdata
xdata	SEGMENT
$chain$0$?coldboot@cpu2a03_fast@@QEAAXXZ DD 020521H
	DD	083405H
	DD	imagerel $LN13
	DD	imagerel $LN13+25
	DD	imagerel $unwind$?coldboot@cpu2a03_fast@@QEAAXXZ
xdata	ENDS
;	COMDAT xdata
xdata	SEGMENT
$unwind$?coldboot@cpu2a03_fast@@QEAAXXZ DD 040a01H
	DD	09640aH
	DD	07006320aH
xdata	ENDS
;	COMDAT xdata
xdata	SEGMENT
$unwind$?dma@cpu2a03_fast@@UEAAXPEAE_N1@Z DD 040a01H
	DD	06340aH
	DD	07006320aH
; Function compile flags: /Ogtpy
; File c:\program files (x86)\microsoft visual studio\2017\community\vc\tools\msvc\14.16.27023\include\vcruntime_exception.h
;	COMDAT ??0exception@std@@QEAA@QEBD@Z
_TEXT	SEGMENT
_InitData$ = 32
__$ArrayPad$ = 48
this$ = 80
_Message$dead$ = 88
??0exception@std@@QEAA@QEBD@Z PROC			; std::exception::exception, COMDAT

; 55   :     {

$LN5:
	push	rbx
	sub	rsp, 64					; 00000040H
	mov	rax, QWORD PTR __security_cookie
	xor	rax, rsp
	mov	QWORD PTR __$ArrayPad$[rsp], rax

; 54   :         : _Data()

	lea	rdx, QWORD PTR [rcx+8]

; 56   :         __std_exception_data _InitData = { _Message, true };

	mov	BYTE PTR _InitData$[rsp+8], 1
	lea	rax, OFFSET FLAT:??_7exception@std@@6B@
	mov	rbx, rcx
	mov	QWORD PTR [rcx], rax
	xor	eax, eax
	mov	QWORD PTR [rdx], rax

; 57   :         __std_exception_copy(&_InitData, &_Data);

	lea	rcx, QWORD PTR _InitData$[rsp]
	mov	QWORD PTR [rdx+8], rax
	lea	rax, OFFSET FLAT:??_C@_0HA@FGLJHMJI@cpu2a03_fast?3?3coldboot?$CI?$CJ?5called@
	mov	QWORD PTR _InitData$[rsp], rax
	call	QWORD PTR __imp___std_exception_copy

; 58   :     }

	mov	rax, rbx
	mov	rcx, QWORD PTR __$ArrayPad$[rsp]
	xor	rcx, rsp
	call	__security_check_cookie
	add	rsp, 64					; 00000040H
	pop	rbx
	ret	0
??0exception@std@@QEAA@QEBD@Z ENDP			; std::exception::exception
_TEXT	ENDS
; Function compile flags: /Ogtpy
; File c:\program files (x86)\microsoft visual studio\2017\community\vc\tools\msvc\14.16.27023\include\vcruntime_exception.h
;	COMDAT ??1exception@std@@UEAA@XZ
_TEXT	SEGMENT
this$ = 8
??1exception@std@@UEAA@XZ PROC				; std::exception::~exception, COMDAT

; 85   :     {

	lea	rax, OFFSET FLAT:??_7exception@std@@6B@
	mov	QWORD PTR [rcx], rax

; 86   :         __std_exception_destroy(&_Data);

	add	rcx, 8
	rex_jmp	QWORD PTR __imp___std_exception_destroy
??1exception@std@@UEAA@XZ ENDP				; std::exception::~exception
_TEXT	ENDS
; Function compile flags: /Ogtpy
; File c:\program files (x86)\microsoft visual studio\2017\community\vc\tools\msvc\14.16.27023\include\vcruntime_exception.h
;	COMDAT ?what@exception@std@@UEBAPEBDXZ
_TEXT	SEGMENT
this$ = 8
?what@exception@std@@UEBAPEBDXZ PROC			; std::exception::what, COMDAT

; 91   :         return _Data._What ? _Data._What : "Unknown exception";

	mov	rdx, QWORD PTR [rcx+8]
	lea	rax, OFFSET FLAT:??_C@_0BC@EOODALEL@Unknown?5exception@
	test	rdx, rdx
	cmovne	rax, rdx

; 92   :     }

	ret	0
?what@exception@std@@UEBAPEBDXZ ENDP			; std::exception::what
_TEXT	ENDS
; Function compile flags: /Ogtpy
; File c:\program files (x86)\microsoft visual studio\2017\community\vc\tools\msvc\14.16.27023\include\vcruntime_exception.h
;	COMDAT ??_Gexception@std@@UEAAPEAXI@Z
_TEXT	SEGMENT
this$ = 48
__flags$ = 56
??_Gexception@std@@UEAAPEAXI@Z PROC			; std::exception::`scalar deleting destructor', COMDAT
$LN9:
	mov	QWORD PTR [rsp+8], rbx
	push	rdi
	sub	rsp, 32					; 00000020H

; 85   :     {

	lea	rax, OFFSET FLAT:??_7exception@std@@6B@
	mov	rdi, rcx
	mov	QWORD PTR [rcx], rax
	mov	ebx, edx

; 86   :         __std_exception_destroy(&_Data);

	add	rcx, 8
	call	QWORD PTR __imp___std_exception_destroy
	test	bl, 1
	je	SHORT $LN6@scalar
	mov	edx, 24
	mov	rcx, rdi
	call	??3@YAXPEAX_K@Z				; operator delete
$LN6@scalar:
	mov	rbx, QWORD PTR [rsp+48]
	mov	rax, rdi
	add	rsp, 32					; 00000020H
	pop	rdi
	ret	0
??_Gexception@std@@UEAAPEAXI@Z ENDP			; std::exception::`scalar deleting destructor'
_TEXT	ENDS
; Function compile flags: /Ogtpy
; File c:\program files (x86)\microsoft visual studio\2017\community\vc\tools\msvc\14.16.27023\include\stdexcept
; File c:\program files (x86)\microsoft visual studio\2017\community\vc\tools\msvc\14.16.27023\include\vcruntime_exception.h
; File c:\program files (x86)\microsoft visual studio\2017\community\vc\tools\msvc\14.16.27023\include\stdexcept
; File c:\program files (x86)\microsoft visual studio\2017\community\vc\tools\msvc\14.16.27023\include\vcruntime_exception.h
; File c:\program files (x86)\microsoft visual studio\2017\community\vc\tools\msvc\14.16.27023\include\stdexcept
;	COMDAT ??0runtime_error@std@@QEAA@PEBD@Z
_TEXT	SEGMENT
_InitData$1 = 32
__$ArrayPad$ = 48
this$ = 80
_Message$dead$ = 88
??0runtime_error@std@@QEAA@PEBD@Z PROC			; std::runtime_error::runtime_error, COMDAT

; 170  : 		{	// construct from message string

$LN7:
	push	rbx
	sub	rsp, 64					; 00000040H
	mov	rax, QWORD PTR __security_cookie
	xor	rax, rsp
	mov	QWORD PTR __$ArrayPad$[rsp], rax
; File c:\program files (x86)\microsoft visual studio\2017\community\vc\tools\msvc\14.16.27023\include\vcruntime_exception.h

; 54   :         : _Data()

	lea	rdx, QWORD PTR [rcx+8]

; 56   :         __std_exception_data _InitData = { _Message, true };

	mov	BYTE PTR _InitData$1[rsp+8], 1
	lea	rax, OFFSET FLAT:??_7exception@std@@6B@
; File c:\program files (x86)\microsoft visual studio\2017\community\vc\tools\msvc\14.16.27023\include\stdexcept

; 170  : 		{	// construct from message string

	mov	rbx, rcx
; File c:\program files (x86)\microsoft visual studio\2017\community\vc\tools\msvc\14.16.27023\include\vcruntime_exception.h

; 55   :     {

	mov	QWORD PTR [rcx], rax
	xor	eax, eax
	mov	QWORD PTR [rdx], rax

; 57   :         __std_exception_copy(&_InitData, &_Data);

	lea	rcx, QWORD PTR _InitData$1[rsp]
	mov	QWORD PTR [rdx+8], rax
	lea	rax, OFFSET FLAT:??_C@_0HA@FGLJHMJI@cpu2a03_fast?3?3coldboot?$CI?$CJ?5called@
	mov	QWORD PTR _InitData$1[rsp], rax
	call	QWORD PTR __imp___std_exception_copy
; File c:\program files (x86)\microsoft visual studio\2017\community\vc\tools\msvc\14.16.27023\include\stdexcept

; 170  : 		{	// construct from message string

	lea	rax, OFFSET FLAT:??_7runtime_error@std@@6B@
	mov	QWORD PTR [rbx], rax

; 171  : 		}

	mov	rax, rbx
	mov	rcx, QWORD PTR __$ArrayPad$[rsp]
	xor	rcx, rsp
	call	__security_check_cookie
	add	rsp, 64					; 00000040H
	pop	rbx
	ret	0
??0runtime_error@std@@QEAA@PEBD@Z ENDP			; std::runtime_error::runtime_error
_TEXT	ENDS
; Function compile flags: /Ogtpy
; File c:\program files (x86)\microsoft visual studio\2017\community\vc\tools\msvc\14.16.27023\include\vcruntime_exception.h
;	COMDAT ??_Gruntime_error@std@@UEAAPEAXI@Z
_TEXT	SEGMENT
this$ = 48
__flags$ = 56
??_Gruntime_error@std@@UEAAPEAXI@Z PROC			; std::runtime_error::`scalar deleting destructor', COMDAT
$LN12:
	mov	QWORD PTR [rsp+8], rbx
	push	rdi
	sub	rsp, 32					; 00000020H

; 85   :     {

	lea	rax, OFFSET FLAT:??_7exception@std@@6B@
	mov	rdi, rcx
	mov	QWORD PTR [rcx], rax
	mov	ebx, edx

; 86   :         __std_exception_destroy(&_Data);

	add	rcx, 8
	call	QWORD PTR __imp___std_exception_destroy
	test	bl, 1
	je	SHORT $LN9@scalar
	mov	edx, 24
	mov	rcx, rdi
	call	??3@YAXPEAX_K@Z				; operator delete
$LN9@scalar:
	mov	rbx, QWORD PTR [rsp+48]
	mov	rax, rdi
	add	rsp, 32					; 00000020H
	pop	rdi
	ret	0
??_Gruntime_error@std@@UEAAPEAXI@Z ENDP			; std::runtime_error::`scalar deleting destructor'
_TEXT	ENDS
; Function compile flags: /Ogtpy
; File c:\program files (x86)\microsoft visual studio\2017\community\vc\tools\msvc\14.16.27023\include\vcruntime_exception.h
;	COMDAT ??1runtime_error@std@@UEAA@XZ
_TEXT	SEGMENT
this$ = 8
??1runtime_error@std@@UEAA@XZ PROC			; std::runtime_error::~runtime_error, COMDAT

; 85   :     {

	lea	rax, OFFSET FLAT:??_7exception@std@@6B@
	mov	QWORD PTR [rcx], rax

; 86   :         __std_exception_destroy(&_Data);

	add	rcx, 8
	rex_jmp	QWORD PTR __imp___std_exception_destroy
??1runtime_error@std@@UEAA@XZ ENDP			; std::runtime_error::~runtime_error
_TEXT	ENDS
; Function compile flags: /Ogtpy
; File c:\users\nightorius.phibian\source\repos\denveremu\denveremu\cpu\cpu2a03_fast.cpp
;	COMDAT ??0cpu2a03_fast@@QEAA@XZ
_TEXT	SEGMENT
this$ = 48
??0cpu2a03_fast@@QEAA@XZ PROC				; cpu2a03_fast::cpu2a03_fast, COMDAT

; 6    : cpu2a03_fast::cpu2a03_fast() {

$LN7:
	push	rbx
	sub	rsp, 32					; 00000020H
	mov	rbx, rcx
	call	??0bus_device@@QEAA@XZ			; bus_device::bus_device

; 7    : 	// initialize cpu.
; 8    : 	strcpy_s(get_device_descriptor(), MAX_DESCRIPTOR_LENGTH, "Denver 2a03 CPU (fast emulation)");

	mov	rcx, QWORD PTR [rbx+8]
	lea	rax, OFFSET FLAT:??_7cpu2a03_fast@@6B@
	lea	r8, OFFSET FLAT:??_C@_0CB@COBPCPJC@Denver?52a03?5CPU?5?$CIfast?5emulation@
	mov	QWORD PTR [rbx], rax
	mov	edx, 128				; 00000080H
	call	QWORD PTR __imp_strcpy_s

; 9    : 	regs.pc = 0x0000;

	xor	eax, eax

; 10   : 	regs.sp = 0xFD;
; 11   : 	regs.sr = cf_interrupt | cf_break | 0x20;
; 12   : 	regs.x = 0x00;

	mov	DWORD PTR [rbx+75], 888995840		; 34fd0000H
	mov	WORD PTR [rbx+72], ax

; 13   : 	regs.y = 0x00;
; 14   : 	regs.ac = 0x00;

	mov	BYTE PTR [rbx+74], al

; 15   : 	mbus = nullptr;

	mov	QWORD PTR [rbx+88], rax

; 16   : 	tick_rate = 0x3;
; 17   : 	error_state = false;

	mov	BYTE PTR [rbx+96], al

; 18   : 
; 19   : 	// CPU also has some HW in it.
; 20   : 	devicestart = 0x4000;
; 21   : 	deviceend = 0x401F;
; 22   : 	devicemask = 0x401F;
; 23   : }

	mov	rax, rbx
	mov	DWORD PTR [rbx+16], 3
	mov	DWORD PTR [rbx+44], 16384		; 00004000H
	mov	DWORD PTR [rbx+48], 16415		; 0000401fH
	mov	DWORD PTR [rbx+52], 16415		; 0000401fH
	add	rsp, 32					; 00000020H
	pop	rbx
	ret	0
??0cpu2a03_fast@@QEAA@XZ ENDP				; cpu2a03_fast::cpu2a03_fast
_TEXT	ENDS
; Function compile flags: /Ogtpy
; File c:\users\nightorius.phibian\source\repos\denveremu\denveremu\bus\bus.cpp
;	COMDAT ??_Gcpu2a03_fast@@UEAAPEAXI@Z
_TEXT	SEGMENT
this$ = 48
__flags$ = 56
??_Gcpu2a03_fast@@UEAAPEAXI@Z PROC			; cpu2a03_fast::`scalar deleting destructor', COMDAT
$LN15:
	mov	QWORD PTR [rsp+8], rbx
	push	rdi
	sub	rsp, 32					; 00000020H

; 185  : device::~device() {

	lea	rax, OFFSET FLAT:??_7device@@6B@
	mov	rdi, rcx
	mov	QWORD PTR [rcx], rax
	mov	ebx, edx

; 186  : 	free(devicedescriptor);	// be done with it.

	mov	rcx, QWORD PTR [rcx+8]
	call	QWORD PTR __imp_free
	test	bl, 1
	je	SHORT $LN12@scalar
	mov	edx, 104				; 00000068H
	mov	rcx, rdi
	call	??3@YAXPEAX_K@Z				; operator delete
$LN12@scalar:
	mov	rbx, QWORD PTR [rsp+48]
	mov	rax, rdi
	add	rsp, 32					; 00000020H
	pop	rdi
	ret	0
??_Gcpu2a03_fast@@UEAAPEAXI@Z ENDP			; cpu2a03_fast::`scalar deleting destructor'
_TEXT	ENDS
; Function compile flags: /Ogtpy
; File c:\users\nightorius.phibian\source\repos\denveremu\denveremu\cpu\cpu2a03_fast.cpp
; File c:\users\nightorius.phibian\source\repos\denveremu\denveremu\bus\bus.cpp
; File c:\users\nightorius.phibian\source\repos\denveremu\denveremu\cpu\cpu2a03_fast.cpp
;	COMDAT ??1cpu2a03_fast@@UEAA@XZ
_TEXT	SEGMENT
this$ = 8
??1cpu2a03_fast@@UEAA@XZ PROC				; cpu2a03_fast::~cpu2a03_fast, COMDAT
; File c:\users\nightorius.phibian\source\repos\denveremu\denveremu\bus\bus.cpp

; 185  : device::~device() {

	lea	rax, OFFSET FLAT:??_7device@@6B@
	mov	QWORD PTR [rcx], rax

; 186  : 	free(devicedescriptor);	// be done with it.

	mov	rcx, QWORD PTR [rcx+8]
	rex_jmp	QWORD PTR __imp_free
??1cpu2a03_fast@@UEAA@XZ ENDP				; cpu2a03_fast::~cpu2a03_fast
_TEXT	ENDS
; Function compile flags: /Ogtpy
; File c:\users\nightorius.phibian\source\repos\denveremu\denveremu\cpu\cpu2a03_fast.cpp
;	COMDAT ?log_register@cpu2a03_fast@@QEAAXXZ
_TEXT	SEGMENT
this$dead$ = 8
?log_register@cpu2a03_fast@@QEAAXXZ PROC		; cpu2a03_fast::log_register, COMDAT

; 29   : }

	ret	0
?log_register@cpu2a03_fast@@QEAAXXZ ENDP		; cpu2a03_fast::log_register
_TEXT	ENDS
; Function compile flags: /Ogtpy
; File c:\users\nightorius.phibian\source\repos\denveremu\denveremu\cpu\cpu2a03_fast.cpp
;	COMDAT ?pushstack_byte@cpu2a03_fast@@QEAAXE@Z
_TEXT	SEGMENT
this$ = 48
data$ = 56
?pushstack_byte@cpu2a03_fast@@QEAAXE@Z PROC		; cpu2a03_fast::pushstack_byte, COMDAT

; 35   : void cpu2a03_fast::pushstack_byte(byte data) {

$LN4:
	push	rbx
	sub	rsp, 32					; 00000020H
	movzx	r8d, dl
	mov	rbx, rcx

; 36   : 	// puts a byte on the stack.
; 37   : 	mbus->writememory(0x0100 + regs.sp, data);

	movzx	edx, BYTE PTR [rcx+77]
	mov	rcx, QWORD PTR [rcx+88]
	add	edx, 256				; 00000100H
	call	?writememory@bus@@QEAAXHE@Z		; bus::writememory

; 38   : 	regs.sp--;

	dec	BYTE PTR [rbx+77]

; 39   : }

	add	rsp, 32					; 00000020H
	pop	rbx
	ret	0
?pushstack_byte@cpu2a03_fast@@QEAAXE@Z ENDP		; cpu2a03_fast::pushstack_byte
_TEXT	ENDS
; Function compile flags: /Ogtpy
; File c:\users\nightorius.phibian\source\repos\denveremu\denveremu\cpu\cpu2a03_fast.cpp
;	COMDAT ?pushstack_word@cpu2a03_fast@@QEAAXG@Z
_TEXT	SEGMENT
this$ = 48
data$ = 56
?pushstack_word@cpu2a03_fast@@QEAAXG@Z PROC		; cpu2a03_fast::pushstack_word, COMDAT

; 41   : void cpu2a03_fast::pushstack_word(word data) {

$LN8:
	mov	QWORD PTR [rsp+8], rbx
	push	rdi
	sub	rsp, 32					; 00000020H

; 42   : 	pushstack_byte((data & 0xFF00) >> 8);

	movzx	r8d, dx
	movzx	ebx, dx

; 37   : 	mbus->writememory(0x0100 + regs.sp, data);

	movzx	edx, BYTE PTR [rcx+77]

; 41   : void cpu2a03_fast::pushstack_word(word data) {

	mov	rdi, rcx

; 37   : 	mbus->writememory(0x0100 + regs.sp, data);

	mov	rcx, QWORD PTR [rcx+88]
	add	edx, 256				; 00000100H

; 42   : 	pushstack_byte((data & 0xFF00) >> 8);

	shr	r8w, 8

; 37   : 	mbus->writememory(0x0100 + regs.sp, data);

	call	?writememory@bus@@QEAAXHE@Z		; bus::writememory

; 38   : 	regs.sp--;

	dec	BYTE PTR [rdi+77]

; 37   : 	mbus->writememory(0x0100 + regs.sp, data);

	movzx	r8d, bl

; 38   : 	regs.sp--;

	movzx	edx, BYTE PTR [rdi+77]

; 37   : 	mbus->writememory(0x0100 + regs.sp, data);

	mov	rcx, QWORD PTR [rdi+88]
	add	edx, 256				; 00000100H
	call	?writememory@bus@@QEAAXHE@Z		; bus::writememory

; 38   : 	regs.sp--;

	dec	BYTE PTR [rdi+77]

; 43   : 	pushstack_byte((data & 0x00FF));
; 44   : }

	mov	rbx, QWORD PTR [rsp+48]
	add	rsp, 32					; 00000020H
	pop	rdi
	ret	0
?pushstack_word@cpu2a03_fast@@QEAAXG@Z ENDP		; cpu2a03_fast::pushstack_word
_TEXT	ENDS
; Function compile flags: /Ogtpy
; File c:\users\nightorius.phibian\source\repos\denveremu\denveremu\cpu\cpu2a03_fast.cpp
; File c:\users\nightorius.phibian\source\repos\denveremu\denveremu\bus\bus.cpp
; File c:\users\nightorius.phibian\source\repos\denveremu\denveremu\cpu\cpu2a03_fast.cpp
;	COMDAT ?pullstack_byte@cpu2a03_fast@@QEAAEXZ
_TEXT	SEGMENT
this$ = 8
?pullstack_byte@cpu2a03_fast@@QEAAEXZ PROC		; cpu2a03_fast::pullstack_byte, COMDAT

; 47   : 	regs.sp++;

	inc	BYTE PTR [rcx+77]
	movzx	eax, BYTE PTR [rcx+77]

; 48   : 	return mbus->readmemory(0x0100 + regs.sp);

	mov	rcx, QWORD PTR [rcx+88]
	add	eax, 256				; 00000100H
; File c:\users\nightorius.phibian\source\repos\denveremu\denveremu\bus\bus.cpp

; 23   : 	address = addr;

	mov	DWORD PTR [rcx], eax

; 24   : 	return read();

	jmp	?read@bus@@QEAAEXZ			; bus::read
?pullstack_byte@cpu2a03_fast@@QEAAEXZ ENDP		; cpu2a03_fast::pullstack_byte
_TEXT	ENDS
; Function compile flags: /Ogtpy
; File c:\users\nightorius.phibian\source\repos\denveremu\denveremu\cpu\cpu2a03_fast.cpp
; File c:\users\nightorius.phibian\source\repos\denveremu\denveremu\bus\bus.cpp
; File c:\users\nightorius.phibian\source\repos\denveremu\denveremu\cpu\cpu2a03_fast.cpp
; File c:\users\nightorius.phibian\source\repos\denveremu\denveremu\bus\bus.cpp
; File c:\users\nightorius.phibian\source\repos\denveremu\denveremu\cpu\cpu2a03_fast.cpp
; File c:\users\nightorius.phibian\source\repos\denveremu\denveremu\bus\bus.cpp
; File c:\users\nightorius.phibian\source\repos\denveremu\denveremu\cpu\cpu2a03_fast.cpp
;	COMDAT ?pullstack_word@cpu2a03_fast@@QEAAGXZ
_TEXT	SEGMENT
this$ = 48
?pullstack_word@cpu2a03_fast@@QEAAGXZ PROC		; cpu2a03_fast::pullstack_word, COMDAT

; 51   : word cpu2a03_fast::pullstack_word() {

$LN12:
	mov	QWORD PTR [rsp+8], rbx
	push	rdi
	sub	rsp, 32					; 00000020H

; 47   : 	regs.sp++;

	inc	BYTE PTR [rcx+77]

; 51   : word cpu2a03_fast::pullstack_word() {

	mov	rdi, rcx

; 47   : 	regs.sp++;

	movzx	eax, BYTE PTR [rcx+77]

; 48   : 	return mbus->readmemory(0x0100 + regs.sp);

	mov	rcx, QWORD PTR [rcx+88]
	add	eax, 256				; 00000100H
; File c:\users\nightorius.phibian\source\repos\denveremu\denveremu\bus\bus.cpp

; 23   : 	address = addr;

	mov	DWORD PTR [rcx], eax

; 24   : 	return read();

	call	?read@bus@@QEAAEXZ			; bus::read
; File c:\users\nightorius.phibian\source\repos\denveremu\denveremu\cpu\cpu2a03_fast.cpp

; 47   : 	regs.sp++;

	inc	BYTE PTR [rdi+77]

; 48   : 	return mbus->readmemory(0x0100 + regs.sp);

	mov	rcx, QWORD PTR [rdi+88]
; File c:\users\nightorius.phibian\source\repos\denveremu\denveremu\bus\bus.cpp

; 24   : 	return read();

	movzx	ebx, al
; File c:\users\nightorius.phibian\source\repos\denveremu\denveremu\cpu\cpu2a03_fast.cpp

; 47   : 	regs.sp++;

	movzx	eax, BYTE PTR [rdi+77]

; 48   : 	return mbus->readmemory(0x0100 + regs.sp);

	add	eax, 256				; 00000100H
; File c:\users\nightorius.phibian\source\repos\denveremu\denveremu\bus\bus.cpp

; 23   : 	address = addr;

	mov	DWORD PTR [rcx], eax

; 24   : 	return read();

	call	?read@bus@@QEAAEXZ			; bus::read
	movzx	eax, al
; File c:\users\nightorius.phibian\source\repos\denveremu\denveremu\cpu\cpu2a03_fast.cpp

; 54   : 	t |= (pullstack_byte() << 8);

	shl	ax, 8
	or	ax, bx

; 55   : 	return t;
; 56   : }

	mov	rbx, QWORD PTR [rsp+48]
	add	rsp, 32					; 00000020H
	pop	rdi
	ret	0
?pullstack_word@cpu2a03_fast@@QEAAGXZ ENDP		; cpu2a03_fast::pullstack_word
_TEXT	ENDS
; Function compile flags: /Ogtpy
; File c:\users\nightorius.phibian\source\repos\denveremu\denveremu\cpu\cpu2a03_fast.cpp
;	COMDAT ?rundevice@cpu2a03_fast@@UEAAHH@Z
_TEXT	SEGMENT
this$ = 48
ticks$ = 56
?rundevice@cpu2a03_fast@@UEAAHH@Z PROC			; cpu2a03_fast::rundevice, COMDAT

; 58   : int cpu2a03_fast::rundevice(int ticks) {

$LN11:
	mov	QWORD PTR [rsp+8], rbx
	mov	QWORD PTR [rsp+16], rsi
	push	rdi
	sub	rsp, 32					; 00000020H

; 59   : 	int tickcount = 0;

	xor	ebx, ebx
	mov	edi, edx
	mov	rsi, rcx

; 60   : 	while (tickcount < ticks) {

	test	edx, edx
	jle	SHORT $LN3@rundevice
	npad	6
$LL2@rundevice:

; 61   : 		tickcount += rundevice_internal(ticks);

	mov	rcx, rsi
	call	?rundevice_internal@cpu2a03_fast@@AEAAHH@Z ; cpu2a03_fast::rundevice_internal
	add	ebx, eax

; 62   : 		// dma we need to break immediality. clock module needs this attention.
; 63   : 		if (in_dma_mode) return tickcount;

	cmp	BYTE PTR [rsi+36], 0
	jne	SHORT $LN3@rundevice

; 60   : 	while (tickcount < ticks) {

	cmp	ebx, edi
	jl	SHORT $LL2@rundevice
$LN3@rundevice:

; 64   : 	}
; 65   : 	return tickcount;
; 66   : }

	mov	rsi, QWORD PTR [rsp+56]
	mov	eax, ebx
	mov	rbx, QWORD PTR [rsp+48]
	add	rsp, 32					; 00000020H
	pop	rdi
	ret	0
?rundevice@cpu2a03_fast@@UEAAHH@Z ENDP			; cpu2a03_fast::rundevice
_TEXT	ENDS
; Function compile flags: /Ogtpy
; File c:\users\nightorius.phibian\source\repos\denveremu\denveremu\cpu\cpu2a03_fast.cpp
; File c:\users\nightorius.phibian\source\repos\denveremu\denveremu\bus\bus.cpp
; File c:\users\nightorius.phibian\source\repos\denveremu\denveremu\cpu\cpu2a03_fast.cpp
; File c:\users\nightorius.phibian\source\repos\denveremu\denveremu\bus\bus.cpp
; File c:\users\nightorius.phibian\source\repos\denveremu\denveremu\cpu\cpu2a03_fast.cpp
; File c:\users\nightorius.phibian\source\repos\denveremu\denveremu\bus\bus.cpp
; File c:\users\nightorius.phibian\source\repos\denveremu\denveremu\cpu\cpu2a03_fast.cpp
; File c:\users\nightorius.phibian\source\repos\denveremu\denveremu\bus\bus.cpp
; File c:\users\nightorius.phibian\source\repos\denveremu\denveremu\cpu\cpu2a03_fast.cpp
; File c:\users\nightorius.phibian\source\repos\denveremu\denveremu\bus\bus.cpp
; File c:\users\nightorius.phibian\source\repos\denveremu\denveremu\cpu\cpu2a03_fast.cpp
; File c:\users\nightorius.phibian\source\repos\denveremu\denveremu\bus\bus.cpp
; File c:\users\nightorius.phibian\source\repos\denveremu\denveremu\cpu\cpu2a03_fast.cpp
; File c:\users\nightorius.phibian\source\repos\denveremu\denveremu\bus\bus.cpp
; File c:\users\nightorius.phibian\source\repos\denveremu\denveremu\cpu\cpu2a03_fast.cpp
; File c:\users\nightorius.phibian\source\repos\denveremu\denveremu\bus\bus.cpp
; File c:\users\nightorius.phibian\source\repos\denveremu\denveremu\cpu\cpu2a03_fast.cpp
; File c:\users\nightorius.phibian\source\repos\denveremu\denveremu\bus\bus.cpp
; File c:\users\nightorius.phibian\source\repos\denveremu\denveremu\cpu\cpu2a03_fast.cpp
; File c:\users\nightorius.phibian\source\repos\denveremu\denveremu\bus\bus.cpp
; File c:\users\nightorius.phibian\source\repos\denveremu\denveremu\cpu\cpu2a03_fast.cpp
; File c:\users\nightorius.phibian\source\repos\denveremu\denveremu\bus\bus.cpp
; File c:\users\nightorius.phibian\source\repos\denveremu\denveremu\cpu\cpu2a03_fast.cpp
; File c:\users\nightorius.phibian\source\repos\denveremu\denveremu\bus\bus.cpp
; File c:\users\nightorius.phibian\source\repos\denveremu\denveremu\cpu\cpu2a03_fast.cpp
; File c:\users\nightorius.phibian\source\repos\denveremu\denveremu\bus\bus.cpp
; File c:\users\nightorius.phibian\source\repos\denveremu\denveremu\cpu\cpu2a03_fast.cpp
; File c:\users\nightorius.phibian\source\repos\denveremu\denveremu\bus\bus.cpp
; File c:\users\nightorius.phibian\source\repos\denveremu\denveremu\cpu\cpu2a03_fast.cpp
; File c:\users\nightorius.phibian\source\repos\denveremu\denveremu\bus\bus.cpp
; File c:\users\nightorius.phibian\source\repos\denveremu\denveremu\cpu\cpu2a03_fast.cpp
; File c:\users\nightorius.phibian\source\repos\denveremu\denveremu\bus\bus.cpp
; File c:\users\nightorius.phibian\source\repos\denveremu\denveremu\cpu\cpu2a03_fast.cpp
; File c:\users\nightorius.phibian\source\repos\denveremu\denveremu\bus\bus.cpp
; File c:\users\nightorius.phibian\source\repos\denveremu\denveremu\cpu\cpu2a03_fast.cpp
; File c:\users\nightorius.phibian\source\repos\denveremu\denveremu\bus\bus.cpp
; File c:\users\nightorius.phibian\source\repos\denveremu\denveremu\cpu\cpu2a03_fast.cpp
; File c:\users\nightorius.phibian\source\repos\denveremu\denveremu\bus\bus.cpp
; File c:\users\nightorius.phibian\source\repos\denveremu\denveremu\cpu\cpu2a03_fast.cpp
; File c:\users\nightorius.phibian\source\repos\denveremu\denveremu\bus\bus.cpp
; File c:\users\nightorius.phibian\source\repos\denveremu\denveremu\cpu\cpu2a03_fast.cpp
; File c:\users\nightorius.phibian\source\repos\denveremu\denveremu\bus\bus.cpp
; File c:\users\nightorius.phibian\source\repos\denveremu\denveremu\cpu\cpu2a03_fast.cpp
; File c:\users\nightorius.phibian\source\repos\denveremu\denveremu\bus\bus.cpp
; File c:\users\nightorius.phibian\source\repos\denveremu\denveremu\cpu\cpu2a03_fast.cpp
; File c:\users\nightorius.phibian\source\repos\denveremu\denveremu\bus\bus.cpp
; File c:\users\nightorius.phibian\source\repos\denveremu\denveremu\cpu\cpu2a03_fast.cpp
; File c:\users\nightorius.phibian\source\repos\denveremu\denveremu\bus\bus.cpp
; File c:\users\nightorius.phibian\source\repos\denveremu\denveremu\cpu\cpu2a03_fast.cpp
; File c:\users\nightorius.phibian\source\repos\denveremu\denveremu\bus\bus.cpp
; File c:\users\nightorius.phibian\source\repos\denveremu\denveremu\cpu\cpu2a03_fast.cpp
; File c:\users\nightorius.phibian\source\repos\denveremu\denveremu\bus\bus.cpp
; File c:\users\nightorius.phibian\source\repos\denveremu\denveremu\cpu\cpu2a03_fast.cpp
; File c:\users\nightorius.phibian\source\repos\denveremu\denveremu\bus\bus.cpp
; File c:\users\nightorius.phibian\source\repos\denveremu\denveremu\cpu\cpu2a03_fast.cpp
; File c:\users\nightorius.phibian\source\repos\denveremu\denveremu\bus\bus.cpp
; File c:\users\nightorius.phibian\source\repos\denveremu\denveremu\cpu\cpu2a03_fast.cpp
; File c:\users\nightorius.phibian\source\repos\denveremu\denveremu\bus\bus.cpp
; File c:\users\nightorius.phibian\source\repos\denveremu\denveremu\cpu\cpu2a03_fast.cpp
; File c:\users\nightorius.phibian\source\repos\denveremu\denveremu\bus\bus.cpp
; File c:\users\nightorius.phibian\source\repos\denveremu\denveremu\cpu\cpu2a03_fast.cpp
; File c:\users\nightorius.phibian\source\repos\denveremu\denveremu\bus\bus.cpp
; File c:\users\nightorius.phibian\source\repos\denveremu\denveremu\cpu\cpu2a03_fast.cpp
; File c:\users\nightorius.phibian\source\repos\denveremu\denveremu\bus\bus.cpp
; File c:\users\nightorius.phibian\source\repos\denveremu\denveremu\cpu\cpu2a03_fast.cpp
; File c:\users\nightorius.phibian\source\repos\denveremu\denveremu\bus\bus.cpp
; File c:\users\nightorius.phibian\source\repos\denveremu\denveremu\cpu\cpu2a03_fast.cpp
; File c:\users\nightorius.phibian\source\repos\denveremu\denveremu\bus\bus.cpp
; File c:\users\nightorius.phibian\source\repos\denveremu\denveremu\cpu\cpu2a03_fast.cpp
; File c:\users\nightorius.phibian\source\repos\denveremu\denveremu\bus\bus.cpp
; File c:\users\nightorius.phibian\source\repos\denveremu\denveremu\cpu\cpu2a03_fast.cpp
; File c:\users\nightorius.phibian\source\repos\denveremu\denveremu\bus\bus.cpp
; File c:\users\nightorius.phibian\source\repos\denveremu\denveremu\cpu\cpu2a03_fast.cpp
; File c:\users\nightorius.phibian\source\repos\denveremu\denveremu\bus\bus.cpp
; File c:\users\nightorius.phibian\source\repos\denveremu\denveremu\cpu\cpu2a03_fast.cpp
; File c:\users\nightorius.phibian\source\repos\denveremu\denveremu\bus\bus.cpp
; File c:\users\nightorius.phibian\source\repos\denveremu\denveremu\cpu\cpu2a03_fast.cpp
; File c:\users\nightorius.phibian\source\repos\denveremu\denveremu\bus\bus.cpp
; File c:\users\nightorius.phibian\source\repos\denveremu\denveremu\cpu\cpu2a03_fast.cpp
; File c:\users\nightorius.phibian\source\repos\denveremu\denveremu\bus\bus.cpp
; File c:\users\nightorius.phibian\source\repos\denveremu\denveremu\cpu\cpu2a03_fast.cpp
; File c:\users\nightorius.phibian\source\repos\denveremu\denveremu\bus\bus.cpp
; File c:\users\nightorius.phibian\source\repos\denveremu\denveremu\cpu\cpu2a03_fast.cpp
; File c:\users\nightorius.phibian\source\repos\denveremu\denveremu\bus\bus.cpp
; File c:\users\nightorius.phibian\source\repos\denveremu\denveremu\cpu\cpu2a03_fast.cpp
; File c:\users\nightorius.phibian\source\repos\denveremu\denveremu\bus\bus.cpp
; File c:\users\nightorius.phibian\source\repos\denveremu\denveremu\cpu\cpu2a03_fast.cpp
; File c:\users\nightorius.phibian\source\repos\denveremu\denveremu\bus\bus.cpp
; File c:\users\nightorius.phibian\source\repos\denveremu\denveremu\cpu\cpu2a03_fast.cpp
; File c:\users\nightorius.phibian\source\repos\denveremu\denveremu\bus\bus.cpp
; File c:\users\nightorius.phibian\source\repos\denveremu\denveremu\cpu\cpu2a03_fast.cpp
; File c:\users\nightorius.phibian\source\repos\denveremu\denveremu\bus\bus.cpp
; File c:\users\nightorius.phibian\source\repos\denveremu\denveremu\cpu\cpu2a03_fast.cpp
; File c:\users\nightorius.phibian\source\repos\denveremu\denveremu\bus\bus.cpp
; File c:\users\nightorius.phibian\source\repos\denveremu\denveremu\cpu\cpu2a03_fast.cpp
; File c:\users\nightorius.phibian\source\repos\denveremu\denveremu\bus\bus.cpp
; File c:\users\nightorius.phibian\source\repos\denveremu\denveremu\cpu\cpu2a03_fast.cpp
; File c:\users\nightorius.phibian\source\repos\denveremu\denveremu\bus\bus.cpp
; File c:\users\nightorius.phibian\source\repos\denveremu\denveremu\cpu\cpu2a03_fast.cpp
; File c:\users\nightorius.phibian\source\repos\denveremu\denveremu\bus\bus.cpp
; File c:\users\nightorius.phibian\source\repos\denveremu\denveremu\cpu\cpu2a03_fast.cpp
; File c:\users\nightorius.phibian\source\repos\denveremu\denveremu\bus\bus.cpp
; File c:\users\nightorius.phibian\source\repos\denveremu\denveremu\cpu\cpu2a03_fast.cpp
; File c:\users\nightorius.phibian\source\repos\denveremu\denveremu\bus\bus.cpp
; File c:\users\nightorius.phibian\source\repos\denveremu\denveremu\cpu\cpu2a03_fast.cpp
; File c:\users\nightorius.phibian\source\repos\denveremu\denveremu\bus\bus.cpp
; File c:\users\nightorius.phibian\source\repos\denveremu\denveremu\cpu\cpu2a03_fast.cpp
; File c:\users\nightorius.phibian\source\repos\denveremu\denveremu\bus\bus.cpp
; File c:\users\nightorius.phibian\source\repos\denveremu\denveremu\cpu\cpu2a03_fast.cpp
; File c:\users\nightorius.phibian\source\repos\denveremu\denveremu\bus\bus.cpp
; File c:\users\nightorius.phibian\source\repos\denveremu\denveremu\cpu\cpu2a03_fast.cpp
; File c:\users\nightorius.phibian\source\repos\denveremu\denveremu\bus\bus.cpp
; File c:\users\nightorius.phibian\source\repos\denveremu\denveremu\cpu\cpu2a03_fast.cpp
; File c:\users\nightorius.phibian\source\repos\denveremu\denveremu\bus\bus.cpp
; File c:\users\nightorius.phibian\source\repos\denveremu\denveremu\cpu\cpu2a03_fast.cpp
; File c:\users\nightorius.phibian\source\repos\denveremu\denveremu\bus\bus.cpp
; File c:\users\nightorius.phibian\source\repos\denveremu\denveremu\cpu\cpu2a03_fast.cpp
; File c:\users\nightorius.phibian\source\repos\denveremu\denveremu\bus\bus.cpp
; File c:\users\nightorius.phibian\source\repos\denveremu\denveremu\cpu\cpu2a03_fast.cpp
; File c:\users\nightorius.phibian\source\repos\denveremu\denveremu\bus\bus.cpp
; File c:\users\nightorius.phibian\source\repos\denveremu\denveremu\cpu\cpu2a03_fast.cpp
; File c:\users\nightorius.phibian\source\repos\denveremu\denveremu\bus\bus.cpp
; File c:\users\nightorius.phibian\source\repos\denveremu\denveremu\cpu\cpu2a03_fast.cpp
; File c:\users\nightorius.phibian\source\repos\denveremu\denveremu\bus\bus.cpp
; File c:\users\nightorius.phibian\source\repos\denveremu\denveremu\cpu\cpu2a03_fast.cpp
; File c:\users\nightorius.phibian\source\repos\denveremu\denveremu\bus\bus.cpp
; File c:\users\nightorius.phibian\source\repos\denveremu\denveremu\cpu\cpu2a03_fast.cpp
; File c:\users\nightorius.phibian\source\repos\denveremu\denveremu\bus\bus.cpp
; File c:\users\nightorius.phibian\source\repos\denveremu\denveremu\cpu\cpu2a03_fast.cpp
; File c:\users\nightorius.phibian\source\repos\denveremu\denveremu\bus\bus.cpp
; File c:\users\nightorius.phibian\source\repos\denveremu\denveremu\cpu\cpu2a03_fast.cpp
; File c:\users\nightorius.phibian\source\repos\denveremu\denveremu\bus\bus.cpp
; File c:\users\nightorius.phibian\source\repos\denveremu\denveremu\cpu\cpu2a03_fast.cpp
; File c:\users\nightorius.phibian\source\repos\denveremu\denveremu\bus\bus.cpp
; File c:\users\nightorius.phibian\source\repos\denveremu\denveremu\cpu\cpu2a03_fast.cpp
; File c:\users\nightorius.phibian\source\repos\denveremu\denveremu\bus\bus.cpp
; File c:\users\nightorius.phibian\source\repos\denveremu\denveremu\cpu\cpu2a03_fast.cpp
; File c:\users\nightorius.phibian\source\repos\denveremu\denveremu\bus\bus.cpp
; File c:\users\nightorius.phibian\source\repos\denveremu\denveremu\cpu\cpu2a03_fast.cpp
; File c:\users\nightorius.phibian\source\repos\denveremu\denveremu\bus\bus.cpp
; File c:\users\nightorius.phibian\source\repos\denveremu\denveremu\cpu\cpu2a03_fast.cpp
; File c:\users\nightorius.phibian\source\repos\denveremu\denveremu\bus\bus.cpp
; File c:\users\nightorius.phibian\source\repos\denveremu\denveremu\cpu\cpu2a03_fast.cpp
; File c:\users\nightorius.phibian\source\repos\denveremu\denveremu\bus\bus.cpp
; File c:\users\nightorius.phibian\source\repos\denveremu\denveremu\cpu\cpu2a03_fast.cpp
; File c:\users\nightorius.phibian\source\repos\denveremu\denveremu\bus\bus.cpp
; File c:\users\nightorius.phibian\source\repos\denveremu\denveremu\cpu\cpu2a03_fast.cpp
; File c:\users\nightorius.phibian\source\repos\denveremu\denveremu\bus\bus.cpp
; File c:\users\nightorius.phibian\source\repos\denveremu\denveremu\cpu\cpu2a03_fast.cpp
; File c:\users\nightorius.phibian\source\repos\denveremu\denveremu\bus\bus.cpp
; File c:\users\nightorius.phibian\source\repos\denveremu\denveremu\cpu\cpu2a03_fast.cpp
; File c:\users\nightorius.phibian\source\repos\denveremu\denveremu\bus\bus.cpp
; File c:\users\nightorius.phibian\source\repos\denveremu\denveremu\cpu\cpu2a03_fast.cpp
; File c:\users\nightorius.phibian\source\repos\denveremu\denveremu\bus\bus.cpp
; File c:\users\nightorius.phibian\source\repos\denveremu\denveremu\cpu\cpu2a03_fast.cpp
; File c:\users\nightorius.phibian\source\repos\denveremu\denveremu\bus\bus.cpp
; File c:\users\nightorius.phibian\source\repos\denveremu\denveremu\cpu\cpu2a03_fast.cpp
; File c:\users\nightorius.phibian\source\repos\denveremu\denveremu\bus\bus.cpp
; File c:\users\nightorius.phibian\source\repos\denveremu\denveremu\cpu\cpu2a03_fast.cpp
; File c:\users\nightorius.phibian\source\repos\denveremu\denveremu\bus\bus.cpp
; File c:\users\nightorius.phibian\source\repos\denveremu\denveremu\cpu\cpu2a03_fast.cpp
; File c:\users\nightorius.phibian\source\repos\denveremu\denveremu\bus\bus.cpp
; File c:\users\nightorius.phibian\source\repos\denveremu\denveremu\cpu\cpu2a03_fast.cpp
; File c:\users\nightorius.phibian\source\repos\denveremu\denveremu\bus\bus.cpp
; File c:\users\nightorius.phibian\source\repos\denveremu\denveremu\cpu\cpu2a03_fast.cpp
; File c:\users\nightorius.phibian\source\repos\denveremu\denveremu\bus\bus.cpp
; File c:\users\nightorius.phibian\source\repos\denveremu\denveremu\cpu\cpu2a03_fast.cpp
; File c:\users\nightorius.phibian\source\repos\denveremu\denveremu\bus\bus.cpp
; File c:\users\nightorius.phibian\source\repos\denveremu\denveremu\cpu\cpu2a03_fast.cpp
; File c:\users\nightorius.phibian\source\repos\denveremu\denveremu\bus\bus.cpp
; File c:\users\nightorius.phibian\source\repos\denveremu\denveremu\cpu\cpu2a03_fast.cpp
; File c:\users\nightorius.phibian\source\repos\denveremu\denveremu\bus\bus.cpp
; File c:\users\nightorius.phibian\source\repos\denveremu\denveremu\cpu\cpu2a03_fast.cpp
;	COMDAT ?rundevice_internal@cpu2a03_fast@@AEAAHH@Z
_TEXT	SEGMENT
this$ = 48
tv11860 = 56
tv9153 = 56
ticks$dead$ = 56
tv6228 = 56
tv3971 = 56
tv3698 = 56
tv2552 = 56
?rundevice_internal@cpu2a03_fast@@AEAAHH@Z PROC		; cpu2a03_fast::rundevice_internal, COMDAT

; 68   : int	cpu2a03_fast::rundevice_internal (int ticks) {

$LN1865:
	mov	QWORD PTR [rsp+32], rsi
	push	rdi
	sub	rsp, 32					; 00000020H

; 69   : 	int	actualticks = 0;

	xor	edi, edi
	mov	rsi, rcx

; 70   : 	
; 71   : 	// check dma mode
; 72   : 	if (in_dma_mode) {

	cmp	BYTE PTR [rcx+36], dil
	je	SHORT $LN4@rundevice_

; 73   : 		if (dma_cycle == 1) {

	mov	eax, DWORD PTR [rcx+80]
	cmp	eax, 1
	jne	SHORT $LN5@rundevice_

; 74   : 			dma_cycle = 0;
; 75   : 			in_dma_mode = false;
; 76   : 			return tick_rate;

	mov	eax, DWORD PTR [rcx+16]
	mov	DWORD PTR [rcx+80], edi
	mov	BYTE PTR [rcx+36], dil

; 1602 : }

	mov	rsi, QWORD PTR [rsp+72]
	add	rsp, 32					; 00000020H
	pop	rdi
	ret	0
$LN5@rundevice_:

; 77   : 		}
; 78   : 		dma_cycle -= 2;

	add	eax, -2
	mov	DWORD PTR [rcx+80], eax

; 79   : 		if (dma_cycle == 0) in_dma_mode = false;

	jne	SHORT $LN6@rundevice_
	mov	BYTE PTR [rcx+36], dil
$LN6@rundevice_:

; 80   : 		return 2 * tick_rate;

	mov	eax, DWORD PTR [rcx+16]
	add	eax, eax

; 1602 : }

	mov	rsi, QWORD PTR [rsp+72]
	add	rsp, 32					; 00000020H
	pop	rdi
	ret	0
$LN4@rundevice_:

; 81   : 	}
; 82   : 
; 83   : 	// check nmi/irq.
; 84   : 	// NMI
; 85   : 	if (mbus->nmi_pulled()) {

	mov	rcx, QWORD PTR [rcx+88]
	mov	QWORD PTR [rsp+48], rbx
	call	?nmi_pulled@bus@@QEAA_NXZ		; bus::nmi_pulled
	test	al, al
	je	SHORT $LN7@rundevice_

; 86   : 		pushstack_word(regs.pc);

	movzx	ebx, WORD PTR [rsi+72]

; 42   : 	pushstack_byte((data & 0xFF00) >> 8);

	mov	rcx, rsi
	movzx	edx, bx
	shr	dx, 8
	call	?pushstack_byte@cpu2a03_fast@@QEAAXE@Z	; cpu2a03_fast::pushstack_byte

; 43   : 	pushstack_byte((data & 0x00FF));

	movzx	edx, bl
	mov	rcx, rsi
	call	?pushstack_byte@cpu2a03_fast@@QEAAXE@Z	; cpu2a03_fast::pushstack_byte

; 87   : 		pushstack_byte(regs.sr & ~0x10);

	movzx	edx, BYTE PTR [rsi+78]
	mov	rcx, rsi
	and	dl, 239					; 000000efH
	call	?pushstack_byte@cpu2a03_fast@@QEAAXE@Z	; cpu2a03_fast::pushstack_byte

; 88   : 		regs.sr |= cf_interrupt;
; 89   : 		regs.pc = mbus->readmemory_as_word(vector_nmi); // NMI vector.

	mov	edx, 65530				; 0000fffaH

; 90   : 		return 7 * tick_rate;	// NMI takes 7 cycles.

	jmp	SHORT $LN1829@rundevice_
$LN7@rundevice_:

; 91   : 	}
; 92   : 	// IRQ
; 93   : 	if ((mbus->irq_pulled()) && ((regs.sr & cf_interrupt) == 0)) {

	mov	rcx, QWORD PTR [rsi+88]
	call	?irq_pulled@bus@@QEAA_NXZ		; bus::irq_pulled
	test	al, al
	je	SHORT $LN1794@rundevice_
	test	BYTE PTR [rsi+78], 4
	jne	SHORT $LN1794@rundevice_

; 94   : 		pushstack_word(regs.pc);

	movzx	ebx, WORD PTR [rsi+72]

; 42   : 	pushstack_byte((data & 0xFF00) >> 8);

	mov	rcx, rsi
	movzx	edx, bx
	shr	dx, 8
	call	?pushstack_byte@cpu2a03_fast@@QEAAXE@Z	; cpu2a03_fast::pushstack_byte

; 43   : 	pushstack_byte((data & 0x00FF));

	movzx	edx, bl
	mov	rcx, rsi
	call	?pushstack_byte@cpu2a03_fast@@QEAAXE@Z	; cpu2a03_fast::pushstack_byte

; 95   : 		pushstack_byte(regs.sr & ~0x10);

	movzx	edx, BYTE PTR [rsi+78]
	mov	rcx, rsi
	and	dl, 239					; 000000efH
	call	?pushstack_byte@cpu2a03_fast@@QEAAXE@Z	; cpu2a03_fast::pushstack_byte

; 96   : 		regs.sr |= cf_interrupt;
; 97   : 		regs.pc = mbus->readmemory_as_word(vector_irq); // IRQ vector.

	mov	edx, 65534				; 0000fffeH
$LN1829@rundevice_:
	mov	rcx, QWORD PTR [rsi+88]
	or	BYTE PTR [rsi+78], 4
	call	?readmemory_as_word@bus@@QEAAGH@Z	; bus::readmemory_as_word
	mov	rbx, QWORD PTR [rsp+48]
	mov	WORD PTR [rsi+72], ax

; 98   : 		return 7 * tick_rate;	// IRQ takes 7 cycles.

	imul	eax, DWORD PTR [rsi+16], 7

; 1602 : }

	mov	rsi, QWORD PTR [rsp+72]
	add	rsp, 32					; 00000020H
	pop	rdi
	ret	0
$LN1794@rundevice_:

; 99   : 	}	
; 100  : 
; 101  : 	byte opcode = mbus->readmemory(regs.pc);

	mov	rcx, QWORD PTR [rsi+88]
	movzx	eax, WORD PTR [rsi+72]
	mov	QWORD PTR [rsp+64], rbp
; File c:\users\nightorius.phibian\source\repos\denveremu\denveremu\bus\bus.cpp

; 23   : 	address = addr;

	mov	DWORD PTR [rcx], eax

; 24   : 	return read();

	call	?read@bus@@QEAAEXZ			; bus::read
; File c:\users\nightorius.phibian\source\repos\denveremu\denveremu\cpu\cpu2a03_fast.cpp

; 102  : 	regs.pc++;

	movzx	ecx, WORD PTR [rsi+72]

; 103  : 	switch (opcode) {

	lea	rdx, OFFSET FLAT:__ImageBase
	inc	cx
	movzx	eax, al
	movzx	ebp, cx
	mov	WORD PTR [rsi+72], cx
	mov	eax, DWORD PTR $LN1795@rundevice_[rdx+rax*4]
	add	rax, rdx
	jmp	rax
$LN9@rundevice_:

; 106  : 			regs.pc++;

	inc	bp

; 42   : 	pushstack_byte((data & 0xFF00) >> 8);

	mov	rcx, rsi
	movzx	edx, bp

; 106  : 			regs.pc++;

	mov	WORD PTR [rsi+72], bp

; 42   : 	pushstack_byte((data & 0xFF00) >> 8);

	shr	dx, 8

; 104  : 		case 0x00: {	// BRK instruction
; 105  : 			actualticks += 7;

	mov	edi, 7

; 42   : 	pushstack_byte((data & 0xFF00) >> 8);

	call	?pushstack_byte@cpu2a03_fast@@QEAAXE@Z	; cpu2a03_fast::pushstack_byte

; 43   : 	pushstack_byte((data & 0x00FF));

	movzx	edx, bpl
	mov	rcx, rsi
	call	?pushstack_byte@cpu2a03_fast@@QEAAXE@Z	; cpu2a03_fast::pushstack_byte

; 107  : 			pushstack_word(regs.pc);
; 108  : 			pushstack_byte(regs.sr | cf_break | 0x20);

	movzx	edx, BYTE PTR [rsi+78]
	mov	rcx, rsi
	or	dl, 48					; 00000030H
	call	?pushstack_byte@cpu2a03_fast@@QEAAXE@Z	; cpu2a03_fast::pushstack_byte

; 109  : 			regs.sr |= cf_interrupt;
; 110  : 			regs.pc = mbus->readmemory_as_word(vector_irq);	// load brk vector in regs.pc

	mov	rcx, QWORD PTR [rsi+88]
	mov	edx, 65534				; 0000fffeH
	or	BYTE PTR [rsi+78], 4
	call	?readmemory_as_word@bus@@QEAAGH@Z	; bus::readmemory_as_word
	mov	WORD PTR [rsi+72], ax

; 111  : 			break;

	jmp	$LN2@rundevice_
$LN10@rundevice_:

; 114  : 			opc_ora(mbus->readmemory(_mem_index_x));

	mov	rcx, QWORD PTR [rsi+88]
	movzx	eax, bp
; File c:\users\nightorius.phibian\source\repos\denveremu\denveremu\bus\bus.cpp

; 23   : 	address = addr;

	mov	DWORD PTR [rcx], eax

; 24   : 	return read();

	call	?read@bus@@QEAAEXZ			; bus::read
; File c:\users\nightorius.phibian\source\repos\denveremu\denveremu\cpu\cpu2a03_fast.cpp

; 114  : 			opc_ora(mbus->readmemory(_mem_index_x));

	movzx	ecx, BYTE PTR [rsi+75]
	add	ecx, eax
	movzx	edx, cl
	mov	rcx, QWORD PTR [rsi+88]
	call	?readmemory_as_word_wrap@bus@@QEAAGH@Z	; bus::readmemory_as_word_wrap
	movzx	eax, ax
$LN1844@rundevice_:

; 1595 : 			opc_sbc(t);
; 1596 : 			regs.pc += 2;
; 1597 : 			actualticks += 7;
; 1598 : 			break;
; 1599 : 		}
; 1600 : 	}
; 1601 : 	return actualticks * tick_rate;

	mov	rcx, QWORD PTR [rsi+88]
	mov	DWORD PTR [rcx], eax
	call	?read@bus@@QEAAEXZ			; bus::read
	movzx	edx, al
	mov	rcx, rsi
	call	?opc_ora@cpu2a03_fast@@AEAAXE@Z		; cpu2a03_fast::opc_ora
	inc	WORD PTR [rsi+72]
	mov	edi, 6
	jmp	$LN2@rundevice_
$LN11@rundevice_:
	mov	BYTE PTR [rsi+96], 1
	jmp	$LN2@rundevice_
$LN12@rundevice_:

; 124  : 			opc_asl(_mem_index_x, true);

	mov	rcx, QWORD PTR [rsi+88]
	movzx	eax, bp
; File c:\users\nightorius.phibian\source\repos\denveremu\denveremu\bus\bus.cpp

; 23   : 	address = addr;

	mov	DWORD PTR [rcx], eax

; 24   : 	return read();

	call	?read@bus@@QEAAEXZ			; bus::read
; File c:\users\nightorius.phibian\source\repos\denveremu\denveremu\cpu\cpu2a03_fast.cpp

; 124  : 			opc_asl(_mem_index_x, true);

	movzx	ecx, al
	movzx	eax, BYTE PTR [rsi+75]
	add	ecx, eax
	movzx	edx, cl
	mov	rcx, QWORD PTR [rsi+88]
	call	?readmemory_as_word_wrap@bus@@QEAAGH@Z	; bus::readmemory_as_word_wrap
	movzx	edx, ax
	mov	r8b, 1
	mov	rcx, rsi
	call	?opc_asl@cpu2a03_fast@@AEAAXG_N@Z	; cpu2a03_fast::opc_asl

; 125  : 			opc_ora(mbus->readmemory(_mem_index_x));

	mov	rcx, QWORD PTR [rsi+88]
	movzx	eax, WORD PTR [rsi+72]
; File c:\users\nightorius.phibian\source\repos\denveremu\denveremu\bus\bus.cpp

; 23   : 	address = addr;

	mov	DWORD PTR [rcx], eax

; 24   : 	return read();

	call	?read@bus@@QEAAEXZ			; bus::read
; File c:\users\nightorius.phibian\source\repos\denveremu\denveremu\cpu\cpu2a03_fast.cpp

; 125  : 			opc_ora(mbus->readmemory(_mem_index_x));

	movzx	ecx, al
	movzx	eax, BYTE PTR [rsi+75]
	add	ecx, eax
	movzx	edx, cl
	mov	rcx, QWORD PTR [rsi+88]
	call	?readmemory_as_word_wrap@bus@@QEAAGH@Z	; bus::readmemory_as_word_wrap
$LN1812@rundevice_:

; 1595 : 			opc_sbc(t);
; 1596 : 			regs.pc += 2;
; 1597 : 			actualticks += 7;
; 1598 : 			break;
; 1599 : 		}
; 1600 : 	}
; 1601 : 	return actualticks * tick_rate;

	mov	rcx, QWORD PTR [rsi+88]
	movzx	eax, ax
	mov	DWORD PTR [rcx], eax
	call	?read@bus@@QEAAEXZ			; bus::read
	movzx	edx, al
	mov	rcx, rsi
	call	?opc_ora@cpu2a03_fast@@AEAAXE@Z		; cpu2a03_fast::opc_ora
	inc	WORD PTR [rsi+72]
	mov	edi, 8
	jmp	$LN2@rundevice_
$LN13@rundevice_:

; 126  : 			regs.pc++;
; 127  : 			actualticks += 8;
; 128  : 			break;
; 129  : 		}
; 130  : 		case 0x04: case 0x44: case 0x64: {
; 131  : 			regs.pc++;

	inc	bp

; 132  : 			actualticks += 3;

	mov	edi, 3
	mov	WORD PTR [rsi+72], bp

; 133  : 			break;

	jmp	$LN2@rundevice_
$LN14@rundevice_:

; 136  : 			opc_ora(mbus->readmemory(_mem_zero));

	mov	rcx, QWORD PTR [rsi+88]
	movzx	eax, bp
; File c:\users\nightorius.phibian\source\repos\denveremu\denveremu\bus\bus.cpp

; 23   : 	address = addr;

	mov	DWORD PTR [rcx], eax

; 24   : 	return read();

	call	?read@bus@@QEAAEXZ			; bus::read
; File c:\users\nightorius.phibian\source\repos\denveremu\denveremu\cpu\cpu2a03_fast.cpp

; 136  : 			opc_ora(mbus->readmemory(_mem_zero));

	mov	rcx, QWORD PTR [rsi+88]
	movzx	eax, al
; File c:\users\nightorius.phibian\source\repos\denveremu\denveremu\bus\bus.cpp

; 23   : 	address = addr;

	mov	DWORD PTR [rcx], eax

; 24   : 	return read();

	call	?read@bus@@QEAAEXZ			; bus::read
	movzx	edx, al
; File c:\users\nightorius.phibian\source\repos\denveremu\denveremu\cpu\cpu2a03_fast.cpp

; 136  : 			opc_ora(mbus->readmemory(_mem_zero));

	mov	rcx, rsi
	call	?opc_ora@cpu2a03_fast@@AEAAXE@Z		; cpu2a03_fast::opc_ora

; 137  : 			regs.pc++;

	inc	WORD PTR [rsi+72]

; 138  : 			actualticks += 3;

	mov	edi, 3

; 139  : 			break;

	jmp	$LN2@rundevice_
$LN15@rundevice_:

; 142  : 			opc_asl(_mem_zero, true);

	mov	rcx, QWORD PTR [rsi+88]
	movzx	eax, bp
; File c:\users\nightorius.phibian\source\repos\denveremu\denveremu\bus\bus.cpp

; 23   : 	address = addr;

	mov	DWORD PTR [rcx], eax

; 24   : 	return read();

	call	?read@bus@@QEAAEXZ			; bus::read
	movzx	edx, al
; File c:\users\nightorius.phibian\source\repos\denveremu\denveremu\cpu\cpu2a03_fast.cpp

; 142  : 			opc_asl(_mem_zero, true);

	mov	r8b, 1
	mov	rcx, rsi
	call	?opc_asl@cpu2a03_fast@@AEAAXG_N@Z	; cpu2a03_fast::opc_asl

; 143  : 			regs.pc++;

	inc	WORD PTR [rsi+72]

; 144  : 			actualticks += 5;

	mov	edi, 5

; 145  : 			break;

	jmp	$LN2@rundevice_
$LN16@rundevice_:

; 148  : 			opc_asl(_mem_zero, true);

	mov	rcx, QWORD PTR [rsi+88]
	movzx	eax, bp
; File c:\users\nightorius.phibian\source\repos\denveremu\denveremu\bus\bus.cpp

; 23   : 	address = addr;

	mov	DWORD PTR [rcx], eax

; 24   : 	return read();

	call	?read@bus@@QEAAEXZ			; bus::read
	movzx	edx, al
; File c:\users\nightorius.phibian\source\repos\denveremu\denveremu\cpu\cpu2a03_fast.cpp

; 148  : 			opc_asl(_mem_zero, true);

	mov	r8b, 1
	mov	rcx, rsi
	call	?opc_asl@cpu2a03_fast@@AEAAXG_N@Z	; cpu2a03_fast::opc_asl

; 149  : 			opc_ora(mbus->readmemory(_mem_zero));

	mov	rcx, QWORD PTR [rsi+88]
	movzx	eax, WORD PTR [rsi+72]
; File c:\users\nightorius.phibian\source\repos\denveremu\denveremu\bus\bus.cpp

; 23   : 	address = addr;

	mov	DWORD PTR [rcx], eax

; 24   : 	return read();

	call	?read@bus@@QEAAEXZ			; bus::read
; File c:\users\nightorius.phibian\source\repos\denveremu\denveremu\cpu\cpu2a03_fast.cpp

; 149  : 			opc_ora(mbus->readmemory(_mem_zero));

	mov	rcx, QWORD PTR [rsi+88]
	movzx	eax, al
; File c:\users\nightorius.phibian\source\repos\denveremu\denveremu\bus\bus.cpp

; 23   : 	address = addr;

	mov	DWORD PTR [rcx], eax

; 24   : 	return read();

	call	?read@bus@@QEAAEXZ			; bus::read
	movzx	edx, al
; File c:\users\nightorius.phibian\source\repos\denveremu\denveremu\cpu\cpu2a03_fast.cpp

; 149  : 			opc_ora(mbus->readmemory(_mem_zero));

	mov	rcx, rsi
	call	?opc_ora@cpu2a03_fast@@AEAAXE@Z		; cpu2a03_fast::opc_ora

; 150  : 			regs.pc++;

	inc	WORD PTR [rsi+72]

; 151  : 			actualticks += 5;

	mov	edi, 5

; 152  : 			break;

	jmp	$LN2@rundevice_
$LN17@rundevice_:

; 153  : 		}
; 154  : 		case 0x08: {	// PHP
; 155  : 			actualticks += 3;
; 156  : 			pushstack_byte(regs.sr | 0x30);

	movzx	edx, BYTE PTR [rsi+78]
	mov	rcx, rsi
	or	dl, 48					; 00000030H
	mov	edi, 3
	call	?pushstack_byte@cpu2a03_fast@@QEAAXE@Z	; cpu2a03_fast::pushstack_byte

; 157  : 			break;

	jmp	$LN2@rundevice_
$LN18@rundevice_:

; 160  : 			opc_ora(mbus->readmemory(_mem_immediate));

	mov	rcx, QWORD PTR [rsi+88]
	movzx	eax, bp
; File c:\users\nightorius.phibian\source\repos\denveremu\denveremu\bus\bus.cpp

; 23   : 	address = addr;

	mov	DWORD PTR [rcx], eax

; 24   : 	return read();

	call	?read@bus@@QEAAEXZ			; bus::read
	movzx	edx, al
; File c:\users\nightorius.phibian\source\repos\denveremu\denveremu\cpu\cpu2a03_fast.cpp

; 160  : 			opc_ora(mbus->readmemory(_mem_immediate));

	mov	rcx, rsi
	call	?opc_ora@cpu2a03_fast@@AEAAXE@Z		; cpu2a03_fast::opc_ora

; 161  : 			regs.pc++;

	inc	WORD PTR [rsi+72]
$LN269@rundevice_:

; 1595 : 			opc_sbc(t);
; 1596 : 			regs.pc += 2;
; 1597 : 			actualticks += 7;
; 1598 : 			break;
; 1599 : 		}
; 1600 : 	}
; 1601 : 	return actualticks * tick_rate;

	mov	edi, 2
	jmp	$LN2@rundevice_
$LN19@rundevice_:

; 162  : 			actualticks += 2;
; 163  : 			break;
; 164  : 		}
; 165  : 		case 0x0a: {
; 166  : 			opc_asl(0, false);

	xor	edx, edx
	xor	r8d, r8d
	mov	rcx, rsi
	call	?opc_asl@cpu2a03_fast@@AEAAXG_N@Z	; cpu2a03_fast::opc_asl

; 167  : 			actualticks += 2;

	mov	edi, 2

; 168  : 			break;

	jmp	$LN2@rundevice_
$LN20@rundevice_:

; 171  : 			opc_and(mbus->readmemory(_mem_immediate));

	mov	rcx, QWORD PTR [rsi+88]
	movzx	eax, bp
; File c:\users\nightorius.phibian\source\repos\denveremu\denveremu\bus\bus.cpp

; 23   : 	address = addr;

	mov	DWORD PTR [rcx], eax

; 24   : 	return read();

	call	?read@bus@@QEAAEXZ			; bus::read
	movzx	edx, al
; File c:\users\nightorius.phibian\source\repos\denveremu\denveremu\cpu\cpu2a03_fast.cpp

; 171  : 			opc_and(mbus->readmemory(_mem_immediate));

	mov	rcx, rsi
	call	?opc_and@cpu2a03_fast@@AEAAXE@Z		; cpu2a03_fast::opc_and

; 172  : 			regs.pc++;
; 173  : 			regs.sr = regs.sr & cf_negative ? regs.sr | cf_carry : regs.sr & (0xFF - cf_carry);

	movzx	eax, BYTE PTR [rsi+78]
	inc	WORD PTR [rsi+72]
	test	al, al
	jns	SHORT $LN295@rundevice_
	or	eax, 1

; 174  : 			actualticks += 2;

	mov	edi, 2
	mov	BYTE PTR [rsi+78], al

; 175  : 			break;

	jmp	$LN2@rundevice_
$LN295@rundevice_:

; 172  : 			regs.pc++;
; 173  : 			regs.sr = regs.sr & cf_negative ? regs.sr | cf_carry : regs.sr & (0xFF - cf_carry);

	and	eax, 254				; 000000feH

; 174  : 			actualticks += 2;

	mov	edi, 2
	mov	BYTE PTR [rsi+78], al

; 175  : 			break;

	jmp	$LN2@rundevice_
$LN21@rundevice_:

; 176  : 		}
; 177  : 		case 0x0c: case 0x1c: case 0x3c: case 0x5c: case 0x7c: case 0xdc: case 0xfc: {
; 178  : 			regs.pc += 2;

	add	bp, 2

; 179  : 			actualticks += 4;

	mov	edi, 4
	mov	WORD PTR [rsi+72], bp

; 180  : 			break;

	jmp	$LN2@rundevice_
$LN22@rundevice_:

; 183  : 			opc_ora(mbus->readmemory(_mem_absolute));

	mov	rcx, QWORD PTR [rsi+88]
	movzx	edx, bp
	call	?readmemory_as_word@bus@@QEAAGH@Z	; bus::readmemory_as_word
	mov	rcx, QWORD PTR [rsi+88]
	movzx	eax, ax
; File c:\users\nightorius.phibian\source\repos\denveremu\denveremu\bus\bus.cpp

; 23   : 	address = addr;

	mov	DWORD PTR [rcx], eax

; 24   : 	return read();

	call	?read@bus@@QEAAEXZ			; bus::read
	movzx	edx, al
; File c:\users\nightorius.phibian\source\repos\denveremu\denveremu\cpu\cpu2a03_fast.cpp

; 183  : 			opc_ora(mbus->readmemory(_mem_absolute));

	mov	rcx, rsi
	call	?opc_ora@cpu2a03_fast@@AEAAXE@Z		; cpu2a03_fast::opc_ora

; 184  : 			regs.pc += 2;
; 185  : 			actualticks += 4;

	mov	edi, 4

; 186  : 			break;

	jmp	$LN1797@rundevice_
$LN23@rundevice_:

; 187  : 		}
; 188  : 		case 0x0e: {
; 189  : 			opc_asl(_mem_absolute, true);

	mov	rcx, QWORD PTR [rsi+88]
	movzx	edx, bp
	call	?readmemory_as_word@bus@@QEAAGH@Z	; bus::readmemory_as_word
	movzx	edx, ax
	mov	r8b, 1
	mov	rcx, rsi
	call	?opc_asl@cpu2a03_fast@@AEAAXG_N@Z	; cpu2a03_fast::opc_asl

; 190  : 			regs.pc += 2;
; 191  : 			actualticks += 6;

	mov	edi, 6

; 192  : 			break;

	jmp	$LN1797@rundevice_
$LN24@rundevice_:

; 193  : 		}
; 194  : 		case 0x0f: {
; 195  : 			opc_asl(_mem_absolute, true);

	mov	rcx, QWORD PTR [rsi+88]
	movzx	edx, bp
	call	?readmemory_as_word@bus@@QEAAGH@Z	; bus::readmemory_as_word
	movzx	edx, ax
	mov	r8b, 1
	mov	rcx, rsi
	call	?opc_asl@cpu2a03_fast@@AEAAXG_N@Z	; cpu2a03_fast::opc_asl

; 196  : 			opc_ora(mbus->readmemory(_mem_absolute));

	movzx	edx, WORD PTR [rsi+72]
	mov	rcx, QWORD PTR [rsi+88]
	call	?readmemory_as_word@bus@@QEAAGH@Z	; bus::readmemory_as_word
	mov	rcx, QWORD PTR [rsi+88]
	movzx	eax, ax
; File c:\users\nightorius.phibian\source\repos\denveremu\denveremu\bus\bus.cpp

; 23   : 	address = addr;

	mov	DWORD PTR [rcx], eax

; 24   : 	return read();

	call	?read@bus@@QEAAEXZ			; bus::read
	movzx	edx, al
; File c:\users\nightorius.phibian\source\repos\denveremu\denveremu\cpu\cpu2a03_fast.cpp

; 196  : 			opc_ora(mbus->readmemory(_mem_absolute));

	mov	rcx, rsi
	call	?opc_ora@cpu2a03_fast@@AEAAXE@Z		; cpu2a03_fast::opc_ora

; 197  : 			regs.pc += 2;
; 198  : 			actualticks += 6;

	mov	edi, 6

; 199  : 			break;

	jmp	$LN1797@rundevice_
$LN25@rundevice_:

; 200  : 		}
; 201  : 		case 0x10: {
; 202  : 			actualticks += 2;
; 203  : 			if (!(regs.sr & cf_negative)) {

	cmp	BYTE PTR [rsi+78], 0
	mov	edi, 2
	jl	$LN26@rundevice_

; 205  : 				if ((_mem_relative & 0xFF00) != (regs.pc & 0xFF00)) actualticks++;	// boundary tick

	mov	rcx, QWORD PTR [rsi+88]
	movzx	eax, bp
; File c:\users\nightorius.phibian\source\repos\denveremu\denveremu\bus\bus.cpp

; 23   : 	address = addr;

	mov	DWORD PTR [rcx], eax

; 24   : 	return read();

	call	?read@bus@@QEAAEXZ			; bus::read
; File c:\users\nightorius.phibian\source\repos\denveremu\denveremu\cpu\cpu2a03_fast.cpp

; 205  : 				if ((_mem_relative & 0xFF00) != (regs.pc & 0xFF00)) actualticks++;	// boundary tick

	mov	rcx, QWORD PTR [rsi+88]
	and	al, 128					; 00000080H
	movzx	eax, WORD PTR [rsi+72]
	mov	ebp, 65280				; 0000ff00H
	mov	DWORD PTR [rcx], eax
	jne	SHORT $LN297@rundevice_
; File c:\users\nightorius.phibian\source\repos\denveremu\denveremu\bus\bus.cpp

; 24   : 	return read();

	call	?read@bus@@QEAAEXZ			; bus::read
; File c:\users\nightorius.phibian\source\repos\denveremu\denveremu\cpu\cpu2a03_fast.cpp

; 205  : 				if ((_mem_relative & 0xFF00) != (regs.pc & 0xFF00)) actualticks++;	// boundary tick

	movzx	edx, WORD PTR [rsi+72]
	movzx	ecx, al
	lea	r8d, DWORD PTR [rdx+1]
	add	r8d, ecx
	jmp	SHORT $LN298@rundevice_
$LN297@rundevice_:
; File c:\users\nightorius.phibian\source\repos\denveremu\denveremu\bus\bus.cpp

; 24   : 	return read();

	call	?read@bus@@QEAAEXZ			; bus::read
; File c:\users\nightorius.phibian\source\repos\denveremu\denveremu\cpu\cpu2a03_fast.cpp

; 205  : 				if ((_mem_relative & 0xFF00) != (regs.pc & 0xFF00)) actualticks++;	// boundary tick

	movzx	ecx, WORD PTR [rsi+72]
	mov	edx, -1
; File c:\users\nightorius.phibian\source\repos\denveremu\denveremu\bus\bus.cpp

; 24   : 	return read();

	movzx	eax, al
; File c:\users\nightorius.phibian\source\repos\denveremu\denveremu\cpu\cpu2a03_fast.cpp

; 205  : 				if ((_mem_relative & 0xFF00) != (regs.pc & 0xFF00)) actualticks++;	// boundary tick

	mov	r8d, ecx
	sub	edx, eax
	and	edx, 127				; 0000007fH
	sub	r8d, edx
	movzx	edx, cx
	and	r8d, ebp
$LN298@rundevice_:
	movzx	eax, dx

; 206  : 				regs.pc = _mem_relative;

	xor	edi, edi
	and	eax, ebp
	cmp	r8d, eax
$LN1840@rundevice_:

; 1595 : 			opc_sbc(t);
; 1596 : 			regs.pc += 2;
; 1597 : 			actualticks += 7;
; 1598 : 			break;
; 1599 : 		}
; 1600 : 	}
; 1601 : 	return actualticks * tick_rate;

	movzx	eax, dx
$LN1846@rundevice_:
	mov	rcx, QWORD PTR [rsi+88]
	setne	dil
	add	edi, 3
	mov	DWORD PTR [rcx], eax
	call	?read@bus@@QEAAEXZ			; bus::read
	mov	rcx, QWORD PTR [rsi+88]
	and	al, 128					; 00000080H
	movzx	eax, WORD PTR [rsi+72]
	mov	DWORD PTR [rcx], eax
	jne	SHORT $LN299@rundevice_
	call	?read@bus@@QEAAEXZ			; bus::read
	movzx	ebp, al
	inc	bp
	add	bp, WORD PTR [rsi+72]
	mov	WORD PTR [rsi+72], bp
	jmp	$LN2@rundevice_
$LN299@rundevice_:
	call	?read@bus@@QEAAEXZ			; bus::read
	movzx	ebp, WORD PTR [rsi+72]
	mov	ecx, 65535				; 0000ffffH
	movzx	eax, al
	sub	cx, ax
	and	cx, 127					; 0000007fH
	sub	bp, cx
	mov	WORD PTR [rsi+72], bp
	jmp	$LN2@rundevice_
$LN26@rundevice_:
	inc	bp
	mov	WORD PTR [rsi+72], bp
	jmp	$LN2@rundevice_
$LN29@rundevice_:

; 214  : 			opc_ora(mbus->readmemory(_mem_index_y));

	mov	rcx, QWORD PTR [rsi+88]
	movzx	eax, bp
; File c:\users\nightorius.phibian\source\repos\denveremu\denveremu\bus\bus.cpp

; 23   : 	address = addr;

	mov	DWORD PTR [rcx], eax

; 24   : 	return read();

	call	?read@bus@@QEAAEXZ			; bus::read
; File c:\users\nightorius.phibian\source\repos\denveremu\denveremu\cpu\cpu2a03_fast.cpp

; 214  : 			opc_ora(mbus->readmemory(_mem_index_y));

	mov	rcx, QWORD PTR [rsi+88]
	movzx	edx, al
	call	?readmemory_as_word_wrap@bus@@QEAAGH@Z	; bus::readmemory_as_word_wrap
	movzx	ecx, BYTE PTR [rsi+76]
	add	ax, cx
	mov	rcx, QWORD PTR [rsi+88]
	movzx	eax, ax
; File c:\users\nightorius.phibian\source\repos\denveremu\denveremu\bus\bus.cpp

; 23   : 	address = addr;

	mov	DWORD PTR [rcx], eax

; 24   : 	return read();

	call	?read@bus@@QEAAEXZ			; bus::read
	movzx	edx, al
; File c:\users\nightorius.phibian\source\repos\denveremu\denveremu\cpu\cpu2a03_fast.cpp

; 214  : 			opc_ora(mbus->readmemory(_mem_index_y));

	mov	rcx, rsi
	call	?opc_ora@cpu2a03_fast@@AEAAXE@Z		; cpu2a03_fast::opc_ora
$LN1814@rundevice_:

; 1595 : 			opc_sbc(t);
; 1596 : 			regs.pc += 2;
; 1597 : 			actualticks += 7;
; 1598 : 			break;
; 1599 : 		}
; 1600 : 	}
; 1601 : 	return actualticks * tick_rate;

	inc	WORD PTR [rsi+72]
	mov	rcx, QWORD PTR [rsi+88]
	movzx	eax, WORD PTR [rsi+72]
	mov	DWORD PTR [rcx], eax
	call	?read@bus@@QEAAEXZ			; bus::read
	mov	rcx, QWORD PTR [rsi+88]
	movzx	edx, WORD PTR [rsi+72]
	movzx	edi, al
	mov	DWORD PTR [rcx], edx
	call	?read@bus@@QEAAEXZ			; bus::read
	mov	rcx, QWORD PTR [rsi+88]
	movzx	edx, al
	call	?readmemory_as_word_wrap@bus@@QEAAGH@Z	; bus::readmemory_as_word_wrap
	movzx	ebx, BYTE PTR [rsi+76]
	mov	ebp, 65280				; 0000ff00H
	movzx	ecx, ax
	mov	edx, edi
	add	ebx, ecx
	mov	rcx, QWORD PTR [rsi+88]
	and	ebx, ebp
	call	?readmemory_as_word_wrap@bus@@QEAAGH@Z	; bus::readmemory_as_word_wrap
	xor	edi, edi
	and	eax, ebp
	cmp	eax, ebx
	setne	dil
	add	edi, 5
	jmp	$LN2@rundevice_
$LN32@rundevice_:

; 225  : 			opc_asl(_mem_index_y, true);

	mov	rcx, QWORD PTR [rsi+88]
	movzx	eax, bp
; File c:\users\nightorius.phibian\source\repos\denveremu\denveremu\bus\bus.cpp

; 23   : 	address = addr;

	mov	DWORD PTR [rcx], eax

; 24   : 	return read();

	call	?read@bus@@QEAAEXZ			; bus::read
; File c:\users\nightorius.phibian\source\repos\denveremu\denveremu\cpu\cpu2a03_fast.cpp

; 225  : 			opc_asl(_mem_index_y, true);

	mov	rcx, QWORD PTR [rsi+88]
	movzx	edx, al
	call	?readmemory_as_word_wrap@bus@@QEAAGH@Z	; bus::readmemory_as_word_wrap
	movzx	edx, BYTE PTR [rsi+76]
	mov	r8b, 1
	add	dx, ax
	mov	rcx, rsi
	call	?opc_asl@cpu2a03_fast@@AEAAXG_N@Z	; cpu2a03_fast::opc_asl

; 226  : 			opc_ora(mbus->readmemory(_mem_index_y));

	mov	rcx, QWORD PTR [rsi+88]
	movzx	eax, WORD PTR [rsi+72]
; File c:\users\nightorius.phibian\source\repos\denveremu\denveremu\bus\bus.cpp

; 23   : 	address = addr;

	mov	DWORD PTR [rcx], eax

; 24   : 	return read();

	call	?read@bus@@QEAAEXZ			; bus::read
; File c:\users\nightorius.phibian\source\repos\denveremu\denveremu\cpu\cpu2a03_fast.cpp

; 226  : 			opc_ora(mbus->readmemory(_mem_index_y));

	mov	rcx, QWORD PTR [rsi+88]
	movzx	edx, al
	call	?readmemory_as_word_wrap@bus@@QEAAGH@Z	; bus::readmemory_as_word_wrap
	movzx	ecx, BYTE PTR [rsi+76]
	add	ax, cx

; 227  : 			regs.pc++;
; 228  : 			actualticks += 8;
; 229  : 			break;			

	jmp	$LN1812@rundevice_
$LN33@rundevice_:

; 230  : 		}
; 231  : 		case 0x14: case 0x34: case 0x54: case 0x74: case 0xd4: case 0xf4: {
; 232  : 			regs.pc++;

	inc	bp

; 233  : 			actualticks += 4;

	mov	edi, 4
	mov	WORD PTR [rsi+72], bp

; 234  : 			break;

	jmp	$LN2@rundevice_
$LN34@rundevice_:

; 237  : 			opc_ora(mbus->readmemory(_mem_zero_x));

	mov	rcx, QWORD PTR [rsi+88]
	movzx	eax, bp
; File c:\users\nightorius.phibian\source\repos\denveremu\denveremu\bus\bus.cpp

; 23   : 	address = addr;

	mov	DWORD PTR [rcx], eax

; 24   : 	return read();

	call	?read@bus@@QEAAEXZ			; bus::read
; File c:\users\nightorius.phibian\source\repos\denveremu\denveremu\cpu\cpu2a03_fast.cpp

; 237  : 			opc_ora(mbus->readmemory(_mem_zero_x));

	movzx	edx, BYTE PTR [rsi+75]
	mov	rcx, QWORD PTR [rsi+88]
	add	edx, eax
	movzx	eax, dl
; File c:\users\nightorius.phibian\source\repos\denveremu\denveremu\bus\bus.cpp

; 23   : 	address = addr;

	mov	DWORD PTR [rcx], eax

; 24   : 	return read();

	call	?read@bus@@QEAAEXZ			; bus::read
	movzx	edx, al
; File c:\users\nightorius.phibian\source\repos\denveremu\denveremu\cpu\cpu2a03_fast.cpp

; 237  : 			opc_ora(mbus->readmemory(_mem_zero_x));

	mov	rcx, rsi
	call	?opc_ora@cpu2a03_fast@@AEAAXE@Z		; cpu2a03_fast::opc_ora

; 238  : 			regs.pc++;

	inc	WORD PTR [rsi+72]

; 239  : 			actualticks += 4;

	mov	edi, 4

; 240  : 			break;

	jmp	$LN2@rundevice_
$LN35@rundevice_:

; 243  : 			opc_asl(_mem_zero_x, true);

	mov	rcx, QWORD PTR [rsi+88]
	movzx	eax, bp
; File c:\users\nightorius.phibian\source\repos\denveremu\denveremu\bus\bus.cpp

; 23   : 	address = addr;

	mov	DWORD PTR [rcx], eax

; 24   : 	return read();

	call	?read@bus@@QEAAEXZ			; bus::read
; File c:\users\nightorius.phibian\source\repos\denveremu\denveremu\cpu\cpu2a03_fast.cpp

; 243  : 			opc_asl(_mem_zero_x, true);

	movzx	edx, BYTE PTR [rsi+75]
	mov	r8b, 1
	movzx	eax, al
	mov	rcx, rsi
	add	dx, ax
	mov	eax, 255				; 000000ffH
	and	dx, ax
	call	?opc_asl@cpu2a03_fast@@AEAAXG_N@Z	; cpu2a03_fast::opc_asl

; 244  : 			regs.pc++;

	inc	WORD PTR [rsi+72]

; 245  : 			actualticks += 6;

	mov	edi, 6

; 246  : 			break;

	jmp	$LN2@rundevice_
$LN36@rundevice_:

; 249  : 			opc_asl(_mem_zero_x, true);

	mov	rcx, QWORD PTR [rsi+88]
	movzx	eax, bp
; File c:\users\nightorius.phibian\source\repos\denveremu\denveremu\bus\bus.cpp

; 23   : 	address = addr;

	mov	DWORD PTR [rcx], eax

; 24   : 	return read();

	call	?read@bus@@QEAAEXZ			; bus::read
; File c:\users\nightorius.phibian\source\repos\denveremu\denveremu\cpu\cpu2a03_fast.cpp

; 249  : 			opc_asl(_mem_zero_x, true);

	movzx	edx, al
	mov	r8b, 1
	movzx	eax, BYTE PTR [rsi+75]
	mov	rcx, rsi
	add	dx, ax
	mov	eax, 255				; 000000ffH
	and	dx, ax
	call	?opc_asl@cpu2a03_fast@@AEAAXG_N@Z	; cpu2a03_fast::opc_asl

; 250  : 			opc_ora(mbus->readmemory(_mem_zero_x));

	mov	rcx, QWORD PTR [rsi+88]
	movzx	eax, WORD PTR [rsi+72]
; File c:\users\nightorius.phibian\source\repos\denveremu\denveremu\bus\bus.cpp

; 23   : 	address = addr;

	mov	DWORD PTR [rcx], eax

; 24   : 	return read();

	call	?read@bus@@QEAAEXZ			; bus::read
; File c:\users\nightorius.phibian\source\repos\denveremu\denveremu\cpu\cpu2a03_fast.cpp

; 250  : 			opc_ora(mbus->readmemory(_mem_zero_x));

	movzx	edx, al
	movzx	eax, BYTE PTR [rsi+75]
	add	edx, eax
	movzx	eax, dl

; 251  : 			regs.pc++;
; 252  : 			actualticks += 6;
; 253  : 			break;

	jmp	$LN1844@rundevice_
$LN37@rundevice_:

; 254  : 		}
; 255  : 		case 0x18: {	//clc
; 256  : 			actualticks += 2;
; 257  : 			regs.sr &= 0xFF - cf_carry;

	and	BYTE PTR [rsi+78], 254			; 000000feH
	mov	edi, 2

; 258  : 			break;

	jmp	$LN2@rundevice_
$LN38@rundevice_:

; 261  : 			opc_ora(mbus->readmemory(_mem_absolute_y));

	mov	rcx, QWORD PTR [rsi+88]
	movzx	edx, bp
	call	?readmemory_as_word@bus@@QEAAGH@Z	; bus::readmemory_as_word
	movzx	ecx, BYTE PTR [rsi+76]
	add	ax, cx
	mov	rcx, QWORD PTR [rsi+88]
	movzx	eax, ax
; File c:\users\nightorius.phibian\source\repos\denveremu\denveremu\bus\bus.cpp

; 23   : 	address = addr;

	mov	DWORD PTR [rcx], eax

; 24   : 	return read();

	call	?read@bus@@QEAAEXZ			; bus::read
	movzx	edx, al
; File c:\users\nightorius.phibian\source\repos\denveremu\denveremu\cpu\cpu2a03_fast.cpp

; 261  : 			opc_ora(mbus->readmemory(_mem_absolute_y));

	mov	rcx, rsi
	call	?opc_ora@cpu2a03_fast@@AEAAXE@Z		; cpu2a03_fast::opc_ora
$LN1817@rundevice_:

; 1595 : 			opc_sbc(t);
; 1596 : 			regs.pc += 2;
; 1597 : 			actualticks += 7;
; 1598 : 			break;
; 1599 : 		}
; 1600 : 	}
; 1601 : 	return actualticks * tick_rate;

	add	WORD PTR [rsi+72], 2
	movzx	edx, WORD PTR [rsi+72]
	mov	rcx, QWORD PTR [rsi+88]
	call	?readmemory_as_word@bus@@QEAAGH@Z	; bus::readmemory_as_word
	movzx	ebx, BYTE PTR [rsi+76]
$LN1816@rundevice_:
	movzx	edx, WORD PTR [rsi+72]
	add	ebx, eax
	mov	rcx, QWORD PTR [rsi+88]
	mov	ebp, 65280				; 0000ff00H
	and	bx, bp
	call	?readmemory_as_word@bus@@QEAAGH@Z	; bus::readmemory_as_word
	and	ax, bp
	cmp	ax, bx
	setne	dil
	add	edi, 4
	jmp	$LN2@rundevice_
$LN41@rundevice_:

; 262  : 			regs.pc += 2;
; 263  : 			actualticks += 4;
; 264  : 			if ((_mem_absolute & 0xFF00) != (_mem_absolute_y & 0xFF00)) actualticks++;
; 265  : 			break;
; 266  : 		}
; 267  : 		case 0x1a: {
; 268  : 			error_state = true;
; 269  : 			break;
; 270  : 		}
; 271  : 		case 0x1b: {
; 272  : 			opc_asl(_mem_absolute_y, true);

	mov	rcx, QWORD PTR [rsi+88]
	movzx	edx, bp
	call	?readmemory_as_word@bus@@QEAAGH@Z	; bus::readmemory_as_word
	movzx	edx, BYTE PTR [rsi+76]
	mov	r8b, 1
	add	dx, ax
	mov	rcx, rsi
	call	?opc_asl@cpu2a03_fast@@AEAAXG_N@Z	; cpu2a03_fast::opc_asl

; 273  : 			opc_ora(mbus->readmemory(_mem_absolute_y));

	movzx	edx, WORD PTR [rsi+72]
	mov	rcx, QWORD PTR [rsi+88]
	call	?readmemory_as_word@bus@@QEAAGH@Z	; bus::readmemory_as_word
	movzx	ecx, BYTE PTR [rsi+76]
$LN1800@rundevice_:

; 1595 : 			opc_sbc(t);
; 1596 : 			regs.pc += 2;
; 1597 : 			actualticks += 7;
; 1598 : 			break;
; 1599 : 		}
; 1600 : 	}
; 1601 : 	return actualticks * tick_rate;

	add	ax, cx
	mov	rcx, QWORD PTR [rsi+88]
	movzx	eax, ax
	mov	DWORD PTR [rcx], eax
	call	?read@bus@@QEAAEXZ			; bus::read
	movzx	edx, al
	mov	rcx, rsi
	call	?opc_ora@cpu2a03_fast@@AEAAXE@Z		; cpu2a03_fast::opc_ora
	jmp	$LN1798@rundevice_
$LN42@rundevice_:

; 279  : 			opc_ora(mbus->readmemory(_mem_absolute_x));

	mov	rcx, QWORD PTR [rsi+88]
	movzx	edx, bp
	call	?readmemory_as_word@bus@@QEAAGH@Z	; bus::readmemory_as_word
	movzx	ecx, BYTE PTR [rsi+75]
	add	ax, cx
	mov	rcx, QWORD PTR [rsi+88]
	movzx	eax, ax
; File c:\users\nightorius.phibian\source\repos\denveremu\denveremu\bus\bus.cpp

; 23   : 	address = addr;

	mov	DWORD PTR [rcx], eax

; 24   : 	return read();

	call	?read@bus@@QEAAEXZ			; bus::read
	movzx	edx, al
; File c:\users\nightorius.phibian\source\repos\denveremu\denveremu\cpu\cpu2a03_fast.cpp

; 279  : 			opc_ora(mbus->readmemory(_mem_absolute_x));

	mov	rcx, rsi
	call	?opc_ora@cpu2a03_fast@@AEAAXE@Z		; cpu2a03_fast::opc_ora
$LN1845@rundevice_:

; 1595 : 			opc_sbc(t);
; 1596 : 			regs.pc += 2;
; 1597 : 			actualticks += 7;
; 1598 : 			break;
; 1599 : 		}
; 1600 : 	}
; 1601 : 	return actualticks * tick_rate;

	add	WORD PTR [rsi+72], 2
	movzx	edx, WORD PTR [rsi+72]
	mov	rcx, QWORD PTR [rsi+88]
	call	?readmemory_as_word@bus@@QEAAGH@Z	; bus::readmemory_as_word
	movzx	ebx, BYTE PTR [rsi+75]
	jmp	$LN1816@rundevice_
$LN44@rundevice_:

; 280  : 			regs.pc += 2;
; 281  : 			actualticks += 4;
; 282  : 			if ((_mem_absolute & 0xFF00) != (_mem_absolute_x & 0xFF00)) actualticks++;
; 283  : 			break;
; 284  : 		}
; 285  : 		case 0x1e: {
; 286  : 			opc_asl(_mem_absolute_x, true);

	mov	rcx, QWORD PTR [rsi+88]
	movzx	edx, bp
	call	?readmemory_as_word@bus@@QEAAGH@Z	; bus::readmemory_as_word
	movzx	edx, BYTE PTR [rsi+75]
	mov	r8b, 1
	add	dx, ax
	mov	rcx, rsi
	call	?opc_asl@cpu2a03_fast@@AEAAXG_N@Z	; cpu2a03_fast::opc_asl

; 287  : 			regs.pc += 2;
; 288  : 			actualticks += 7;
; 289  : 			break;

	jmp	$LN1798@rundevice_
$LN45@rundevice_:

; 290  : 		}
; 291  : 		case 0x1f: {
; 292  : 			opc_asl(_mem_absolute_x, true);

	mov	rcx, QWORD PTR [rsi+88]
	movzx	edx, bp
	call	?readmemory_as_word@bus@@QEAAGH@Z	; bus::readmemory_as_word
	movzx	edx, BYTE PTR [rsi+75]
	mov	r8b, 1
	add	dx, ax
	mov	rcx, rsi
	call	?opc_asl@cpu2a03_fast@@AEAAXG_N@Z	; cpu2a03_fast::opc_asl

; 293  : 			opc_ora(mbus->readmemory(_mem_absolute_x));

	movzx	edx, WORD PTR [rsi+72]
	mov	rcx, QWORD PTR [rsi+88]
	call	?readmemory_as_word@bus@@QEAAGH@Z	; bus::readmemory_as_word
	movzx	ecx, BYTE PTR [rsi+75]

; 294  : 			regs.pc += 2;
; 295  : 			actualticks += 7;
; 296  : 			break;

	jmp	$LN1800@rundevice_
$LN46@rundevice_:

; 297  : 		}
; 298  : 		case 0x20: { // jsr
; 299  : 			pushstack_word(regs.pc + 1);

	inc	bp

; 42   : 	pushstack_byte((data & 0xFF00) >> 8);

	mov	rcx, rsi
	movzx	edx, bp
	shr	dx, 8
	call	?pushstack_byte@cpu2a03_fast@@QEAAXE@Z	; cpu2a03_fast::pushstack_byte

; 43   : 	pushstack_byte((data & 0x00FF));

	movzx	edx, bpl
	mov	rcx, rsi
	call	?pushstack_byte@cpu2a03_fast@@QEAAXE@Z	; cpu2a03_fast::pushstack_byte

; 300  : 			regs.pc = _mem_absolute;

	movzx	edx, WORD PTR [rsi+72]
	mov	rcx, QWORD PTR [rsi+88]
	call	?readmemory_as_word@bus@@QEAAGH@Z	; bus::readmemory_as_word
	mov	WORD PTR [rsi+72], ax

; 1595 : 			opc_sbc(t);
; 1596 : 			regs.pc += 2;
; 1597 : 			actualticks += 7;
; 1598 : 			break;
; 1599 : 		}
; 1600 : 	}
; 1601 : 	return actualticks * tick_rate;

	mov	edi, 6
	jmp	$LN2@rundevice_
$LN47@rundevice_:

; 305  : 			opc_and(mbus->readmemory(_mem_index_x));

	mov	rcx, QWORD PTR [rsi+88]
	movzx	eax, bp
; File c:\users\nightorius.phibian\source\repos\denveremu\denveremu\bus\bus.cpp

; 23   : 	address = addr;

	mov	DWORD PTR [rcx], eax

; 24   : 	return read();

	call	?read@bus@@QEAAEXZ			; bus::read
; File c:\users\nightorius.phibian\source\repos\denveremu\denveremu\cpu\cpu2a03_fast.cpp

; 305  : 			opc_and(mbus->readmemory(_mem_index_x));

	movzx	ecx, BYTE PTR [rsi+75]
	add	ecx, eax
	movzx	edx, cl
	mov	rcx, QWORD PTR [rsi+88]
	call	?readmemory_as_word_wrap@bus@@QEAAGH@Z	; bus::readmemory_as_word_wrap
	movzx	eax, ax
$LN1847@rundevice_:

; 1595 : 			opc_sbc(t);
; 1596 : 			regs.pc += 2;
; 1597 : 			actualticks += 7;
; 1598 : 			break;
; 1599 : 		}
; 1600 : 	}
; 1601 : 	return actualticks * tick_rate;

	mov	rcx, QWORD PTR [rsi+88]
	mov	DWORD PTR [rcx], eax
	call	?read@bus@@QEAAEXZ			; bus::read
	movzx	edx, al
	mov	rcx, rsi
	call	?opc_and@cpu2a03_fast@@AEAAXE@Z		; cpu2a03_fast::opc_and
	inc	WORD PTR [rsi+72]
	mov	edi, 6
	jmp	$LN2@rundevice_
$LN49@rundevice_:

; 315  : 			opc_rol(_mem_index_x, true);

	mov	rcx, QWORD PTR [rsi+88]
	movzx	eax, bp
; File c:\users\nightorius.phibian\source\repos\denveremu\denveremu\bus\bus.cpp

; 23   : 	address = addr;

	mov	DWORD PTR [rcx], eax

; 24   : 	return read();

	call	?read@bus@@QEAAEXZ			; bus::read
; File c:\users\nightorius.phibian\source\repos\denveremu\denveremu\cpu\cpu2a03_fast.cpp

; 315  : 			opc_rol(_mem_index_x, true);

	movzx	ecx, BYTE PTR [rsi+75]
	add	ecx, eax
	movzx	edx, cl
	mov	rcx, QWORD PTR [rsi+88]
	call	?readmemory_as_word_wrap@bus@@QEAAGH@Z	; bus::readmemory_as_word_wrap
	movzx	edx, ax
	mov	r8b, 1
	mov	rcx, rsi
	call	?opc_rol@cpu2a03_fast@@AEAAXG_N@Z	; cpu2a03_fast::opc_rol

; 316  : 			opc_and(mbus->readmemory(_mem_index_x));

	mov	rcx, QWORD PTR [rsi+88]
	movzx	eax, WORD PTR [rsi+72]
; File c:\users\nightorius.phibian\source\repos\denveremu\denveremu\bus\bus.cpp

; 23   : 	address = addr;

	mov	DWORD PTR [rcx], eax

; 24   : 	return read();

	call	?read@bus@@QEAAEXZ			; bus::read
; File c:\users\nightorius.phibian\source\repos\denveremu\denveremu\cpu\cpu2a03_fast.cpp

; 316  : 			opc_and(mbus->readmemory(_mem_index_x));

	movzx	ecx, BYTE PTR [rsi+75]
	add	ecx, eax
	movzx	edx, cl
	mov	rcx, QWORD PTR [rsi+88]
	call	?readmemory_as_word_wrap@bus@@QEAAGH@Z	; bus::readmemory_as_word_wrap
$LN1835@rundevice_:

; 1595 : 			opc_sbc(t);
; 1596 : 			regs.pc += 2;
; 1597 : 			actualticks += 7;
; 1598 : 			break;
; 1599 : 		}
; 1600 : 	}
; 1601 : 	return actualticks * tick_rate;

	mov	rcx, QWORD PTR [rsi+88]
	movzx	eax, ax
	mov	DWORD PTR [rcx], eax
	call	?read@bus@@QEAAEXZ			; bus::read
	movzx	edx, al
	mov	rcx, rsi
	call	?opc_and@cpu2a03_fast@@AEAAXE@Z		; cpu2a03_fast::opc_and
	inc	WORD PTR [rsi+72]
	mov	edi, 8
	jmp	$LN2@rundevice_
$LN50@rundevice_:

; 322  : 			opc_bit(mbus->readmemory(_mem_zero));

	mov	rcx, QWORD PTR [rsi+88]
	movzx	eax, bp
; File c:\users\nightorius.phibian\source\repos\denveremu\denveremu\bus\bus.cpp

; 23   : 	address = addr;

	mov	DWORD PTR [rcx], eax

; 24   : 	return read();

	call	?read@bus@@QEAAEXZ			; bus::read
; File c:\users\nightorius.phibian\source\repos\denveremu\denveremu\cpu\cpu2a03_fast.cpp

; 322  : 			opc_bit(mbus->readmemory(_mem_zero));

	mov	rcx, QWORD PTR [rsi+88]
	movzx	eax, al
; File c:\users\nightorius.phibian\source\repos\denveremu\denveremu\bus\bus.cpp

; 23   : 	address = addr;

	mov	DWORD PTR [rcx], eax

; 24   : 	return read();

	call	?read@bus@@QEAAEXZ			; bus::read
	movzx	edx, al
; File c:\users\nightorius.phibian\source\repos\denveremu\denveremu\cpu\cpu2a03_fast.cpp

; 322  : 			opc_bit(mbus->readmemory(_mem_zero));

	mov	rcx, rsi
	call	?opc_bit@cpu2a03_fast@@AEAAXE@Z		; cpu2a03_fast::opc_bit

; 323  : 			regs.pc++;

	inc	WORD PTR [rsi+72]

; 324  : 			actualticks += 3;

	mov	edi, 3

; 325  : 			break;

	jmp	$LN2@rundevice_
$LN51@rundevice_:

; 328  : 			opc_and(mbus->readmemory(_mem_zero));

	mov	rcx, QWORD PTR [rsi+88]
	movzx	eax, bp
; File c:\users\nightorius.phibian\source\repos\denveremu\denveremu\bus\bus.cpp

; 23   : 	address = addr;

	mov	DWORD PTR [rcx], eax

; 24   : 	return read();

	call	?read@bus@@QEAAEXZ			; bus::read
; File c:\users\nightorius.phibian\source\repos\denveremu\denveremu\cpu\cpu2a03_fast.cpp

; 328  : 			opc_and(mbus->readmemory(_mem_zero));

	mov	rcx, QWORD PTR [rsi+88]
	movzx	eax, al
; File c:\users\nightorius.phibian\source\repos\denveremu\denveremu\bus\bus.cpp

; 23   : 	address = addr;

	mov	DWORD PTR [rcx], eax

; 24   : 	return read();

	call	?read@bus@@QEAAEXZ			; bus::read
	movzx	edx, al
; File c:\users\nightorius.phibian\source\repos\denveremu\denveremu\cpu\cpu2a03_fast.cpp

; 328  : 			opc_and(mbus->readmemory(_mem_zero));

	mov	rcx, rsi
	call	?opc_and@cpu2a03_fast@@AEAAXE@Z		; cpu2a03_fast::opc_and

; 329  : 			regs.pc++;

	inc	WORD PTR [rsi+72]

; 330  : 			actualticks += 3;

	mov	edi, 3

; 331  : 			break;

	jmp	$LN2@rundevice_
$LN52@rundevice_:

; 334  : 			opc_rol(_mem_zero, true);

	mov	rcx, QWORD PTR [rsi+88]
	movzx	eax, bp
; File c:\users\nightorius.phibian\source\repos\denveremu\denveremu\bus\bus.cpp

; 23   : 	address = addr;

	mov	DWORD PTR [rcx], eax

; 24   : 	return read();

	call	?read@bus@@QEAAEXZ			; bus::read
	movzx	edx, al
; File c:\users\nightorius.phibian\source\repos\denveremu\denveremu\cpu\cpu2a03_fast.cpp

; 334  : 			opc_rol(_mem_zero, true);

	mov	r8b, 1
	mov	rcx, rsi
	call	?opc_rol@cpu2a03_fast@@AEAAXG_N@Z	; cpu2a03_fast::opc_rol

; 335  : 			regs.pc++;

	inc	WORD PTR [rsi+72]

; 336  : 			actualticks += 5;

	mov	edi, 5

; 337  : 			break;

	jmp	$LN2@rundevice_
$LN53@rundevice_:

; 340  : 			opc_rol(_mem_zero, true);

	mov	rcx, QWORD PTR [rsi+88]
	movzx	eax, bp
; File c:\users\nightorius.phibian\source\repos\denveremu\denveremu\bus\bus.cpp

; 23   : 	address = addr;

	mov	DWORD PTR [rcx], eax

; 24   : 	return read();

	call	?read@bus@@QEAAEXZ			; bus::read
	movzx	edx, al
; File c:\users\nightorius.phibian\source\repos\denveremu\denveremu\cpu\cpu2a03_fast.cpp

; 340  : 			opc_rol(_mem_zero, true);

	mov	r8b, 1
	mov	rcx, rsi
	call	?opc_rol@cpu2a03_fast@@AEAAXG_N@Z	; cpu2a03_fast::opc_rol

; 341  : 			opc_and(mbus->readmemory(_mem_zero));

	mov	rcx, QWORD PTR [rsi+88]
	movzx	eax, WORD PTR [rsi+72]
; File c:\users\nightorius.phibian\source\repos\denveremu\denveremu\bus\bus.cpp

; 23   : 	address = addr;

	mov	DWORD PTR [rcx], eax

; 24   : 	return read();

	call	?read@bus@@QEAAEXZ			; bus::read
; File c:\users\nightorius.phibian\source\repos\denveremu\denveremu\cpu\cpu2a03_fast.cpp

; 341  : 			opc_and(mbus->readmemory(_mem_zero));

	mov	rcx, QWORD PTR [rsi+88]
	movzx	eax, al
; File c:\users\nightorius.phibian\source\repos\denveremu\denveremu\bus\bus.cpp

; 23   : 	address = addr;

	mov	DWORD PTR [rcx], eax

; 24   : 	return read();

	call	?read@bus@@QEAAEXZ			; bus::read
	movzx	edx, al
; File c:\users\nightorius.phibian\source\repos\denveremu\denveremu\cpu\cpu2a03_fast.cpp

; 341  : 			opc_and(mbus->readmemory(_mem_zero));

	mov	rcx, rsi
	call	?opc_and@cpu2a03_fast@@AEAAXE@Z		; cpu2a03_fast::opc_and

; 342  : 			regs.pc++;

	inc	WORD PTR [rsi+72]

; 343  : 			actualticks += 5;

	mov	edi, 5

; 344  : 			break;

	jmp	$LN2@rundevice_
$LN54@rundevice_:

; 345  : 		}
; 346  : 		case 0x28: { // plp
; 347  : 			actualticks += 4;
; 348  : 			regs.sr = pullstack_byte() | 0x20;

	mov	rcx, rsi
	mov	edi, 4
	call	?pullstack_byte@cpu2a03_fast@@QEAAEXZ	; cpu2a03_fast::pullstack_byte
	or	al, 32					; 00000020H
	mov	BYTE PTR [rsi+78], al

; 349  : 			break;

	jmp	$LN2@rundevice_
$LN55@rundevice_:

; 352  : 			opc_and(mbus->readmemory(_mem_immediate));

	mov	rcx, QWORD PTR [rsi+88]
	movzx	eax, bp
; File c:\users\nightorius.phibian\source\repos\denveremu\denveremu\bus\bus.cpp

; 23   : 	address = addr;

	mov	DWORD PTR [rcx], eax

; 24   : 	return read();

	call	?read@bus@@QEAAEXZ			; bus::read
	movzx	edx, al
; File c:\users\nightorius.phibian\source\repos\denveremu\denveremu\cpu\cpu2a03_fast.cpp

; 352  : 			opc_and(mbus->readmemory(_mem_immediate));

	mov	rcx, rsi
	call	?opc_and@cpu2a03_fast@@AEAAXE@Z		; cpu2a03_fast::opc_and

; 353  : 			regs.pc++;

	inc	WORD PTR [rsi+72]

; 354  : 			actualticks += 2;

	mov	edi, 2

; 355  : 			break;

	jmp	$LN2@rundevice_
$LN56@rundevice_:

; 356  : 		}
; 357  : 		case 0x2a: {
; 358  : 			opc_rol(0, false);

	xor	edx, edx
	xor	r8d, r8d
	mov	rcx, rsi
	call	?opc_rol@cpu2a03_fast@@AEAAXG_N@Z	; cpu2a03_fast::opc_rol

; 359  : 			actualticks += 2;

	mov	edi, 2

; 360  : 			break;

	jmp	$LN2@rundevice_
$LN57@rundevice_:

; 363  : 			opc_bit(mbus->readmemory(_mem_absolute));

	mov	rcx, QWORD PTR [rsi+88]
	movzx	edx, bp
	call	?readmemory_as_word@bus@@QEAAGH@Z	; bus::readmemory_as_word
	mov	rcx, QWORD PTR [rsi+88]
	movzx	eax, ax
; File c:\users\nightorius.phibian\source\repos\denveremu\denveremu\bus\bus.cpp

; 23   : 	address = addr;

	mov	DWORD PTR [rcx], eax

; 24   : 	return read();

	call	?read@bus@@QEAAEXZ			; bus::read
	movzx	edx, al
; File c:\users\nightorius.phibian\source\repos\denveremu\denveremu\cpu\cpu2a03_fast.cpp

; 363  : 			opc_bit(mbus->readmemory(_mem_absolute));

	mov	rcx, rsi
	call	?opc_bit@cpu2a03_fast@@AEAAXE@Z		; cpu2a03_fast::opc_bit

; 364  : 			regs.pc += 2;
; 365  : 			actualticks += 4;

	mov	edi, 4

; 366  : 			break;

	jmp	$LN1797@rundevice_
$LN58@rundevice_:

; 369  : 			opc_and(mbus->readmemory(_mem_absolute));

	mov	rcx, QWORD PTR [rsi+88]
	movzx	edx, bp
	call	?readmemory_as_word@bus@@QEAAGH@Z	; bus::readmemory_as_word
	mov	rcx, QWORD PTR [rsi+88]
	movzx	eax, ax
; File c:\users\nightorius.phibian\source\repos\denveremu\denveremu\bus\bus.cpp

; 23   : 	address = addr;

	mov	DWORD PTR [rcx], eax

; 24   : 	return read();

	call	?read@bus@@QEAAEXZ			; bus::read
	movzx	edx, al
; File c:\users\nightorius.phibian\source\repos\denveremu\denveremu\cpu\cpu2a03_fast.cpp

; 369  : 			opc_and(mbus->readmemory(_mem_absolute));

	mov	rcx, rsi
	call	?opc_and@cpu2a03_fast@@AEAAXE@Z		; cpu2a03_fast::opc_and

; 370  : 			regs.pc += 2;
; 371  : 			actualticks += 4;

	mov	edi, 4

; 372  : 			break;

	jmp	$LN1797@rundevice_
$LN59@rundevice_:

; 373  : 		}
; 374  : 		case 0x2e: {
; 375  : 			opc_rol(_mem_absolute, true);

	mov	rcx, QWORD PTR [rsi+88]
	movzx	edx, bp
	call	?readmemory_as_word@bus@@QEAAGH@Z	; bus::readmemory_as_word
	movzx	edx, ax
	mov	r8b, 1
	mov	rcx, rsi
	call	?opc_rol@cpu2a03_fast@@AEAAXG_N@Z	; cpu2a03_fast::opc_rol

; 376  : 			regs.pc += 2;
; 377  : 			actualticks += 6;

	mov	edi, 6

; 378  : 			break;

	jmp	$LN1797@rundevice_
$LN60@rundevice_:

; 379  : 		}
; 380  : 		case 0x2f: {
; 381  : 			opc_rol(_mem_absolute, true);

	mov	rcx, QWORD PTR [rsi+88]
	movzx	edx, bp
	call	?readmemory_as_word@bus@@QEAAGH@Z	; bus::readmemory_as_word
	movzx	edx, ax
	mov	r8b, 1
	mov	rcx, rsi
	call	?opc_rol@cpu2a03_fast@@AEAAXG_N@Z	; cpu2a03_fast::opc_rol

; 382  : 			opc_and(mbus->readmemory(_mem_absolute));

	movzx	edx, WORD PTR [rsi+72]
	mov	rcx, QWORD PTR [rsi+88]
	call	?readmemory_as_word@bus@@QEAAGH@Z	; bus::readmemory_as_word
	mov	rcx, QWORD PTR [rsi+88]
	movzx	eax, ax
; File c:\users\nightorius.phibian\source\repos\denveremu\denveremu\bus\bus.cpp

; 23   : 	address = addr;

	mov	DWORD PTR [rcx], eax

; 24   : 	return read();

	call	?read@bus@@QEAAEXZ			; bus::read
	movzx	edx, al
; File c:\users\nightorius.phibian\source\repos\denveremu\denveremu\cpu\cpu2a03_fast.cpp

; 382  : 			opc_and(mbus->readmemory(_mem_absolute));

	mov	rcx, rsi
	call	?opc_and@cpu2a03_fast@@AEAAXE@Z		; cpu2a03_fast::opc_and

; 383  : 			regs.pc += 2;
; 384  : 			actualticks += 6;

	mov	edi, 6

; 385  : 			break;

	jmp	$LN1797@rundevice_
$LN61@rundevice_:

; 386  : 		}
; 387  : 		case 0x30: { //bmi
; 388  : 			actualticks += 2;
; 389  : 			if (regs.sr & cf_negative) {

	cmp	BYTE PTR [rsi+78], 0
	mov	edi, 2
	jge	$LN26@rundevice_

; 391  : 				if ((regs.pc & 0xFF00) != (_mem_relative and 0xFF00)) actualticks++;

	mov	rcx, QWORD PTR [rsi+88]
	movzx	eax, bp
; File c:\users\nightorius.phibian\source\repos\denveremu\denveremu\bus\bus.cpp

; 23   : 	address = addr;

	mov	DWORD PTR [rcx], eax

; 24   : 	return read();

	call	?read@bus@@QEAAEXZ			; bus::read
; File c:\users\nightorius.phibian\source\repos\denveremu\denveremu\cpu\cpu2a03_fast.cpp

; 391  : 				if ((regs.pc & 0xFF00) != (_mem_relative and 0xFF00)) actualticks++;

	mov	rcx, QWORD PTR [rsi+88]
	and	al, 128					; 00000080H
	movzx	eax, WORD PTR [rsi+72]
	mov	DWORD PTR [rcx], eax
	jne	SHORT $LN303@rundevice_
; File c:\users\nightorius.phibian\source\repos\denveremu\denveremu\bus\bus.cpp

; 24   : 	return read();

	call	?read@bus@@QEAAEXZ			; bus::read
; File c:\users\nightorius.phibian\source\repos\denveremu\denveremu\cpu\cpu2a03_fast.cpp

; 391  : 				if ((regs.pc & 0xFF00) != (_mem_relative and 0xFF00)) actualticks++;

	movzx	r8d, WORD PTR [rsi+72]
	movzx	r9d, al
	lea	ecx, DWORD PTR [r8+1]
	add	r9d, ecx
	jmp	SHORT $LN304@rundevice_
$LN303@rundevice_:
; File c:\users\nightorius.phibian\source\repos\denveremu\denveremu\bus\bus.cpp

; 24   : 	return read();

	call	?read@bus@@QEAAEXZ			; bus::read
	movzx	r8d, WORD PTR [rsi+72]
	xor	r9d, r9d
	movzx	eax, al
; File c:\users\nightorius.phibian\source\repos\denveremu\denveremu\cpu\cpu2a03_fast.cpp

; 391  : 				if ((regs.pc & 0xFF00) != (_mem_relative and 0xFF00)) actualticks++;

	mov	ecx, -1					; ffffffffH
	sub	ecx, eax
	and	ecx, 127				; 0000007fH
	cmp	r8w, cx
	setne	r9b
$LN304@rundevice_:
	movzx	eax, r8w
	mov	ebp, 65280				; 0000ff00H
	and	eax, ebp

; 392  : 				regs.pc = _mem_relative;

	xor	edi, edi
	cmp	eax, r9d
	movzx	eax, r8w
	jmp	$LN1846@rundevice_
$LN65@rundevice_:

; 397  : 			opc_and(mbus->readmemory(_mem_index_y));

	mov	rcx, QWORD PTR [rsi+88]
	movzx	eax, bp
; File c:\users\nightorius.phibian\source\repos\denveremu\denveremu\bus\bus.cpp

; 23   : 	address = addr;

	mov	DWORD PTR [rcx], eax

; 24   : 	return read();

	call	?read@bus@@QEAAEXZ			; bus::read
; File c:\users\nightorius.phibian\source\repos\denveremu\denveremu\cpu\cpu2a03_fast.cpp

; 397  : 			opc_and(mbus->readmemory(_mem_index_y));

	mov	rcx, QWORD PTR [rsi+88]
	movzx	edx, al
	call	?readmemory_as_word_wrap@bus@@QEAAGH@Z	; bus::readmemory_as_word_wrap
	movzx	ecx, BYTE PTR [rsi+76]
	add	ax, cx
	mov	rcx, QWORD PTR [rsi+88]
	movzx	eax, ax
; File c:\users\nightorius.phibian\source\repos\denveremu\denveremu\bus\bus.cpp

; 23   : 	address = addr;

	mov	DWORD PTR [rcx], eax

; 24   : 	return read();

	call	?read@bus@@QEAAEXZ			; bus::read
	movzx	edx, al
; File c:\users\nightorius.phibian\source\repos\denveremu\denveremu\cpu\cpu2a03_fast.cpp

; 397  : 			opc_and(mbus->readmemory(_mem_index_y));

	mov	rcx, rsi
	call	?opc_and@cpu2a03_fast@@AEAAXE@Z		; cpu2a03_fast::opc_and

; 398  : 			regs.pc++;
; 399  : 			actualticks += 5;
; 400  : 			if (_mem_index_y_inc) actualticks++;
; 401  : 			break;

	jmp	$LN1814@rundevice_
$LN68@rundevice_:

; 408  : 			opc_rol(_mem_index_y, true);

	mov	rcx, QWORD PTR [rsi+88]
	movzx	eax, bp
; File c:\users\nightorius.phibian\source\repos\denveremu\denveremu\bus\bus.cpp

; 23   : 	address = addr;

	mov	DWORD PTR [rcx], eax

; 24   : 	return read();

	call	?read@bus@@QEAAEXZ			; bus::read
; File c:\users\nightorius.phibian\source\repos\denveremu\denveremu\cpu\cpu2a03_fast.cpp

; 408  : 			opc_rol(_mem_index_y, true);

	mov	rcx, QWORD PTR [rsi+88]
	movzx	edx, al
	call	?readmemory_as_word_wrap@bus@@QEAAGH@Z	; bus::readmemory_as_word_wrap
	movzx	edx, BYTE PTR [rsi+76]
	mov	r8b, 1
	add	dx, ax
	mov	rcx, rsi
	call	?opc_rol@cpu2a03_fast@@AEAAXG_N@Z	; cpu2a03_fast::opc_rol

; 409  : 			opc_and(mbus->readmemory(_mem_index_y));

	mov	rcx, QWORD PTR [rsi+88]
	movzx	eax, WORD PTR [rsi+72]
; File c:\users\nightorius.phibian\source\repos\denveremu\denveremu\bus\bus.cpp

; 23   : 	address = addr;

	mov	DWORD PTR [rcx], eax

; 24   : 	return read();

	call	?read@bus@@QEAAEXZ			; bus::read
; File c:\users\nightorius.phibian\source\repos\denveremu\denveremu\cpu\cpu2a03_fast.cpp

; 409  : 			opc_and(mbus->readmemory(_mem_index_y));

	mov	rcx, QWORD PTR [rsi+88]
	movzx	edx, al
	call	?readmemory_as_word_wrap@bus@@QEAAGH@Z	; bus::readmemory_as_word_wrap
	movzx	ecx, BYTE PTR [rsi+76]
	add	ax, cx

; 410  : 			regs.pc++;
; 411  : 			actualticks += 8;
; 412  : 			break;

	jmp	$LN1835@rundevice_
$LN69@rundevice_:

; 415  : 			opc_and(mbus->readmemory(_mem_zero_x));

	mov	rcx, QWORD PTR [rsi+88]
	movzx	eax, bp
; File c:\users\nightorius.phibian\source\repos\denveremu\denveremu\bus\bus.cpp

; 23   : 	address = addr;

	mov	DWORD PTR [rcx], eax

; 24   : 	return read();

	call	?read@bus@@QEAAEXZ			; bus::read
; File c:\users\nightorius.phibian\source\repos\denveremu\denveremu\cpu\cpu2a03_fast.cpp

; 415  : 			opc_and(mbus->readmemory(_mem_zero_x));

	movzx	edx, BYTE PTR [rsi+75]
	mov	rcx, QWORD PTR [rsi+88]
	add	edx, eax
	movzx	eax, dl
; File c:\users\nightorius.phibian\source\repos\denveremu\denveremu\bus\bus.cpp

; 23   : 	address = addr;

	mov	DWORD PTR [rcx], eax

; 24   : 	return read();

	call	?read@bus@@QEAAEXZ			; bus::read
	movzx	edx, al
; File c:\users\nightorius.phibian\source\repos\denveremu\denveremu\cpu\cpu2a03_fast.cpp

; 415  : 			opc_and(mbus->readmemory(_mem_zero_x));

	mov	rcx, rsi
	call	?opc_and@cpu2a03_fast@@AEAAXE@Z		; cpu2a03_fast::opc_and

; 416  : 			regs.pc++;

	inc	WORD PTR [rsi+72]

; 417  : 			actualticks += 4;

	mov	edi, 4

; 418  : 			break;

	jmp	$LN2@rundevice_
$LN70@rundevice_:

; 421  : 			opc_rol(_mem_zero_x, true);

	mov	rcx, QWORD PTR [rsi+88]
	movzx	eax, bp
; File c:\users\nightorius.phibian\source\repos\denveremu\denveremu\bus\bus.cpp

; 23   : 	address = addr;

	mov	DWORD PTR [rcx], eax

; 24   : 	return read();

	call	?read@bus@@QEAAEXZ			; bus::read
; File c:\users\nightorius.phibian\source\repos\denveremu\denveremu\cpu\cpu2a03_fast.cpp

; 421  : 			opc_rol(_mem_zero_x, true);

	movzx	edx, BYTE PTR [rsi+75]
	mov	r8b, 1
	movzx	eax, al
	mov	rcx, rsi
	add	dx, ax
	mov	eax, 255				; 000000ffH
	and	dx, ax
	call	?opc_rol@cpu2a03_fast@@AEAAXG_N@Z	; cpu2a03_fast::opc_rol

; 1595 : 			opc_sbc(t);
; 1596 : 			regs.pc += 2;
; 1597 : 			actualticks += 7;
; 1598 : 			break;
; 1599 : 		}
; 1600 : 	}
; 1601 : 	return actualticks * tick_rate;

	inc	WORD PTR [rsi+72]
	mov	edi, 6
	jmp	$LN2@rundevice_
$LN71@rundevice_:

; 427  : 			opc_rol(_mem_zero_x, true);

	mov	rcx, QWORD PTR [rsi+88]
	movzx	eax, bp
; File c:\users\nightorius.phibian\source\repos\denveremu\denveremu\bus\bus.cpp

; 23   : 	address = addr;

	mov	DWORD PTR [rcx], eax

; 24   : 	return read();

	call	?read@bus@@QEAAEXZ			; bus::read
; File c:\users\nightorius.phibian\source\repos\denveremu\denveremu\cpu\cpu2a03_fast.cpp

; 427  : 			opc_rol(_mem_zero_x, true);

	movzx	edx, BYTE PTR [rsi+75]
	mov	r8b, 1
	movzx	eax, al
	mov	rcx, rsi
	add	dx, ax
	mov	eax, 255				; 000000ffH
	and	dx, ax
	call	?opc_rol@cpu2a03_fast@@AEAAXG_N@Z	; cpu2a03_fast::opc_rol

; 428  : 			opc_and(mbus->readmemory(_mem_zero_x));

	mov	rcx, QWORD PTR [rsi+88]
	movzx	eax, WORD PTR [rsi+72]
; File c:\users\nightorius.phibian\source\repos\denveremu\denveremu\bus\bus.cpp

; 23   : 	address = addr;

	mov	DWORD PTR [rcx], eax

; 24   : 	return read();

	call	?read@bus@@QEAAEXZ			; bus::read
; File c:\users\nightorius.phibian\source\repos\denveremu\denveremu\cpu\cpu2a03_fast.cpp

; 428  : 			opc_and(mbus->readmemory(_mem_zero_x));

	movzx	edx, BYTE PTR [rsi+75]
	add	edx, eax
	movzx	eax, dl

; 429  : 			regs.pc++;
; 430  : 			actualticks += 6;
; 431  : 			break;

	jmp	$LN1847@rundevice_
$LN72@rundevice_:

; 432  : 		}
; 433  : 		case 0x38: { //sec
; 434  : 			actualticks += 2;
; 435  : 			regs.sr |= cf_carry;

	or	BYTE PTR [rsi+78], 1
	mov	edi, 2

; 436  : 			break;

	jmp	$LN2@rundevice_
$LN73@rundevice_:

; 439  : 			opc_and(mbus->readmemory(_mem_absolute_y));

	mov	rcx, QWORD PTR [rsi+88]
	movzx	edx, bp
	call	?readmemory_as_word@bus@@QEAAGH@Z	; bus::readmemory_as_word
	movzx	ecx, BYTE PTR [rsi+76]
	add	ax, cx
	mov	rcx, QWORD PTR [rsi+88]
	movzx	eax, ax
; File c:\users\nightorius.phibian\source\repos\denveremu\denveremu\bus\bus.cpp

; 23   : 	address = addr;

	mov	DWORD PTR [rcx], eax

; 24   : 	return read();

	call	?read@bus@@QEAAEXZ			; bus::read
	movzx	edx, al
; File c:\users\nightorius.phibian\source\repos\denveremu\denveremu\cpu\cpu2a03_fast.cpp

; 439  : 			opc_and(mbus->readmemory(_mem_absolute_y));

	mov	rcx, rsi
	call	?opc_and@cpu2a03_fast@@AEAAXE@Z		; cpu2a03_fast::opc_and

; 440  : 			regs.pc += 2;
; 441  : 			actualticks += 4;
; 442  : 			if ((_mem_absolute & 0xFF00) != (_mem_absolute_y & 0xFF00)) actualticks++;
; 443  : 			break;

	jmp	$LN1817@rundevice_
$LN76@rundevice_:

; 444  : 		}
; 445  : 		case 0x3a: {
; 446  : 			error_state = true;
; 447  : 			break;
; 448  : 		}
; 449  : 		case 0x3b: {
; 450  : 			opc_rol(_mem_absolute_y, true);

	mov	rcx, QWORD PTR [rsi+88]
	movzx	edx, bp
	call	?readmemory_as_word@bus@@QEAAGH@Z	; bus::readmemory_as_word
	movzx	edx, BYTE PTR [rsi+76]
	mov	r8b, 1
	add	dx, ax
	mov	rcx, rsi
	call	?opc_rol@cpu2a03_fast@@AEAAXG_N@Z	; cpu2a03_fast::opc_rol

; 451  : 			opc_and(mbus->readmemory(_mem_absolute_y));

	movzx	edx, WORD PTR [rsi+72]
	mov	rcx, QWORD PTR [rsi+88]
	call	?readmemory_as_word@bus@@QEAAGH@Z	; bus::readmemory_as_word
	movzx	ecx, BYTE PTR [rsi+76]
$LN1801@rundevice_:

; 1595 : 			opc_sbc(t);
; 1596 : 			regs.pc += 2;
; 1597 : 			actualticks += 7;
; 1598 : 			break;
; 1599 : 		}
; 1600 : 	}
; 1601 : 	return actualticks * tick_rate;

	add	ax, cx
	mov	rcx, QWORD PTR [rsi+88]
	movzx	eax, ax
	mov	DWORD PTR [rcx], eax
	call	?read@bus@@QEAAEXZ			; bus::read
	movzx	edx, al
	mov	rcx, rsi
	call	?opc_and@cpu2a03_fast@@AEAAXE@Z		; cpu2a03_fast::opc_and
	jmp	$LN1798@rundevice_
$LN77@rundevice_:

; 457  : 			opc_and(mbus->readmemory(_mem_absolute_x));

	mov	rcx, QWORD PTR [rsi+88]
	movzx	edx, bp
	call	?readmemory_as_word@bus@@QEAAGH@Z	; bus::readmemory_as_word
	movzx	ecx, BYTE PTR [rsi+75]
	add	ax, cx
	mov	rcx, QWORD PTR [rsi+88]
	movzx	eax, ax
; File c:\users\nightorius.phibian\source\repos\denveremu\denveremu\bus\bus.cpp

; 23   : 	address = addr;

	mov	DWORD PTR [rcx], eax

; 24   : 	return read();

	call	?read@bus@@QEAAEXZ			; bus::read
	movzx	edx, al
; File c:\users\nightorius.phibian\source\repos\denveremu\denveremu\cpu\cpu2a03_fast.cpp

; 457  : 			opc_and(mbus->readmemory(_mem_absolute_x));

	mov	rcx, rsi
	call	?opc_and@cpu2a03_fast@@AEAAXE@Z		; cpu2a03_fast::opc_and

; 458  : 			regs.pc += 2;
; 459  : 			actualticks += 4;
; 460  : 			if ((_mem_absolute & 0xFF00) != (_mem_absolute_x & 0xFF00)) actualticks++;
; 461  : 			break;

	jmp	$LN1845@rundevice_
$LN79@rundevice_:

; 462  : 		}
; 463  : 		case 0x3e: {
; 464  : 			opc_rol(_mem_absolute_x, true);

	mov	rcx, QWORD PTR [rsi+88]
	movzx	edx, bp
	call	?readmemory_as_word@bus@@QEAAGH@Z	; bus::readmemory_as_word
	movzx	edx, BYTE PTR [rsi+75]
	mov	r8b, 1
	add	dx, ax
	mov	rcx, rsi
	call	?opc_rol@cpu2a03_fast@@AEAAXG_N@Z	; cpu2a03_fast::opc_rol

; 465  : 			regs.pc += 2;
; 466  : 			actualticks += 7;
; 467  : 			break;

	jmp	$LN1798@rundevice_
$LN80@rundevice_:

; 468  : 		}
; 469  : 		case 0x3f: {
; 470  : 			opc_rol(_mem_absolute_x, true);

	mov	rcx, QWORD PTR [rsi+88]
	movzx	edx, bp
	call	?readmemory_as_word@bus@@QEAAGH@Z	; bus::readmemory_as_word
	movzx	edx, BYTE PTR [rsi+75]
	mov	r8b, 1
	add	dx, ax
	mov	rcx, rsi
	call	?opc_rol@cpu2a03_fast@@AEAAXG_N@Z	; cpu2a03_fast::opc_rol

; 471  : 			opc_and(mbus->readmemory(_mem_absolute_x));

	movzx	edx, WORD PTR [rsi+72]
	mov	rcx, QWORD PTR [rsi+88]
	call	?readmemory_as_word@bus@@QEAAGH@Z	; bus::readmemory_as_word
	movzx	ecx, BYTE PTR [rsi+75]

; 472  : 			regs.pc += 2;
; 473  : 			actualticks += 7;
; 474  : 			break;

	jmp	$LN1801@rundevice_
$LN81@rundevice_:

; 475  : 		}
; 476  : 		case 0x40: { // rti
; 477  : 			actualticks += 6;
; 478  : 			regs.sr = pullstack_byte() | 0x20;

	mov	rcx, rsi
	mov	edi, 6
	call	?pullstack_byte@cpu2a03_fast@@QEAAEXZ	; cpu2a03_fast::pullstack_byte
	or	al, 32					; 00000020H

; 479  : 			regs.pc = pullstack_word();

	mov	rcx, rsi
	mov	BYTE PTR [rsi+78], al
	call	?pullstack_word@cpu2a03_fast@@QEAAGXZ	; cpu2a03_fast::pullstack_word
	mov	WORD PTR [rsi+72], ax

; 480  : 			break;

	jmp	$LN2@rundevice_
$LN82@rundevice_:

; 483  : 			opc_xor(mbus->readmemory(_mem_index_x));

	mov	rcx, QWORD PTR [rsi+88]
	movzx	eax, bp
; File c:\users\nightorius.phibian\source\repos\denveremu\denveremu\bus\bus.cpp

; 23   : 	address = addr;

	mov	DWORD PTR [rcx], eax

; 24   : 	return read();

	call	?read@bus@@QEAAEXZ			; bus::read
; File c:\users\nightorius.phibian\source\repos\denveremu\denveremu\cpu\cpu2a03_fast.cpp

; 483  : 			opc_xor(mbus->readmemory(_mem_index_x));

	movzx	ecx, BYTE PTR [rsi+75]
	add	ecx, eax
	movzx	edx, cl
	mov	rcx, QWORD PTR [rsi+88]
	call	?readmemory_as_word_wrap@bus@@QEAAGH@Z	; bus::readmemory_as_word_wrap
	movzx	eax, ax
$LN1848@rundevice_:

; 1595 : 			opc_sbc(t);
; 1596 : 			regs.pc += 2;
; 1597 : 			actualticks += 7;
; 1598 : 			break;
; 1599 : 		}
; 1600 : 	}
; 1601 : 	return actualticks * tick_rate;

	mov	rcx, QWORD PTR [rsi+88]
	mov	DWORD PTR [rcx], eax
	call	?read@bus@@QEAAEXZ			; bus::read
	movzx	edx, al
	mov	rcx, rsi
	call	?opc_xor@cpu2a03_fast@@AEAAXE@Z		; cpu2a03_fast::opc_xor
	inc	WORD PTR [rsi+72]
	mov	edi, 6
	jmp	$LN2@rundevice_
$LN84@rundevice_:

; 493  : 			opc_lsr(_mem_index_x, true);

	mov	rcx, QWORD PTR [rsi+88]
	movzx	eax, bp
; File c:\users\nightorius.phibian\source\repos\denveremu\denveremu\bus\bus.cpp

; 23   : 	address = addr;

	mov	DWORD PTR [rcx], eax

; 24   : 	return read();

	call	?read@bus@@QEAAEXZ			; bus::read
; File c:\users\nightorius.phibian\source\repos\denveremu\denveremu\cpu\cpu2a03_fast.cpp

; 493  : 			opc_lsr(_mem_index_x, true);

	movzx	ecx, BYTE PTR [rsi+75]
	add	ecx, eax
	movzx	edx, cl
	mov	rcx, QWORD PTR [rsi+88]
	call	?readmemory_as_word_wrap@bus@@QEAAGH@Z	; bus::readmemory_as_word_wrap
	movzx	edx, ax
	mov	r8b, 1
	mov	rcx, rsi
	call	?opc_lsr@cpu2a03_fast@@AEAAXG_N@Z	; cpu2a03_fast::opc_lsr

; 494  : 			opc_xor(mbus->readmemory(_mem_index_x));

	mov	rcx, QWORD PTR [rsi+88]
	movzx	eax, WORD PTR [rsi+72]
; File c:\users\nightorius.phibian\source\repos\denveremu\denveremu\bus\bus.cpp

; 23   : 	address = addr;

	mov	DWORD PTR [rcx], eax

; 24   : 	return read();

	call	?read@bus@@QEAAEXZ			; bus::read
; File c:\users\nightorius.phibian\source\repos\denveremu\denveremu\cpu\cpu2a03_fast.cpp

; 494  : 			opc_xor(mbus->readmemory(_mem_index_x));

	movzx	ecx, BYTE PTR [rsi+75]
	add	ecx, eax
	movzx	edx, cl
	mov	rcx, QWORD PTR [rsi+88]
	call	?readmemory_as_word_wrap@bus@@QEAAGH@Z	; bus::readmemory_as_word_wrap
$LN1836@rundevice_:

; 1595 : 			opc_sbc(t);
; 1596 : 			regs.pc += 2;
; 1597 : 			actualticks += 7;
; 1598 : 			break;
; 1599 : 		}
; 1600 : 	}
; 1601 : 	return actualticks * tick_rate;

	mov	rcx, QWORD PTR [rsi+88]
	movzx	eax, ax
	mov	DWORD PTR [rcx], eax
	call	?read@bus@@QEAAEXZ			; bus::read
	movzx	edx, al
	mov	rcx, rsi
	call	?opc_xor@cpu2a03_fast@@AEAAXE@Z		; cpu2a03_fast::opc_xor
	inc	WORD PTR [rsi+72]
	mov	edi, 8
	jmp	$LN2@rundevice_
$LN85@rundevice_:

; 500  : 			opc_xor(mbus->readmemory(_mem_zero));

	mov	rcx, QWORD PTR [rsi+88]
	movzx	eax, bp
; File c:\users\nightorius.phibian\source\repos\denveremu\denveremu\bus\bus.cpp

; 23   : 	address = addr;

	mov	DWORD PTR [rcx], eax

; 24   : 	return read();

	call	?read@bus@@QEAAEXZ			; bus::read
; File c:\users\nightorius.phibian\source\repos\denveremu\denveremu\cpu\cpu2a03_fast.cpp

; 500  : 			opc_xor(mbus->readmemory(_mem_zero));

	mov	rcx, QWORD PTR [rsi+88]
	movzx	eax, al
; File c:\users\nightorius.phibian\source\repos\denveremu\denveremu\bus\bus.cpp

; 23   : 	address = addr;

	mov	DWORD PTR [rcx], eax

; 24   : 	return read();

	call	?read@bus@@QEAAEXZ			; bus::read
	movzx	edx, al
; File c:\users\nightorius.phibian\source\repos\denveremu\denveremu\cpu\cpu2a03_fast.cpp

; 500  : 			opc_xor(mbus->readmemory(_mem_zero));

	mov	rcx, rsi
	call	?opc_xor@cpu2a03_fast@@AEAAXE@Z		; cpu2a03_fast::opc_xor

; 501  : 			regs.pc++;

	inc	WORD PTR [rsi+72]

; 502  : 			actualticks += 3;

	mov	edi, 3

; 503  : 			break;

	jmp	$LN2@rundevice_
$LN86@rundevice_:

; 506  : 			opc_lsr(_mem_zero, true);

	mov	rcx, QWORD PTR [rsi+88]
	movzx	eax, bp
; File c:\users\nightorius.phibian\source\repos\denveremu\denveremu\bus\bus.cpp

; 23   : 	address = addr;

	mov	DWORD PTR [rcx], eax

; 24   : 	return read();

	call	?read@bus@@QEAAEXZ			; bus::read
	movzx	edx, al
; File c:\users\nightorius.phibian\source\repos\denveremu\denveremu\cpu\cpu2a03_fast.cpp

; 506  : 			opc_lsr(_mem_zero, true);

	mov	r8b, 1
	mov	rcx, rsi
	call	?opc_lsr@cpu2a03_fast@@AEAAXG_N@Z	; cpu2a03_fast::opc_lsr

; 507  : 			regs.pc++;

	inc	WORD PTR [rsi+72]

; 508  : 			actualticks += 5;

	mov	edi, 5

; 509  : 			break;

	jmp	$LN2@rundevice_
$LN87@rundevice_:

; 512  : 			opc_lsr(_mem_zero, true);

	mov	rcx, QWORD PTR [rsi+88]
	movzx	eax, bp
; File c:\users\nightorius.phibian\source\repos\denveremu\denveremu\bus\bus.cpp

; 23   : 	address = addr;

	mov	DWORD PTR [rcx], eax

; 24   : 	return read();

	call	?read@bus@@QEAAEXZ			; bus::read
	movzx	edx, al
; File c:\users\nightorius.phibian\source\repos\denveremu\denveremu\cpu\cpu2a03_fast.cpp

; 512  : 			opc_lsr(_mem_zero, true);

	mov	r8b, 1
	mov	rcx, rsi
	call	?opc_lsr@cpu2a03_fast@@AEAAXG_N@Z	; cpu2a03_fast::opc_lsr

; 513  : 			opc_xor(mbus->readmemory(_mem_zero));

	mov	rcx, QWORD PTR [rsi+88]
	movzx	eax, WORD PTR [rsi+72]
; File c:\users\nightorius.phibian\source\repos\denveremu\denveremu\bus\bus.cpp

; 23   : 	address = addr;

	mov	DWORD PTR [rcx], eax

; 24   : 	return read();

	call	?read@bus@@QEAAEXZ			; bus::read
; File c:\users\nightorius.phibian\source\repos\denveremu\denveremu\cpu\cpu2a03_fast.cpp

; 513  : 			opc_xor(mbus->readmemory(_mem_zero));

	mov	rcx, QWORD PTR [rsi+88]
	movzx	eax, al
; File c:\users\nightorius.phibian\source\repos\denveremu\denveremu\bus\bus.cpp

; 23   : 	address = addr;

	mov	DWORD PTR [rcx], eax

; 24   : 	return read();

	call	?read@bus@@QEAAEXZ			; bus::read
	movzx	edx, al
; File c:\users\nightorius.phibian\source\repos\denveremu\denveremu\cpu\cpu2a03_fast.cpp

; 513  : 			opc_xor(mbus->readmemory(_mem_zero));

	mov	rcx, rsi
	call	?opc_xor@cpu2a03_fast@@AEAAXE@Z		; cpu2a03_fast::opc_xor

; 514  : 			regs.pc++;

	inc	WORD PTR [rsi+72]

; 515  : 			actualticks += 5;

	mov	edi, 5

; 516  : 			break;

	jmp	$LN2@rundevice_
$LN88@rundevice_:

; 517  : 		}
; 518  : 		case 0x48: { // pha
; 519  : 			actualticks += 3;
; 520  : 			pushstack_byte(regs.ac);

	movzx	edx, BYTE PTR [rsi+74]
	mov	rcx, rsi
	mov	edi, 3
	call	?pushstack_byte@cpu2a03_fast@@QEAAXE@Z	; cpu2a03_fast::pushstack_byte

; 521  : 			break;

	jmp	$LN2@rundevice_
$LN89@rundevice_:

; 524  : 			opc_xor(mbus->readmemory(_mem_immediate));

	mov	rcx, QWORD PTR [rsi+88]
	movzx	eax, bp
; File c:\users\nightorius.phibian\source\repos\denveremu\denveremu\bus\bus.cpp

; 23   : 	address = addr;

	mov	DWORD PTR [rcx], eax

; 24   : 	return read();

	call	?read@bus@@QEAAEXZ			; bus::read
	movzx	edx, al
; File c:\users\nightorius.phibian\source\repos\denveremu\denveremu\cpu\cpu2a03_fast.cpp

; 524  : 			opc_xor(mbus->readmemory(_mem_immediate));

	mov	rcx, rsi
	call	?opc_xor@cpu2a03_fast@@AEAAXE@Z		; cpu2a03_fast::opc_xor

; 525  : 			regs.pc++;

	inc	WORD PTR [rsi+72]

; 526  : 			actualticks += 2;

	mov	edi, 2

; 527  : 			break;

	jmp	$LN2@rundevice_
$LN90@rundevice_:

; 528  : 		}
; 529  : 		case 0x4a: {
; 530  : 			opc_lsr(0, false);

	xor	edx, edx
	xor	r8d, r8d
	mov	rcx, rsi
	call	?opc_lsr@cpu2a03_fast@@AEAAXG_N@Z	; cpu2a03_fast::opc_lsr

; 531  : 			actualticks += 2;

	mov	edi, 2

; 532  : 			break;

	jmp	$LN2@rundevice_
$LN91@rundevice_:

; 535  : 			opc_and(mbus->readmemory(_mem_immediate));

	mov	rcx, QWORD PTR [rsi+88]
	movzx	eax, bp
; File c:\users\nightorius.phibian\source\repos\denveremu\denveremu\bus\bus.cpp

; 23   : 	address = addr;

	mov	DWORD PTR [rcx], eax

; 24   : 	return read();

	call	?read@bus@@QEAAEXZ			; bus::read
	movzx	edx, al
; File c:\users\nightorius.phibian\source\repos\denveremu\denveremu\cpu\cpu2a03_fast.cpp

; 535  : 			opc_and(mbus->readmemory(_mem_immediate));

	mov	rcx, rsi
	call	?opc_and@cpu2a03_fast@@AEAAXE@Z		; cpu2a03_fast::opc_and

; 536  : 			opc_lsr(0, false);

	xor	edx, edx
	xor	r8d, r8d
	mov	rcx, rsi
	call	?opc_lsr@cpu2a03_fast@@AEAAXG_N@Z	; cpu2a03_fast::opc_lsr

; 537  : 			regs.pc++;

	inc	WORD PTR [rsi+72]

; 538  : 			actualticks += 2;

	mov	edi, 2

; 539  : 			break;

	jmp	$LN2@rundevice_
$LN92@rundevice_:

; 540  : 		}
; 541  : 		case 0x4c: {	//jmp
; 542  : 			regs.pc = _mem_absolute;

	mov	rcx, QWORD PTR [rsi+88]
	movzx	edx, bp
	call	?readmemory_as_word@bus@@QEAAGH@Z	; bus::readmemory_as_word
	mov	WORD PTR [rsi+72], ax

; 543  : 			actualticks += 3;

	mov	edi, 3

; 544  : 			break;

	jmp	$LN2@rundevice_
$LN93@rundevice_:

; 547  : 			opc_xor(mbus->readmemory(_mem_absolute));

	mov	rcx, QWORD PTR [rsi+88]
	movzx	edx, bp
	call	?readmemory_as_word@bus@@QEAAGH@Z	; bus::readmemory_as_word
	mov	rcx, QWORD PTR [rsi+88]
	movzx	eax, ax
; File c:\users\nightorius.phibian\source\repos\denveremu\denveremu\bus\bus.cpp

; 23   : 	address = addr;

	mov	DWORD PTR [rcx], eax

; 24   : 	return read();

	call	?read@bus@@QEAAEXZ			; bus::read
	movzx	edx, al
; File c:\users\nightorius.phibian\source\repos\denveremu\denveremu\cpu\cpu2a03_fast.cpp

; 547  : 			opc_xor(mbus->readmemory(_mem_absolute));

	mov	rcx, rsi
	call	?opc_xor@cpu2a03_fast@@AEAAXE@Z		; cpu2a03_fast::opc_xor

; 548  : 			regs.pc += 2;
; 549  : 			actualticks += 4;

	mov	edi, 4

; 550  : 			break;

	jmp	$LN1797@rundevice_
$LN94@rundevice_:

; 551  : 		}
; 552  : 		case 0x4e: {
; 553  : 			opc_lsr(_mem_absolute, true);

	mov	rcx, QWORD PTR [rsi+88]
	movzx	edx, bp
	call	?readmemory_as_word@bus@@QEAAGH@Z	; bus::readmemory_as_word
	movzx	edx, ax
	mov	r8b, 1
	mov	rcx, rsi
	call	?opc_lsr@cpu2a03_fast@@AEAAXG_N@Z	; cpu2a03_fast::opc_lsr

; 554  : 			regs.pc += 2;
; 555  : 			actualticks += 6;

	mov	edi, 6

; 556  : 			break;

	jmp	$LN1797@rundevice_
$LN95@rundevice_:

; 557  : 		}
; 558  : 		case 0x4f: {
; 559  : 			opc_lsr(_mem_absolute, true);

	mov	rcx, QWORD PTR [rsi+88]
	movzx	edx, bp
	call	?readmemory_as_word@bus@@QEAAGH@Z	; bus::readmemory_as_word
	movzx	edx, ax
	mov	r8b, 1
	mov	rcx, rsi
	call	?opc_lsr@cpu2a03_fast@@AEAAXG_N@Z	; cpu2a03_fast::opc_lsr

; 560  : 			opc_xor(mbus->readmemory(_mem_absolute));

	movzx	edx, WORD PTR [rsi+72]
	mov	rcx, QWORD PTR [rsi+88]
	call	?readmemory_as_word@bus@@QEAAGH@Z	; bus::readmemory_as_word
	mov	rcx, QWORD PTR [rsi+88]
	movzx	eax, ax
; File c:\users\nightorius.phibian\source\repos\denveremu\denveremu\bus\bus.cpp

; 23   : 	address = addr;

	mov	DWORD PTR [rcx], eax

; 24   : 	return read();

	call	?read@bus@@QEAAEXZ			; bus::read
	movzx	edx, al
; File c:\users\nightorius.phibian\source\repos\denveremu\denveremu\cpu\cpu2a03_fast.cpp

; 560  : 			opc_xor(mbus->readmemory(_mem_absolute));

	mov	rcx, rsi
	call	?opc_xor@cpu2a03_fast@@AEAAXE@Z		; cpu2a03_fast::opc_xor

; 561  : 			regs.pc += 2;
; 562  : 			actualticks += 6;

	mov	edi, 6

; 563  : 			break;

	jmp	$LN1797@rundevice_
$LN96@rundevice_:

; 564  : 		}
; 565  : 		case 0x50: {
; 566  : 			actualticks += 2;
; 567  : 			if (!(regs.sr & cf_overflow)) {

	test	BYTE PTR [rsi+78], 64			; 00000040H
	mov	edi, 2
	jne	$LN26@rundevice_

; 569  : 				if ((regs.pc & 0xFF00) != (_mem_relative & 0xFF00)) actualticks++;

	mov	rcx, QWORD PTR [rsi+88]
	movzx	eax, bp
; File c:\users\nightorius.phibian\source\repos\denveremu\denveremu\bus\bus.cpp

; 23   : 	address = addr;

	mov	DWORD PTR [rcx], eax

; 24   : 	return read();

	call	?read@bus@@QEAAEXZ			; bus::read
; File c:\users\nightorius.phibian\source\repos\denveremu\denveremu\cpu\cpu2a03_fast.cpp

; 569  : 				if ((regs.pc & 0xFF00) != (_mem_relative & 0xFF00)) actualticks++;

	mov	rcx, QWORD PTR [rsi+88]
	and	al, 128					; 00000080H
	movzx	eax, WORD PTR [rsi+72]
	mov	ebp, 65280				; 0000ff00H
	mov	DWORD PTR [rcx], eax
	jne	SHORT $LN307@rundevice_
; File c:\users\nightorius.phibian\source\repos\denveremu\denveremu\bus\bus.cpp

; 24   : 	return read();

	call	?read@bus@@QEAAEXZ			; bus::read
; File c:\users\nightorius.phibian\source\repos\denveremu\denveremu\cpu\cpu2a03_fast.cpp

; 569  : 				if ((regs.pc & 0xFF00) != (_mem_relative & 0xFF00)) actualticks++;

	movzx	edx, WORD PTR [rsi+72]

; 570  : 				regs.pc = _mem_relative;

	xor	edi, edi
	movzx	r8d, al
	movzx	eax, dx
	and	eax, ebp
	lea	ecx, DWORD PTR [rdx+1]
	add	r8d, ecx
	cmp	eax, r8d
	jmp	$LN1840@rundevice_
$LN307@rundevice_:
; File c:\users\nightorius.phibian\source\repos\denveremu\denveremu\bus\bus.cpp

; 24   : 	return read();

	call	?read@bus@@QEAAEXZ			; bus::read
; File c:\users\nightorius.phibian\source\repos\denveremu\denveremu\cpu\cpu2a03_fast.cpp

; 569  : 				if ((regs.pc & 0xFF00) != (_mem_relative & 0xFF00)) actualticks++;

	movzx	ecx, WORD PTR [rsi+72]
	mov	edx, -1
; File c:\users\nightorius.phibian\source\repos\denveremu\denveremu\bus\bus.cpp

; 24   : 	return read();

	movzx	eax, al
; File c:\users\nightorius.phibian\source\repos\denveremu\denveremu\cpu\cpu2a03_fast.cpp

; 569  : 				if ((regs.pc & 0xFF00) != (_mem_relative & 0xFF00)) actualticks++;

	mov	r8d, ecx
	sub	edx, eax

; 570  : 				regs.pc = _mem_relative;

	xor	edi, edi
	and	edx, 127				; 0000007fH
	movzx	eax, cx
	sub	r8d, edx
	and	eax, ebp
	and	r8d, ebp
	movzx	edx, cx
	cmp	eax, r8d
	jmp	$LN1840@rundevice_
$LN100@rundevice_:

; 575  : 			opc_xor(mbus->readmemory(_mem_index_y));

	mov	rcx, QWORD PTR [rsi+88]
	movzx	eax, bp
; File c:\users\nightorius.phibian\source\repos\denveremu\denveremu\bus\bus.cpp

; 23   : 	address = addr;

	mov	DWORD PTR [rcx], eax

; 24   : 	return read();

	call	?read@bus@@QEAAEXZ			; bus::read
; File c:\users\nightorius.phibian\source\repos\denveremu\denveremu\cpu\cpu2a03_fast.cpp

; 575  : 			opc_xor(mbus->readmemory(_mem_index_y));

	mov	rcx, QWORD PTR [rsi+88]
	movzx	edx, al
	call	?readmemory_as_word_wrap@bus@@QEAAGH@Z	; bus::readmemory_as_word_wrap
	movzx	ecx, BYTE PTR [rsi+76]
	add	ax, cx
	mov	rcx, QWORD PTR [rsi+88]
	movzx	eax, ax
; File c:\users\nightorius.phibian\source\repos\denveremu\denveremu\bus\bus.cpp

; 23   : 	address = addr;

	mov	DWORD PTR [rcx], eax

; 24   : 	return read();

	call	?read@bus@@QEAAEXZ			; bus::read
	movzx	edx, al
; File c:\users\nightorius.phibian\source\repos\denveremu\denveremu\cpu\cpu2a03_fast.cpp

; 575  : 			opc_xor(mbus->readmemory(_mem_index_y));

	mov	rcx, rsi
	call	?opc_xor@cpu2a03_fast@@AEAAXE@Z		; cpu2a03_fast::opc_xor

; 576  : 			regs.pc++;
; 577  : 			actualticks += 5;
; 578  : 			if (_mem_index_y_inc) actualticks++;
; 579  : 			break;

	jmp	$LN1814@rundevice_
$LN103@rundevice_:

; 586  : 			opc_lsr(_mem_index_y, true);

	mov	rcx, QWORD PTR [rsi+88]
	movzx	eax, bp
; File c:\users\nightorius.phibian\source\repos\denveremu\denveremu\bus\bus.cpp

; 23   : 	address = addr;

	mov	DWORD PTR [rcx], eax

; 24   : 	return read();

	call	?read@bus@@QEAAEXZ			; bus::read
; File c:\users\nightorius.phibian\source\repos\denveremu\denveremu\cpu\cpu2a03_fast.cpp

; 586  : 			opc_lsr(_mem_index_y, true);

	mov	rcx, QWORD PTR [rsi+88]
	movzx	edx, al
	call	?readmemory_as_word_wrap@bus@@QEAAGH@Z	; bus::readmemory_as_word_wrap
	movzx	edx, BYTE PTR [rsi+76]
	mov	r8b, 1
	add	dx, ax
	mov	rcx, rsi
	call	?opc_lsr@cpu2a03_fast@@AEAAXG_N@Z	; cpu2a03_fast::opc_lsr

; 587  : 			opc_xor(mbus->readmemory(_mem_index_y));

	mov	rcx, QWORD PTR [rsi+88]
	movzx	eax, WORD PTR [rsi+72]
; File c:\users\nightorius.phibian\source\repos\denveremu\denveremu\bus\bus.cpp

; 23   : 	address = addr;

	mov	DWORD PTR [rcx], eax

; 24   : 	return read();

	call	?read@bus@@QEAAEXZ			; bus::read
; File c:\users\nightorius.phibian\source\repos\denveremu\denveremu\cpu\cpu2a03_fast.cpp

; 587  : 			opc_xor(mbus->readmemory(_mem_index_y));

	mov	rcx, QWORD PTR [rsi+88]
	movzx	edx, al
	call	?readmemory_as_word_wrap@bus@@QEAAGH@Z	; bus::readmemory_as_word_wrap
	movzx	ecx, BYTE PTR [rsi+76]
	add	ax, cx

; 588  : 			regs.pc++;
; 589  : 			actualticks += 8;
; 590  : 			break;

	jmp	$LN1836@rundevice_
$LN104@rundevice_:

; 593  : 			opc_xor(mbus->readmemory(_mem_zero_x));

	mov	rcx, QWORD PTR [rsi+88]
	movzx	eax, bp
; File c:\users\nightorius.phibian\source\repos\denveremu\denveremu\bus\bus.cpp

; 23   : 	address = addr;

	mov	DWORD PTR [rcx], eax

; 24   : 	return read();

	call	?read@bus@@QEAAEXZ			; bus::read
; File c:\users\nightorius.phibian\source\repos\denveremu\denveremu\cpu\cpu2a03_fast.cpp

; 593  : 			opc_xor(mbus->readmemory(_mem_zero_x));

	movzx	edx, BYTE PTR [rsi+75]
	mov	rcx, QWORD PTR [rsi+88]
	add	edx, eax
	movzx	eax, dl
; File c:\users\nightorius.phibian\source\repos\denveremu\denveremu\bus\bus.cpp

; 23   : 	address = addr;

	mov	DWORD PTR [rcx], eax

; 24   : 	return read();

	call	?read@bus@@QEAAEXZ			; bus::read
	movzx	edx, al
; File c:\users\nightorius.phibian\source\repos\denveremu\denveremu\cpu\cpu2a03_fast.cpp

; 593  : 			opc_xor(mbus->readmemory(_mem_zero_x));

	mov	rcx, rsi
	call	?opc_xor@cpu2a03_fast@@AEAAXE@Z		; cpu2a03_fast::opc_xor

; 594  : 			regs.pc++;

	inc	WORD PTR [rsi+72]

; 595  : 			actualticks += 4;

	mov	edi, 4

; 596  : 			break;

	jmp	$LN2@rundevice_
$LN105@rundevice_:

; 599  : 			opc_lsr(_mem_zero_x, true);

	mov	rcx, QWORD PTR [rsi+88]
	movzx	eax, bp
; File c:\users\nightorius.phibian\source\repos\denveremu\denveremu\bus\bus.cpp

; 23   : 	address = addr;

	mov	DWORD PTR [rcx], eax

; 24   : 	return read();

	call	?read@bus@@QEAAEXZ			; bus::read
; File c:\users\nightorius.phibian\source\repos\denveremu\denveremu\cpu\cpu2a03_fast.cpp

; 599  : 			opc_lsr(_mem_zero_x, true);

	movzx	edx, BYTE PTR [rsi+75]
	mov	r8b, 1
	movzx	eax, al
	mov	rcx, rsi
	add	dx, ax
	mov	eax, 255				; 000000ffH
	and	dx, ax
	call	?opc_lsr@cpu2a03_fast@@AEAAXG_N@Z	; cpu2a03_fast::opc_lsr

; 1595 : 			opc_sbc(t);
; 1596 : 			regs.pc += 2;
; 1597 : 			actualticks += 7;
; 1598 : 			break;
; 1599 : 		}
; 1600 : 	}
; 1601 : 	return actualticks * tick_rate;

	inc	WORD PTR [rsi+72]
	mov	edi, 6
	jmp	$LN2@rundevice_
$LN106@rundevice_:

; 605  : 			opc_lsr(_mem_zero_x, true);

	mov	rcx, QWORD PTR [rsi+88]
	movzx	eax, bp
; File c:\users\nightorius.phibian\source\repos\denveremu\denveremu\bus\bus.cpp

; 23   : 	address = addr;

	mov	DWORD PTR [rcx], eax

; 24   : 	return read();

	call	?read@bus@@QEAAEXZ			; bus::read
; File c:\users\nightorius.phibian\source\repos\denveremu\denveremu\cpu\cpu2a03_fast.cpp

; 605  : 			opc_lsr(_mem_zero_x, true);

	movzx	edx, BYTE PTR [rsi+75]
	mov	r8b, 1
	movzx	eax, al
	mov	rcx, rsi
	add	dx, ax
	mov	eax, 255				; 000000ffH
	and	dx, ax
	call	?opc_lsr@cpu2a03_fast@@AEAAXG_N@Z	; cpu2a03_fast::opc_lsr

; 606  : 			opc_xor(mbus->readmemory(_mem_zero_x));

	mov	rcx, QWORD PTR [rsi+88]
	movzx	eax, WORD PTR [rsi+72]
; File c:\users\nightorius.phibian\source\repos\denveremu\denveremu\bus\bus.cpp

; 23   : 	address = addr;

	mov	DWORD PTR [rcx], eax

; 24   : 	return read();

	call	?read@bus@@QEAAEXZ			; bus::read
; File c:\users\nightorius.phibian\source\repos\denveremu\denveremu\cpu\cpu2a03_fast.cpp

; 606  : 			opc_xor(mbus->readmemory(_mem_zero_x));

	movzx	edx, BYTE PTR [rsi+75]
	add	edx, eax
	movzx	eax, dl

; 607  : 			regs.pc++;
; 608  : 			actualticks += 6;
; 609  : 			break;

	jmp	$LN1848@rundevice_
$LN107@rundevice_:

; 610  : 		}
; 611  : 		case 0x58: { // cli
; 612  : 			actualticks += 2;
; 613  : 			regs.sr &= 0xFF - cf_interrupt;

	and	BYTE PTR [rsi+78], 251			; 000000fbH
	mov	edi, 2

; 614  : 			break;

	jmp	$LN2@rundevice_
$LN108@rundevice_:

; 617  : 			opc_xor(mbus->readmemory(_mem_absolute_y));

	mov	rcx, QWORD PTR [rsi+88]
	movzx	edx, bp
	call	?readmemory_as_word@bus@@QEAAGH@Z	; bus::readmemory_as_word
	movzx	ecx, BYTE PTR [rsi+76]
	add	ax, cx
	mov	rcx, QWORD PTR [rsi+88]
	movzx	eax, ax
; File c:\users\nightorius.phibian\source\repos\denveremu\denveremu\bus\bus.cpp

; 23   : 	address = addr;

	mov	DWORD PTR [rcx], eax

; 24   : 	return read();

	call	?read@bus@@QEAAEXZ			; bus::read
	movzx	edx, al
; File c:\users\nightorius.phibian\source\repos\denveremu\denveremu\cpu\cpu2a03_fast.cpp

; 617  : 			opc_xor(mbus->readmemory(_mem_absolute_y));

	mov	rcx, rsi
	call	?opc_xor@cpu2a03_fast@@AEAAXE@Z		; cpu2a03_fast::opc_xor

; 618  : 			regs.pc += 2;
; 619  : 			actualticks += 4;
; 620  : 			if ((_mem_absolute & 0xFF00) != (_mem_absolute_y & 0xFF00)) actualticks++;
; 621  : 			break;

	jmp	$LN1817@rundevice_
$LN111@rundevice_:

; 622  : 		}
; 623  : 		case 0x5a: {
; 624  : 			error_state = true;
; 625  : 			break;
; 626  : 		}
; 627  : 		case 0x5b: {
; 628  : 			opc_lsr(_mem_absolute_y, true);

	mov	rcx, QWORD PTR [rsi+88]
	movzx	edx, bp
	call	?readmemory_as_word@bus@@QEAAGH@Z	; bus::readmemory_as_word
	movzx	edx, BYTE PTR [rsi+76]
	mov	r8b, 1
	add	dx, ax
	mov	rcx, rsi
	call	?opc_lsr@cpu2a03_fast@@AEAAXG_N@Z	; cpu2a03_fast::opc_lsr

; 629  : 			opc_xor(mbus->readmemory(_mem_absolute_y));

	movzx	edx, WORD PTR [rsi+72]
	mov	rcx, QWORD PTR [rsi+88]
	call	?readmemory_as_word@bus@@QEAAGH@Z	; bus::readmemory_as_word
	movzx	ecx, BYTE PTR [rsi+76]
$LN1802@rundevice_:

; 1595 : 			opc_sbc(t);
; 1596 : 			regs.pc += 2;
; 1597 : 			actualticks += 7;
; 1598 : 			break;
; 1599 : 		}
; 1600 : 	}
; 1601 : 	return actualticks * tick_rate;

	add	ax, cx
	mov	rcx, QWORD PTR [rsi+88]
	movzx	eax, ax
	mov	DWORD PTR [rcx], eax
	call	?read@bus@@QEAAEXZ			; bus::read
	movzx	edx, al
	mov	rcx, rsi
	call	?opc_xor@cpu2a03_fast@@AEAAXE@Z		; cpu2a03_fast::opc_xor
	jmp	$LN1798@rundevice_
$LN112@rundevice_:

; 635  : 			opc_xor(mbus->readmemory(_mem_absolute_x));

	mov	rcx, QWORD PTR [rsi+88]
	movzx	edx, bp
	call	?readmemory_as_word@bus@@QEAAGH@Z	; bus::readmemory_as_word
	movzx	ecx, BYTE PTR [rsi+75]
	add	ax, cx
	mov	rcx, QWORD PTR [rsi+88]
	movzx	eax, ax
; File c:\users\nightorius.phibian\source\repos\denveremu\denveremu\bus\bus.cpp

; 23   : 	address = addr;

	mov	DWORD PTR [rcx], eax

; 24   : 	return read();

	call	?read@bus@@QEAAEXZ			; bus::read
	movzx	edx, al
; File c:\users\nightorius.phibian\source\repos\denveremu\denveremu\cpu\cpu2a03_fast.cpp

; 635  : 			opc_xor(mbus->readmemory(_mem_absolute_x));

	mov	rcx, rsi
	call	?opc_xor@cpu2a03_fast@@AEAAXE@Z		; cpu2a03_fast::opc_xor

; 636  : 			regs.pc += 2;
; 637  : 			actualticks += 4;
; 638  : 			if ((_mem_absolute & 0xFF00) != (_mem_absolute_x & 0xFF00)) actualticks++;
; 639  : 			break;

	jmp	$LN1845@rundevice_
$LN114@rundevice_:

; 640  : 		}
; 641  : 		case 0x5e: {
; 642  : 			opc_lsr(_mem_absolute_x, true);

	mov	rcx, QWORD PTR [rsi+88]
	movzx	edx, bp
	call	?readmemory_as_word@bus@@QEAAGH@Z	; bus::readmemory_as_word
	movzx	edx, BYTE PTR [rsi+75]
	mov	r8b, 1
	add	dx, ax
	mov	rcx, rsi
	call	?opc_lsr@cpu2a03_fast@@AEAAXG_N@Z	; cpu2a03_fast::opc_lsr

; 643  : 			regs.pc += 2;
; 644  : 			actualticks += 7;
; 645  : 			break;

	jmp	$LN1798@rundevice_
$LN115@rundevice_:

; 646  : 		}
; 647  : 		case 0x5f: {
; 648  : 			opc_lsr(_mem_absolute_x, true);

	mov	rcx, QWORD PTR [rsi+88]
	movzx	edx, bp
	call	?readmemory_as_word@bus@@QEAAGH@Z	; bus::readmemory_as_word
	movzx	edx, BYTE PTR [rsi+75]
	mov	r8b, 1
	add	dx, ax
	mov	rcx, rsi
	call	?opc_lsr@cpu2a03_fast@@AEAAXG_N@Z	; cpu2a03_fast::opc_lsr

; 649  : 			opc_xor(mbus->readmemory(_mem_absolute_x));

	movzx	edx, WORD PTR [rsi+72]
	mov	rcx, QWORD PTR [rsi+88]
	call	?readmemory_as_word@bus@@QEAAGH@Z	; bus::readmemory_as_word
	movzx	ecx, BYTE PTR [rsi+75]

; 650  : 			regs.pc += 2;
; 651  : 			actualticks += 7;
; 652  : 			break;

	jmp	$LN1802@rundevice_
$LN116@rundevice_:

; 653  : 		}
; 654  : 		case 0x60: { // rts
; 655  : 			actualticks += 6;
; 656  : 			regs.pc = pullstack_word();

	mov	rcx, rsi
	mov	edi, 6
	call	?pullstack_word@cpu2a03_fast@@QEAAGXZ	; cpu2a03_fast::pullstack_word

; 657  : 			regs.pc++;

	inc	ax
	mov	WORD PTR [rsi+72], ax

; 658  : 			break;

	jmp	$LN2@rundevice_
$LN117@rundevice_:

; 659  : 		}
; 660  : 		case 0x61: {
; 661  : 			opc_adc(mbus->readmemory(_mem_index_x));

	mov	rcx, QWORD PTR [rsi+88]
	movzx	edx, bp
	call	?readmemory@bus@@QEAAEH@Z		; bus::readmemory
	movzx	ecx, BYTE PTR [rsi+75]
	add	ecx, eax
	movzx	edx, cl
	mov	rcx, QWORD PTR [rsi+88]
	call	?readmemory_as_word_wrap@bus@@QEAAGH@Z	; bus::readmemory_as_word_wrap
	movzx	edx, ax
$LN1832@rundevice_:

; 1595 : 			opc_sbc(t);
; 1596 : 			regs.pc += 2;
; 1597 : 			actualticks += 7;
; 1598 : 			break;
; 1599 : 		}
; 1600 : 	}
; 1601 : 	return actualticks * tick_rate;

	mov	rcx, QWORD PTR [rsi+88]
	call	?readmemory@bus@@QEAAEH@Z		; bus::readmemory
	movzx	edx, al
	mov	rcx, rsi
	call	?opc_adc@cpu2a03_fast@@AEAAXE@Z		; cpu2a03_fast::opc_adc
	inc	WORD PTR [rsi+72]
	mov	edi, 6
	jmp	$LN2@rundevice_
$LN119@rundevice_:

; 662  : 			regs.pc++;
; 663  : 			actualticks += 6;
; 664  : 			break;
; 665  : 		}
; 666  : 		case 0x62: {
; 667  : 			error_state = true;
; 668  : 			break;
; 669  : 		}
; 670  : 		case 0x63: {
; 671  : 			opc_ror(_mem_index_x, true);

	mov	rcx, QWORD PTR [rsi+88]
	movzx	edx, bp
	call	?readmemory@bus@@QEAAEH@Z		; bus::readmemory
	movzx	ecx, al
	movzx	eax, BYTE PTR [rsi+75]
	add	eax, ecx
	mov	rcx, QWORD PTR [rsi+88]
	movzx	edx, al
	call	?readmemory_as_word_wrap@bus@@QEAAGH@Z	; bus::readmemory_as_word_wrap
	movzx	edx, ax
	mov	r8b, 1
	mov	rcx, rsi
	call	?opc_ror@cpu2a03_fast@@AEAAXG_N@Z	; cpu2a03_fast::opc_ror

; 672  : 			opc_adc(mbus->readmemory(_mem_index_x));

	movzx	edx, WORD PTR [rsi+72]
	mov	rcx, QWORD PTR [rsi+88]
	call	?readmemory@bus@@QEAAEH@Z		; bus::readmemory
	movzx	ecx, BYTE PTR [rsi+75]
	add	ecx, eax
	movzx	edx, cl
	mov	rcx, QWORD PTR [rsi+88]
	call	?readmemory_as_word_wrap@bus@@QEAAGH@Z	; bus::readmemory_as_word_wrap
$LN1837@rundevice_:

; 1595 : 			opc_sbc(t);
; 1596 : 			regs.pc += 2;
; 1597 : 			actualticks += 7;
; 1598 : 			break;
; 1599 : 		}
; 1600 : 	}
; 1601 : 	return actualticks * tick_rate;

	mov	rcx, QWORD PTR [rsi+88]
	movzx	edx, ax
	call	?readmemory@bus@@QEAAEH@Z		; bus::readmemory
	movzx	edx, al
	mov	rcx, rsi
	call	?opc_adc@cpu2a03_fast@@AEAAXE@Z		; cpu2a03_fast::opc_adc
	inc	WORD PTR [rsi+72]
	mov	edi, 8
	jmp	$LN2@rundevice_
$LN120@rundevice_:

; 673  : 			regs.pc++;
; 674  : 			actualticks += 8;
; 675  : 			break;
; 676  : 		}
; 677  : 		case 0x65: {
; 678  : 			opc_adc(mbus->readmemory(_mem_zero));

	mov	rcx, QWORD PTR [rsi+88]
	movzx	edx, bp
	call	?readmemory@bus@@QEAAEH@Z		; bus::readmemory
	mov	rcx, QWORD PTR [rsi+88]
	movzx	edx, al
	call	?readmemory@bus@@QEAAEH@Z		; bus::readmemory
	movzx	edx, al
	mov	rcx, rsi
	call	?opc_adc@cpu2a03_fast@@AEAAXE@Z		; cpu2a03_fast::opc_adc

; 679  : 			regs.pc++;

	inc	WORD PTR [rsi+72]

; 680  : 			actualticks += 3;

	mov	edi, 3

; 681  : 			break;

	jmp	$LN2@rundevice_
$LN121@rundevice_:

; 682  : 		}
; 683  : 		case 0x66: {
; 684  : 			opc_ror(_mem_zero, true);

	mov	rcx, QWORD PTR [rsi+88]
	movzx	edx, bp
	call	?readmemory@bus@@QEAAEH@Z		; bus::readmemory
	movzx	edx, al
	mov	r8b, 1
	mov	rcx, rsi
	call	?opc_ror@cpu2a03_fast@@AEAAXG_N@Z	; cpu2a03_fast::opc_ror

; 685  : 			regs.pc++;

	inc	WORD PTR [rsi+72]

; 686  : 			actualticks += 5;

	mov	edi, 5

; 687  : 			break;

	jmp	$LN2@rundevice_
$LN122@rundevice_:

; 688  : 		}
; 689  : 		case 0x67: {
; 690  : 			opc_ror(_mem_zero, true);

	mov	rcx, QWORD PTR [rsi+88]
	movzx	edx, bp
	call	?readmemory@bus@@QEAAEH@Z		; bus::readmemory
	movzx	edx, al
	mov	r8b, 1
	mov	rcx, rsi
	call	?opc_ror@cpu2a03_fast@@AEAAXG_N@Z	; cpu2a03_fast::opc_ror

; 691  : 			opc_adc(mbus->readmemory(_mem_zero));

	movzx	edx, WORD PTR [rsi+72]
	mov	rcx, QWORD PTR [rsi+88]
	call	?readmemory@bus@@QEAAEH@Z		; bus::readmemory
	mov	rcx, QWORD PTR [rsi+88]
	movzx	edx, al
	call	?readmemory@bus@@QEAAEH@Z		; bus::readmemory
	movzx	edx, al
	mov	rcx, rsi
	call	?opc_adc@cpu2a03_fast@@AEAAXE@Z		; cpu2a03_fast::opc_adc

; 692  : 			regs.pc++;

	inc	WORD PTR [rsi+72]

; 693  : 			actualticks += 5;

	mov	edi, 5

; 694  : 			break;

	jmp	$LN2@rundevice_
$LN123@rundevice_:

; 695  : 		}
; 696  : 		case 0x68: { // pla
; 697  : 			actualticks += 4;
; 698  : 			regs.ac = pullstack_byte();

	mov	rcx, rsi
	mov	edi, 4
	call	?pullstack_byte@cpu2a03_fast@@QEAAEXZ	; cpu2a03_fast::pullstack_byte

; 699  : 			regs.sr &= 0xFF - (cf_negative | cf_zero);

	movzx	ecx, BYTE PTR [rsi+78]
	movzx	edx, al
	and	ecx, 125				; 0000007dH
	mov	BYTE PTR [rsi+74], al

; 700  : 			regs.sr = !regs.ac ? regs.sr | cf_zero : regs.sr;

	test	al, al
	jne	SHORT $LN311@rundevice_
	or	ecx, 2
$LN311@rundevice_:

; 701  : 			regs.sr = regs.ac & 0x80 ? regs.sr | cf_negative : regs.sr;

	movzx	eax, cl
	test	dl, dl
	jns	SHORT $LN313@rundevice_
	bts	eax, 7
$LN313@rundevice_:
	mov	BYTE PTR [rsi+78], al

; 702  : 			break;

	jmp	$LN2@rundevice_
$LN124@rundevice_:

; 703  : 		}
; 704  : 		case 0x69: {
; 705  : 			opc_adc(mbus->readmemory(_mem_immediate));

	mov	rcx, QWORD PTR [rsi+88]
	movzx	edx, bp
	call	?readmemory@bus@@QEAAEH@Z		; bus::readmemory
	movzx	edx, al
	mov	rcx, rsi
	call	?opc_adc@cpu2a03_fast@@AEAAXE@Z		; cpu2a03_fast::opc_adc

; 706  : 			regs.pc++;

	inc	WORD PTR [rsi+72]

; 707  : 			actualticks += 2;

	mov	edi, 2

; 708  : 			break;

	jmp	$LN2@rundevice_
$LN125@rundevice_:

; 709  : 		}
; 710  : 		case 0x6a: {
; 711  : 			opc_ror(0, false);

	xor	edx, edx
	xor	r8d, r8d
	mov	rcx, rsi
	call	?opc_ror@cpu2a03_fast@@AEAAXG_N@Z	; cpu2a03_fast::opc_ror

; 712  : 			actualticks += 2;

	mov	edi, 2

; 713  : 			break;

	jmp	$LN2@rundevice_
$LN126@rundevice_:

; 714  : 		}
; 715  : 		case 0x6b: { //arr  (have no idea how it actually works. but ac & imm, ror (ac) general)
; 716  : 			byte data = mbus->readmemory(_mem_immediate);

	mov	rcx, QWORD PTR [rsi+88]
	movzx	edx, bp
	call	?readmemory@bus@@QEAAEH@Z		; bus::readmemory

; 717  : 			data &= regs.ac;
; 718  : 			regs.ac = (data >> 1) | ((regs.sr & cf_carry) << 7);

	movzx	ecx, BYTE PTR [rsi+74]
	movzx	edx, BYTE PTR [rsi+78]
	shr	al, 1
	shr	cl, 1
	and	cl, al
	movzx	eax, dl
	shl	al, 7

; 719  : 			regs.sr &= 0xFF - (cf_zero | cf_negative);

	and	edx, 125				; 0000007dH
	or	cl, al
	mov	BYTE PTR [rsi+74], cl

; 720  : 			regs.sr = !regs.ac ? regs.sr | cf_zero : regs.sr;

	test	cl, cl
	jne	SHORT $LN315@rundevice_
	or	edx, 2
$LN315@rundevice_:

; 721  : 			regs.sr = regs.ac & 0x80 ? regs.sr | cf_negative : regs.sr;

	movzx	eax, dl
	test	cl, cl
	jns	SHORT $LN317@rundevice_
	bts	eax, 7
$LN317@rundevice_:

; 722  : 			regs.sr = regs.ac & 0x40 ? regs.sr | cf_carry : regs.sr & (0xFF - cf_carry);

	movzx	edx, al
	test	cl, 64					; 00000040H
	je	SHORT $LN319@rundevice_
	or	edx, 1
	jmp	SHORT $LN320@rundevice_
$LN319@rundevice_:
	and	edx, 254				; 000000feH
$LN320@rundevice_:

; 723  : 			regs.sr = (regs.ac ^ (regs.ac << 1)) & 0x40 ? regs.sr | cf_overflow : regs.sr & (0xFF - cf_overflow);

	movzx	eax, cl
	movzx	edx, dl
	lea	ecx, DWORD PTR [rax+rax]
	xor	ecx, eax
	test	cl, 64					; 00000040H
	je	SHORT $LN321@rundevice_
	or	edx, 64					; 00000040H

; 724  : 			regs.pc++;
; 725  : 			actualticks += 2;

	mov	edi, 2
	inc	WORD PTR [rsi+72]
	mov	BYTE PTR [rsi+78], dl

; 726  : 			break;

	jmp	$LN2@rundevice_
$LN321@rundevice_:

; 723  : 			regs.sr = (regs.ac ^ (regs.ac << 1)) & 0x40 ? regs.sr | cf_overflow : regs.sr & (0xFF - cf_overflow);

	and	edx, 191				; 000000bfH

; 724  : 			regs.pc++;
; 725  : 			actualticks += 2;

	mov	edi, 2
	inc	WORD PTR [rsi+72]
	mov	BYTE PTR [rsi+78], dl

; 726  : 			break;

	jmp	$LN2@rundevice_
$LN127@rundevice_:

; 727  : 		}
; 728  : 		case 0x6c: {
; 729  : 			regs.pc = _mem_indexed;

	mov	rcx, QWORD PTR [rsi+88]
	movzx	edx, bp
	call	?readmemory_as_word@bus@@QEAAGH@Z	; bus::readmemory_as_word
	mov	rcx, QWORD PTR [rsi+88]
	movzx	edx, ax
	call	?readmemory_as_word_wrap@bus@@QEAAGH@Z	; bus::readmemory_as_word_wrap
	mov	WORD PTR [rsi+72], ax

; 730  : 			actualticks += 5;

	mov	edi, 5

; 731  : 			break;

	jmp	$LN2@rundevice_
$LN128@rundevice_:

; 732  : 		}
; 733  : 		case 0x6d: {
; 734  : 			opc_adc(mbus->readmemory(_mem_absolute));

	mov	rcx, QWORD PTR [rsi+88]
	movzx	edx, bp
	call	?readmemory_as_word@bus@@QEAAGH@Z	; bus::readmemory_as_word
	mov	rcx, QWORD PTR [rsi+88]
	movzx	edx, ax
	call	?readmemory@bus@@QEAAEH@Z		; bus::readmemory
	movzx	edx, al
	mov	rcx, rsi
	call	?opc_adc@cpu2a03_fast@@AEAAXE@Z		; cpu2a03_fast::opc_adc

; 735  : 			regs.pc += 2;
; 736  : 			actualticks += 4;

	mov	edi, 4

; 737  : 			break;

	jmp	$LN1797@rundevice_
$LN129@rundevice_:

; 738  : 		}
; 739  : 		case 0x6e: {
; 740  : 			opc_ror(_mem_absolute, true);

	mov	rcx, QWORD PTR [rsi+88]
	movzx	edx, bp
	call	?readmemory_as_word@bus@@QEAAGH@Z	; bus::readmemory_as_word
	movzx	edx, ax
	mov	r8b, 1
	mov	rcx, rsi
	call	?opc_ror@cpu2a03_fast@@AEAAXG_N@Z	; cpu2a03_fast::opc_ror

; 741  : 			regs.pc += 2;
; 742  : 			actualticks += 6;

	mov	edi, 6

; 743  : 			break;

	jmp	$LN1797@rundevice_
$LN130@rundevice_:

; 744  : 		}
; 745  : 		case 0x6f: {
; 746  : 			opc_ror(_mem_absolute, true);

	mov	rcx, QWORD PTR [rsi+88]
	movzx	edx, bp
	call	?readmemory_as_word@bus@@QEAAGH@Z	; bus::readmemory_as_word
	movzx	edx, ax
	mov	r8b, 1
	mov	rcx, rsi
	call	?opc_ror@cpu2a03_fast@@AEAAXG_N@Z	; cpu2a03_fast::opc_ror

; 747  : 			opc_adc(mbus->readmemory(_mem_absolute));

	movzx	edx, WORD PTR [rsi+72]
	mov	rcx, QWORD PTR [rsi+88]
	call	?readmemory_as_word@bus@@QEAAGH@Z	; bus::readmemory_as_word
	mov	rcx, QWORD PTR [rsi+88]
	movzx	edx, ax
	call	?readmemory@bus@@QEAAEH@Z		; bus::readmemory
	movzx	edx, al
	mov	rcx, rsi
	call	?opc_adc@cpu2a03_fast@@AEAAXE@Z		; cpu2a03_fast::opc_adc

; 748  : 			regs.pc += 2;
; 749  : 			actualticks += 6;

	mov	edi, 6

; 750  : 			break;

	jmp	$LN1797@rundevice_
$LN131@rundevice_:

; 751  : 		}
; 752  : 		case 0x70: { // bvs
; 753  : 			actualticks += 2;
; 754  : 			if (regs.sr & cf_overflow) {

	test	BYTE PTR [rsi+78], 64			; 00000040H
	mov	edi, 2
$LN1850@rundevice_:

; 1595 : 			opc_sbc(t);
; 1596 : 			regs.pc += 2;
; 1597 : 			actualticks += 7;
; 1598 : 			break;
; 1599 : 		}
; 1600 : 	}
; 1601 : 	return actualticks * tick_rate;

	je	$LN26@rundevice_
$LN1849@rundevice_:
	mov	rcx, QWORD PTR [rsi+88]
	movzx	edx, bp
	call	?readmemory@bus@@QEAAEH@Z		; bus::readmemory
	movzx	edx, WORD PTR [rsi+72]
	movzx	ebx, al
	mov	rcx, QWORD PTR [rsi+88]
	call	?readmemory@bus@@QEAAEH@Z		; bus::readmemory
	movzx	r8d, WORD PTR [rsi+72]
	mov	ebp, 65280				; 0000ff00H
	movzx	eax, al
	mov	ecx, r8d
	and	bl, 128					; 00000080H
	jne	SHORT $LN323@rundevice_
	inc	eax
	add	eax, ecx
	jmp	SHORT $LN324@rundevice_
$LN323@rundevice_:
	mov	edx, -1
	sub	edx, eax
	mov	eax, ecx
	and	edx, 127				; 0000007fH
	sub	eax, edx
	and	eax, ebp
$LN324@rundevice_:
	xor	edi, edi
	and	r8d, ebp
	cmp	r8d, eax
	mov	edx, ecx
	mov	rcx, QWORD PTR [rsi+88]
	setne	dil
	add	edi, 3
	call	?readmemory@bus@@QEAAEH@Z		; bus::readmemory
	movzx	edx, WORD PTR [rsi+72]
	movzx	ebx, al
	mov	rcx, QWORD PTR [rsi+88]
	call	?readmemory@bus@@QEAAEH@Z		; bus::readmemory
	movzx	ebp, WORD PTR [rsi+72]
	movzx	eax, al
	and	bl, 128					; 00000080H
	jne	SHORT $LN325@rundevice_
$LN1841@rundevice_:
	inc	bp
	add	bp, ax
	mov	WORD PTR [rsi+72], bp
	jmp	$LN2@rundevice_
$LN325@rundevice_:
	mov	ecx, 65535				; 0000ffffH
	sub	cx, ax
	and	cx, 127					; 0000007fH
	sub	bp, cx
	mov	WORD PTR [rsi+72], bp
	jmp	$LN2@rundevice_
$LN135@rundevice_:

; 755  : 				actualticks++;
; 756  : 				if ((regs.pc & 0xFF00) != (_mem_relative & 0xFF00)) actualticks++;
; 757  : 				regs.pc = _mem_relative;
; 758  : 			} else regs.pc++;
; 759  : 			break;
; 760  : 		}
; 761  : 		case 0x71: {
; 762  : 			opc_adc(mbus->readmemory(_mem_index_y));

	mov	rcx, QWORD PTR [rsi+88]
	movzx	edx, bp
	call	?readmemory@bus@@QEAAEH@Z		; bus::readmemory
	mov	rcx, QWORD PTR [rsi+88]
	movzx	edx, al
	call	?readmemory_as_word_wrap@bus@@QEAAGH@Z	; bus::readmemory_as_word_wrap
	movzx	ecx, BYTE PTR [rsi+76]
	add	ax, cx
	mov	rcx, QWORD PTR [rsi+88]
	movzx	edx, ax
	call	?readmemory@bus@@QEAAEH@Z		; bus::readmemory
	movzx	edx, al
	mov	rcx, rsi
	call	?opc_adc@cpu2a03_fast@@AEAAXE@Z		; cpu2a03_fast::opc_adc
$LN1843@rundevice_:

; 1595 : 			opc_sbc(t);
; 1596 : 			regs.pc += 2;
; 1597 : 			actualticks += 7;
; 1598 : 			break;
; 1599 : 		}
; 1600 : 	}
; 1601 : 	return actualticks * tick_rate;

	inc	WORD PTR [rsi+72]
	movzx	edx, WORD PTR [rsi+72]
	mov	rcx, QWORD PTR [rsi+88]
	call	?readmemory@bus@@QEAAEH@Z		; bus::readmemory
	mov	rcx, QWORD PTR [rsi+88]
	movzx	edx, al
	call	?readmemory_as_word_wrap@bus@@QEAAGH@Z	; bus::readmemory_as_word_wrap
	movzx	ebx, BYTE PTR [rsi+76]
	mov	ebp, 65280				; 0000ff00H
	movzx	edx, WORD PTR [rsi+72]
	mov	rcx, QWORD PTR [rsi+88]
	movzx	eax, ax
	add	ebx, eax
	and	ebx, ebp
	call	?readmemory@bus@@QEAAEH@Z		; bus::readmemory
	mov	rcx, QWORD PTR [rsi+88]
	movzx	edx, al
	call	?readmemory_as_word_wrap@bus@@QEAAGH@Z	; bus::readmemory_as_word_wrap
	and	eax, ebp
	cmp	eax, ebx
	setne	dil
	add	edi, 5
	jmp	$LN2@rundevice_
$LN138@rundevice_:

; 763  : 			regs.pc++;
; 764  : 			actualticks += 5;
; 765  : 			if (_mem_index_y_inc) actualticks++;
; 766  : 			break;
; 767  : 		}
; 768  : 		case 0x72: {
; 769  : 			error_state = true;
; 770  : 			break;
; 771  : 		}
; 772  : 		case 0x73: {
; 773  : 			opc_ror(_mem_index_y, true);

	mov	rcx, QWORD PTR [rsi+88]
	movzx	edx, bp
	call	?readmemory@bus@@QEAAEH@Z		; bus::readmemory
	mov	rcx, QWORD PTR [rsi+88]
	movzx	edx, al
	call	?readmemory_as_word_wrap@bus@@QEAAGH@Z	; bus::readmemory_as_word_wrap
	movzx	edx, BYTE PTR [rsi+76]
	mov	r8b, 1
	add	dx, ax
	mov	rcx, rsi
	call	?opc_ror@cpu2a03_fast@@AEAAXG_N@Z	; cpu2a03_fast::opc_ror

; 774  : 			opc_adc(mbus->readmemory(_mem_index_y));

	movzx	edx, WORD PTR [rsi+72]
	mov	rcx, QWORD PTR [rsi+88]
	call	?readmemory@bus@@QEAAEH@Z		; bus::readmemory
	mov	rcx, QWORD PTR [rsi+88]
	movzx	edx, al
	call	?readmemory_as_word_wrap@bus@@QEAAGH@Z	; bus::readmemory_as_word_wrap
	movzx	ecx, BYTE PTR [rsi+76]
	add	ax, cx

; 775  : 			regs.pc++;
; 776  : 			actualticks += 8;
; 777  : 			break;

	jmp	$LN1837@rundevice_
$LN139@rundevice_:

; 778  : 		}
; 779  : 		case 0x75: {
; 780  : 			opc_adc(mbus->readmemory(_mem_zero_x));

	mov	rcx, QWORD PTR [rsi+88]
	movzx	edx, bp
	call	?readmemory@bus@@QEAAEH@Z		; bus::readmemory
	movzx	ecx, BYTE PTR [rsi+75]
	add	ecx, eax
	movzx	edx, cl
	mov	rcx, QWORD PTR [rsi+88]
	call	?readmemory@bus@@QEAAEH@Z		; bus::readmemory
	movzx	edx, al
	mov	rcx, rsi
	call	?opc_adc@cpu2a03_fast@@AEAAXE@Z		; cpu2a03_fast::opc_adc

; 781  : 			regs.pc++;

	inc	WORD PTR [rsi+72]

; 782  : 			actualticks += 4;

	mov	edi, 4

; 783  : 			break;

	jmp	$LN2@rundevice_
$LN140@rundevice_:

; 784  : 		}
; 785  : 		case 0x76: {
; 786  : 			opc_ror(_mem_zero_x, true);

	mov	rcx, QWORD PTR [rsi+88]
	movzx	edx, bp
	call	?readmemory@bus@@QEAAEH@Z		; bus::readmemory
	movzx	edx, BYTE PTR [rsi+75]
	mov	r8b, 1
	movzx	eax, al
	mov	rcx, rsi
	add	dx, ax
	mov	eax, 255				; 000000ffH
	and	dx, ax
	call	?opc_ror@cpu2a03_fast@@AEAAXG_N@Z	; cpu2a03_fast::opc_ror

; 1595 : 			opc_sbc(t);
; 1596 : 			regs.pc += 2;
; 1597 : 			actualticks += 7;
; 1598 : 			break;
; 1599 : 		}
; 1600 : 	}
; 1601 : 	return actualticks * tick_rate;

	inc	WORD PTR [rsi+72]
	mov	edi, 6
	jmp	$LN2@rundevice_
$LN141@rundevice_:

; 787  : 			regs.pc++;
; 788  : 			actualticks += 6;
; 789  : 			break;
; 790  : 		}
; 791  : 		case 0x77: {
; 792  : 			opc_ror(_mem_zero_x, true);

	mov	rcx, QWORD PTR [rsi+88]
	movzx	edx, bp
	call	?readmemory@bus@@QEAAEH@Z		; bus::readmemory
	movzx	edx, BYTE PTR [rsi+75]
	mov	r8b, 1
	movzx	eax, al
	mov	rcx, rsi
	add	dx, ax
	mov	eax, 255				; 000000ffH
	and	dx, ax
	call	?opc_ror@cpu2a03_fast@@AEAAXG_N@Z	; cpu2a03_fast::opc_ror

; 793  : 			opc_adc(mbus->readmemory(_mem_zero_x));

	movzx	edx, WORD PTR [rsi+72]
	mov	rcx, QWORD PTR [rsi+88]
	call	?readmemory@bus@@QEAAEH@Z		; bus::readmemory
	movzx	ecx, BYTE PTR [rsi+75]
	add	ecx, eax
	movzx	edx, cl

; 794  : 			regs.pc++;
; 795  : 			actualticks += 6;
; 796  : 			break;

	jmp	$LN1832@rundevice_
$LN142@rundevice_:

; 797  : 		}
; 798  : 		case 0x78: { // sei
; 799  : 			actualticks += 2;
; 800  : 			regs.sr |= cf_interrupt;

	or	BYTE PTR [rsi+78], 4
	mov	edi, 2

; 801  : 			break;

	jmp	$LN2@rundevice_
$LN143@rundevice_:

; 802  : 		}
; 803  : 		case 0x79: {
; 804  : 			opc_adc(mbus->readmemory(_mem_absolute_y));

	mov	rcx, QWORD PTR [rsi+88]
	movzx	edx, bp
	call	?readmemory_as_word@bus@@QEAAGH@Z	; bus::readmemory_as_word
	movzx	ecx, BYTE PTR [rsi+76]
	add	ax, cx
	mov	rcx, QWORD PTR [rsi+88]
	movzx	edx, ax
	call	?readmemory@bus@@QEAAEH@Z		; bus::readmemory
	movzx	edx, al
	mov	rcx, rsi
	call	?opc_adc@cpu2a03_fast@@AEAAXE@Z		; cpu2a03_fast::opc_adc

; 805  : 			actualticks += 4;
; 806  : 			if ((_mem_absolute & 0xFF00) != (_mem_absolute_y & 0xFF00)) actualticks++;

	movzx	edx, WORD PTR [rsi+72]
	mov	rcx, QWORD PTR [rsi+88]
	call	?readmemory_as_word@bus@@QEAAGH@Z	; bus::readmemory_as_word
	movzx	ebx, BYTE PTR [rsi+76]
	mov	ebp, 65280				; 0000ff00H
	movzx	edx, WORD PTR [rsi+72]
	add	ebx, eax
	mov	rcx, QWORD PTR [rsi+88]
	and	bx, bp
	call	?readmemory_as_word@bus@@QEAAGH@Z	; bus::readmemory_as_word
	and	ax, bp

; 807  : 			regs.pc += 2;

	cmp	ax, bx
	setne	dil
	add	edi, 4

; 808  : 			break;

	jmp	$LN1797@rundevice_
$LN146@rundevice_:

; 809  : 		}
; 810  : 		case 0x7a: {
; 811  : 			error_state = true;
; 812  : 			break;
; 813  : 		}
; 814  : 		case 0x7b: {
; 815  : 			opc_ror(_mem_absolute_y, true);

	mov	rcx, QWORD PTR [rsi+88]
	movzx	edx, bp
	call	?readmemory_as_word@bus@@QEAAGH@Z	; bus::readmemory_as_word
	movzx	edx, BYTE PTR [rsi+76]
	mov	r8b, 1
	add	dx, ax
	mov	rcx, rsi
	call	?opc_ror@cpu2a03_fast@@AEAAXG_N@Z	; cpu2a03_fast::opc_ror

; 816  : 			opc_adc(mbus->readmemory(_mem_absolute_y));

	movzx	edx, WORD PTR [rsi+72]
	mov	rcx, QWORD PTR [rsi+88]
	call	?readmemory_as_word@bus@@QEAAGH@Z	; bus::readmemory_as_word
	movzx	ecx, BYTE PTR [rsi+76]
	add	ax, cx
	mov	rcx, QWORD PTR [rsi+88]
	movzx	edx, ax
	call	?readmemory@bus@@QEAAEH@Z		; bus::readmemory
	movzx	edx, al
	mov	rcx, rsi
	call	?opc_adc@cpu2a03_fast@@AEAAXE@Z		; cpu2a03_fast::opc_adc

; 817  : 			regs.pc += 2;
; 818  : 			actualticks += 7;
; 819  : 			break;

	jmp	$LN1798@rundevice_
$LN147@rundevice_:

; 820  : 		}
; 821  : 		case 0x7d: {
; 822  : 			opc_adc(mbus->readmemory(_mem_absolute_x));

	mov	rcx, QWORD PTR [rsi+88]
	movzx	edx, bp
	call	?readmemory_as_word@bus@@QEAAGH@Z	; bus::readmemory_as_word
	movzx	ecx, BYTE PTR [rsi+75]
	add	ax, cx
	mov	rcx, QWORD PTR [rsi+88]
	movzx	edx, ax
	call	?readmemory@bus@@QEAAEH@Z		; bus::readmemory
	movzx	edx, al
	mov	rcx, rsi
	call	?opc_adc@cpu2a03_fast@@AEAAXE@Z		; cpu2a03_fast::opc_adc

; 823  : 			regs.pc += 2;
; 824  : 			actualticks += 4;
; 825  : 			if ((_mem_absolute & 0xFF00) != (_mem_absolute_x & 0xFF00)) actualticks++;
; 826  : 			break;

	jmp	$LN1845@rundevice_
$LN149@rundevice_:

; 827  : 		}
; 828  : 		case 0x7e: {
; 829  : 			opc_ror(_mem_absolute_x, true);

	mov	rcx, QWORD PTR [rsi+88]
	movzx	edx, bp
	call	?readmemory_as_word@bus@@QEAAGH@Z	; bus::readmemory_as_word
	movzx	edx, BYTE PTR [rsi+75]
	mov	r8b, 1
	add	dx, ax
	mov	rcx, rsi
	call	?opc_ror@cpu2a03_fast@@AEAAXG_N@Z	; cpu2a03_fast::opc_ror

; 830  : 			regs.pc += 2;
; 831  : 			actualticks += 7;
; 832  : 			break;

	jmp	$LN1798@rundevice_
$LN150@rundevice_:

; 833  : 		}
; 834  : 		case 0x7f: {
; 835  : 			opc_ror(_mem_absolute_x, true);

	mov	rcx, QWORD PTR [rsi+88]
	movzx	edx, bp
	call	?readmemory_as_word@bus@@QEAAGH@Z	; bus::readmemory_as_word
	movzx	edx, BYTE PTR [rsi+75]
	mov	r8b, 1
	add	dx, ax
	mov	rcx, rsi
	call	?opc_ror@cpu2a03_fast@@AEAAXG_N@Z	; cpu2a03_fast::opc_ror

; 836  : 			opc_adc(mbus->readmemory(_mem_absolute_x));

	movzx	edx, WORD PTR [rsi+72]
	mov	rcx, QWORD PTR [rsi+88]
	call	?readmemory_as_word@bus@@QEAAGH@Z	; bus::readmemory_as_word
	movzx	ecx, BYTE PTR [rsi+75]
	add	ax, cx
	mov	rcx, QWORD PTR [rsi+88]
	movzx	edx, ax
	call	?readmemory@bus@@QEAAEH@Z		; bus::readmemory
	movzx	edx, al
	mov	rcx, rsi
	call	?opc_adc@cpu2a03_fast@@AEAAXE@Z		; cpu2a03_fast::opc_adc

; 837  : 			regs.pc += 2;
; 838  : 			actualticks += 7;
; 839  : 			break;

	jmp	$LN1798@rundevice_
$LN151@rundevice_:

; 840  : 		}
; 841  : 		case 0x80: case 0x82: case 0x89: case 0xc2: case 0xe2: {
; 842  : 			regs.pc++;

	inc	bp

; 843  : 			actualticks += 2;

	mov	edi, 2
	mov	WORD PTR [rsi+72], bp

; 844  : 			break;

	jmp	$LN2@rundevice_
$LN152@rundevice_:

; 845  : 		}
; 846  : 		case 0x81: {
; 847  : 			mbus->writememory(_mem_index_x, regs.ac);

	mov	rcx, QWORD PTR [rsi+88]
	movzx	edx, bp
	call	?readmemory@bus@@QEAAEH@Z		; bus::readmemory
	movzx	ecx, BYTE PTR [rsi+75]
	add	ecx, eax
	movzx	edx, cl
	mov	rcx, QWORD PTR [rsi+88]
	call	?readmemory_as_word_wrap@bus@@QEAAGH@Z	; bus::readmemory_as_word_wrap
$LN1833@rundevice_:

; 1595 : 			opc_sbc(t);
; 1596 : 			regs.pc += 2;
; 1597 : 			actualticks += 7;
; 1598 : 			break;
; 1599 : 		}
; 1600 : 	}
; 1601 : 	return actualticks * tick_rate;

	movzx	r8d, BYTE PTR [rsi+74]
	movzx	edx, ax
$LN1834@rundevice_:
	mov	rcx, QWORD PTR [rsi+88]
	call	?writememory@bus@@QEAAXHE@Z		; bus::writememory
	inc	WORD PTR [rsi+72]
	mov	edi, 6
	jmp	$LN2@rundevice_
$LN153@rundevice_:

; 848  : 			regs.pc++;
; 849  : 			actualticks += 6;
; 850  : 			break;
; 851  : 		}
; 852  : 		case 0x83: {
; 853  : 			mbus->writememory(_mem_index_x, regs.ac & regs.x);

	mov	rcx, QWORD PTR [rsi+88]
	movzx	edx, bp
	call	?readmemory@bus@@QEAAEH@Z		; bus::readmemory
	movzx	ebx, BYTE PTR [rsi+74]
	and	bl, BYTE PTR [rsi+75]
	movzx	ecx, al
	movzx	eax, BYTE PTR [rsi+75]
	add	eax, ecx
	mov	rcx, QWORD PTR [rsi+88]
	movzx	edx, al
	call	?readmemory_as_word_wrap@bus@@QEAAGH@Z	; bus::readmemory_as_word_wrap
	mov	rcx, QWORD PTR [rsi+88]
	movzx	r8d, bl
	movzx	edx, ax
	call	?writememory@bus@@QEAAXHE@Z		; bus::writememory

; 1595 : 			opc_sbc(t);
; 1596 : 			regs.pc += 2;
; 1597 : 			actualticks += 7;
; 1598 : 			break;
; 1599 : 		}
; 1600 : 	}
; 1601 : 	return actualticks * tick_rate;

	inc	WORD PTR [rsi+72]
	mov	edi, 6
	jmp	$LN2@rundevice_
$LN154@rundevice_:

; 854  : 			regs.pc++;
; 855  : 			actualticks += 6;
; 856  : 			break;
; 857  : 		}
; 858  : 		case 0x84: {
; 859  : 			mbus->writememory(_mem_zero, regs.y);

	mov	rcx, QWORD PTR [rsi+88]
	movzx	edx, bp
	call	?readmemory@bus@@QEAAEH@Z		; bus::readmemory
	movzx	r8d, BYTE PTR [rsi+76]
$LN1852@rundevice_:

; 1595 : 			opc_sbc(t);
; 1596 : 			regs.pc += 2;
; 1597 : 			actualticks += 7;
; 1598 : 			break;
; 1599 : 		}
; 1600 : 	}
; 1601 : 	return actualticks * tick_rate;

	mov	rcx, QWORD PTR [rsi+88]
	movzx	edx, al
	call	?writememory@bus@@QEAAXHE@Z		; bus::writememory
	inc	WORD PTR [rsi+72]
	mov	edi, 3
	jmp	$LN2@rundevice_
$LN155@rundevice_:

; 860  : 			regs.pc++;
; 861  : 			actualticks += 3;
; 862  : 			break;
; 863  : 		}
; 864  : 		case 0x85: {
; 865  : 			mbus->writememory(_mem_zero, regs.ac);

	mov	rcx, QWORD PTR [rsi+88]
	movzx	edx, bp
	call	?readmemory@bus@@QEAAEH@Z		; bus::readmemory
	movzx	r8d, BYTE PTR [rsi+74]

; 866  : 			regs.pc++;
; 867  : 			actualticks += 3;
; 868  : 			break;

	jmp	SHORT $LN1852@rundevice_
$LN156@rundevice_:

; 869  : 		}
; 870  : 		case 0x86: {
; 871  : 			mbus->writememory(_mem_zero, regs.x);

	mov	rcx, QWORD PTR [rsi+88]
	movzx	edx, bp
	call	?readmemory@bus@@QEAAEH@Z		; bus::readmemory
	movzx	r8d, BYTE PTR [rsi+75]

; 872  : 			regs.pc++;
; 873  : 			actualticks += 3;
; 874  : 			break;

	jmp	SHORT $LN1852@rundevice_
$LN157@rundevice_:

; 875  : 		}
; 876  : 		case 0x87: {
; 877  : 			mbus->writememory(_mem_zero, regs.ac & regs.x);

	movzx	ebx, BYTE PTR [rsi+75]
	and	bl, BYTE PTR [rsi+74]
	mov	rcx, QWORD PTR [rsi+88]
	movzx	edx, bp
	call	?readmemory@bus@@QEAAEH@Z		; bus::readmemory
	movzx	r8d, bl

; 878  : 			regs.pc++;
; 879  : 			actualticks += 3;
; 880  : 			break;

	jmp	SHORT $LN1852@rundevice_
$LN158@rundevice_:

; 881  : 		}
; 882  : 		case 0x88: { // dey
; 883  : 			regs.y = opc_dec(regs.y);

	movzx	edx, BYTE PTR [rsi+76]
	mov	rcx, rsi
	call	?opc_dec@cpu2a03_fast@@AEAAEE@Z		; cpu2a03_fast::opc_dec
	mov	BYTE PTR [rsi+76], al

; 884  : 			actualticks += 2;

	mov	edi, 2

; 885  : 			break;

	jmp	$LN2@rundevice_
$LN159@rundevice_:

; 886  : 		}
; 887  : 		case 0x8a: { // txa
; 888  : 			actualticks += 2;
; 889  : 			regs.ac = regs.x;

	movzx	edx, BYTE PTR [rsi+75]
$LN1858@rundevice_:

; 1595 : 			opc_sbc(t);
; 1596 : 			regs.pc += 2;
; 1597 : 			actualticks += 7;
; 1598 : 			break;
; 1599 : 		}
; 1600 : 	}
; 1601 : 	return actualticks * tick_rate;

	mov	BYTE PTR [rsi+74], dl
$LN1861@rundevice_:
	movzx	eax, BYTE PTR [rsi+78]
	mov	edi, 2
	and	eax, 125				; 0000007dH
	test	dl, dl
	jns	SHORT $LN327@rundevice_
	bts	eax, 7
$LN327@rundevice_:
	movzx	ecx, al
	test	dl, dl
	jne	SHORT $LN329@rundevice_
	or	ecx, edi
$LN329@rundevice_:
	mov	BYTE PTR [rsi+78], cl
	jmp	$LN2@rundevice_
$LN161@rundevice_:

; 890  : 			regs.sr &= 0xFF - (cf_negative | cf_zero);
; 891  : 			regs.sr = regs.ac & 0x80 ? regs.sr | cf_negative : regs.sr;
; 892  : 			regs.sr = !regs.ac ? regs.sr | cf_zero : regs.sr;
; 893  : 			break;
; 894  : 		}
; 895  : 		case 0x8b: {
; 896  : 			error_state = true;
; 897  : 			break;
; 898  : 		}
; 899  : 		case 0x8c: {
; 900  : 			mbus->writememory(_mem_absolute, regs.y);

	mov	rcx, QWORD PTR [rsi+88]
	movzx	edx, bp
	call	?readmemory_as_word@bus@@QEAAGH@Z	; bus::readmemory_as_word
	movzx	r8d, BYTE PTR [rsi+76]
	mov	rcx, QWORD PTR [rsi+88]
	movzx	edx, ax
	call	?writememory@bus@@QEAAXHE@Z		; bus::writememory

; 901  : 			regs.pc += 2;
; 902  : 			actualticks += 4;

	mov	edi, 4

; 903  : 			break;

	jmp	$LN1797@rundevice_
$LN162@rundevice_:

; 904  : 		}
; 905  : 		case 0x8d: {
; 906  : 			mbus->writememory(_mem_absolute, regs.ac);

	mov	rcx, QWORD PTR [rsi+88]
	movzx	edx, bp
	call	?readmemory_as_word@bus@@QEAAGH@Z	; bus::readmemory_as_word
	movzx	r8d, BYTE PTR [rsi+74]
	mov	rcx, QWORD PTR [rsi+88]
	movzx	edx, ax
	call	?writememory@bus@@QEAAXHE@Z		; bus::writememory

; 907  : 			regs.pc += 2;
; 908  : 			actualticks += 4;

	mov	edi, 4

; 909  : 			break;

	jmp	$LN1797@rundevice_
$LN163@rundevice_:

; 910  : 		}
; 911  : 		case 0x8e: {
; 912  : 			mbus->writememory(_mem_absolute, regs.x);

	mov	rcx, QWORD PTR [rsi+88]
	movzx	edx, bp
	call	?readmemory_as_word@bus@@QEAAGH@Z	; bus::readmemory_as_word
	movzx	r8d, BYTE PTR [rsi+75]
	mov	rcx, QWORD PTR [rsi+88]
	movzx	edx, ax
	call	?writememory@bus@@QEAAXHE@Z		; bus::writememory

; 913  : 			regs.pc += 2;
; 914  : 			actualticks += 4;

	mov	edi, 4

; 915  : 			break;

	jmp	$LN1797@rundevice_
$LN164@rundevice_:

; 916  : 		}
; 917  : 		case 0x8f: {
; 918  : 			mbus->writememory(_mem_absolute, regs.ac & regs.x);

	movzx	ebx, BYTE PTR [rsi+75]
	mov	rcx, QWORD PTR [rsi+88]
	and	bl, BYTE PTR [rsi+74]
	movzx	edx, bp
	call	?readmemory_as_word@bus@@QEAAGH@Z	; bus::readmemory_as_word
	mov	rcx, QWORD PTR [rsi+88]
	movzx	r8d, bl
	movzx	edx, ax
	call	?writememory@bus@@QEAAXHE@Z		; bus::writememory

; 919  : 			regs.pc += 2;
; 920  : 			actualticks += 4;

	mov	edi, 4

; 921  : 			break;

	jmp	$LN1797@rundevice_
$LN165@rundevice_:

; 922  : 		}
; 923  : 		case 0x90: { // bcc
; 924  : 			actualticks += 2;
; 925  : 			if (!(regs.sr & cf_carry)) {

	test	BYTE PTR [rsi+78], 1
	mov	edi, 2
	jne	$LN26@rundevice_
$LN1854@rundevice_:

; 1595 : 			opc_sbc(t);
; 1596 : 			regs.pc += 2;
; 1597 : 			actualticks += 7;
; 1598 : 			break;
; 1599 : 		}
; 1600 : 	}
; 1601 : 	return actualticks * tick_rate;

	mov	rcx, QWORD PTR [rsi+88]
	movzx	edx, bp
	call	?readmemory@bus@@QEAAEH@Z		; bus::readmemory
	movzx	edx, WORD PTR [rsi+72]
	movzx	ebx, al
	mov	rcx, QWORD PTR [rsi+88]
	call	?readmemory@bus@@QEAAEH@Z		; bus::readmemory
	movzx	r8d, WORD PTR [rsi+72]
	mov	ebp, 65280				; 0000ff00H
	movzx	eax, al
	mov	ecx, r8d
	and	bl, 128					; 00000080H
	jne	SHORT $LN331@rundevice_
	inc	eax
	add	eax, ecx
	jmp	SHORT $LN332@rundevice_
$LN331@rundevice_:
	mov	edx, -1
	sub	edx, eax
	mov	eax, ecx
	and	edx, 127				; 0000007fH
	sub	eax, edx
	and	eax, ebp
$LN332@rundevice_:
	xor	edi, edi
	and	r8d, ebp
	cmp	r8d, eax
	mov	edx, ecx
	mov	rcx, QWORD PTR [rsi+88]
	setne	dil
	add	edi, 3
	call	?readmemory@bus@@QEAAEH@Z		; bus::readmemory
	movzx	edx, WORD PTR [rsi+72]
	movzx	ebx, al
	mov	rcx, QWORD PTR [rsi+88]
	call	?readmemory@bus@@QEAAEH@Z		; bus::readmemory
	movzx	ebp, al
	movzx	eax, WORD PTR [rsi+72]
	and	bl, 128					; 00000080H
	je	$LN1841@rundevice_
	mov	ecx, 65535				; 0000ffffH
	sub	cx, bp
	movzx	ebp, ax
	and	cx, 127					; 0000007fH
	sub	bp, cx
	mov	WORD PTR [rsi+72], bp
	jmp	$LN2@rundevice_
$LN169@rundevice_:

; 926  : 				actualticks++;
; 927  : 				if ((regs.pc & 0xFF00) != (_mem_relative & 0xFF00)) actualticks++;
; 928  : 				regs.pc = _mem_relative;				
; 929  : 			} else regs.pc++;
; 930  : 			break;
; 931  : 		}
; 932  : 		case 0x91: {
; 933  : 			mbus->writememory(_mem_index_y, regs.ac);

	mov	rcx, QWORD PTR [rsi+88]
	movzx	edx, bp
	call	?readmemory@bus@@QEAAEH@Z		; bus::readmemory
	mov	rcx, QWORD PTR [rsi+88]
	movzx	edx, al
	call	?readmemory_as_word_wrap@bus@@QEAAGH@Z	; bus::readmemory_as_word_wrap
	movzx	ecx, BYTE PTR [rsi+76]
	add	ax, cx

; 934  : 			regs.pc++;
; 935  : 			actualticks += 6;
; 936  : 			break;

	jmp	$LN1833@rundevice_
$LN171@rundevice_:

; 937  : 		}
; 938  : 		case 0x92: case 0x93: {
; 939  : 			error_state = true;
; 940  : 			break;
; 941  : 		}
; 942  : 		case 0x94: {
; 943  : 			mbus->writememory(_mem_zero_x, regs.y);

	mov	rcx, QWORD PTR [rsi+88]
	movzx	edx, bp
	call	?readmemory@bus@@QEAAEH@Z		; bus::readmemory
	movzx	r8d, BYTE PTR [rsi+76]
$LN1855@rundevice_:

; 1595 : 			opc_sbc(t);
; 1596 : 			regs.pc += 2;
; 1597 : 			actualticks += 7;
; 1598 : 			break;
; 1599 : 		}
; 1600 : 	}
; 1601 : 	return actualticks * tick_rate;

	movzx	ecx, BYTE PTR [rsi+75]
$LN1856@rundevice_:
	add	ecx, eax
	movzx	edx, cl
$LN1821@rundevice_:
	mov	rcx, QWORD PTR [rsi+88]
	call	?writememory@bus@@QEAAXHE@Z		; bus::writememory
	inc	WORD PTR [rsi+72]
	mov	edi, 4
	jmp	$LN2@rundevice_
$LN172@rundevice_:

; 944  : 			regs.pc++;
; 945  : 			actualticks += 4;
; 946  : 			break;
; 947  : 		}
; 948  : 		case 0x95: {
; 949  : 			mbus->writememory(_mem_zero_x, regs.ac);

	mov	rcx, QWORD PTR [rsi+88]
	movzx	edx, bp
	call	?readmemory@bus@@QEAAEH@Z		; bus::readmemory
	movzx	r8d, BYTE PTR [rsi+74]

; 950  : 			regs.pc++;
; 951  : 			actualticks += 4;
; 952  : 			break;

	jmp	SHORT $LN1855@rundevice_
$LN173@rundevice_:

; 953  : 		}
; 954  : 		case 0x96: {
; 955  : 			mbus->writememory(_mem_zero_y, regs.x);

	mov	rcx, QWORD PTR [rsi+88]
	movzx	edx, bp
	call	?readmemory@bus@@QEAAEH@Z		; bus::readmemory
	movzx	ecx, BYTE PTR [rsi+76]
	movzx	r8d, BYTE PTR [rsi+75]

; 956  : 			regs.pc++;
; 957  : 			actualticks += 4;
; 958  : 			break;

	jmp	SHORT $LN1856@rundevice_
$LN174@rundevice_:

; 959  : 		}
; 960  : 		case 0x97: {
; 961  : 			mbus->writememory(_mem_zero_y, regs.ac & regs.x);

	mov	rcx, QWORD PTR [rsi+88]
	movzx	edx, bp
	call	?readmemory@bus@@QEAAEH@Z		; bus::readmemory
	movzx	r8d, BYTE PTR [rsi+75]
	and	r8b, BYTE PTR [rsi+74]
	movzx	ecx, al
	movzx	eax, BYTE PTR [rsi+76]
	add	eax, ecx
	movzx	edx, al

; 962  : 			regs.pc++;
; 963  : 			actualticks += 4;
; 964  : 			break;

	jmp	SHORT $LN1821@rundevice_
$LN175@rundevice_:

; 965  : 		}
; 966  : 		case 0x98: { // tya
; 967  : 			actualticks += 2;
; 968  : 			regs.ac = regs.y;

	movzx	edx, BYTE PTR [rsi+76]

; 969  : 			regs.sr &= 0xFF - (cf_negative | cf_zero);
; 970  : 			regs.sr = regs.ac & 0x80 ? regs.sr | cf_negative : regs.sr;
; 971  : 			regs.sr = !regs.ac ? regs.sr | cf_zero : regs.sr;
; 972  : 			break;

	jmp	$LN1858@rundevice_
$LN176@rundevice_:

; 973  : 		}
; 974  : 		case 0x99: {
; 975  : 			mbus->writememory(_mem_absolute_y, regs.ac);

	mov	rcx, QWORD PTR [rsi+88]
	movzx	edx, bp
	call	?readmemory_as_word@bus@@QEAAGH@Z	; bus::readmemory_as_word
	movzx	ecx, BYTE PTR [rsi+76]
$LN1805@rundevice_:

; 1595 : 			opc_sbc(t);
; 1596 : 			regs.pc += 2;
; 1597 : 			actualticks += 7;
; 1598 : 			break;
; 1599 : 		}
; 1600 : 	}
; 1601 : 	return actualticks * tick_rate;

	movzx	r8d, BYTE PTR [rsi+74]
$LN1859@rundevice_:
	add	ax, cx
	mov	rcx, QWORD PTR [rsi+88]
	movzx	edx, ax
	call	?writememory@bus@@QEAAXHE@Z		; bus::writememory
	mov	edi, 5
	jmp	$LN1797@rundevice_
$LN177@rundevice_:

; 976  : 			regs.pc += 2;
; 977  : 			actualticks += 5;
; 978  : 			break;
; 979  : 
; 980  : 		}
; 981  : 		case 0x9a: {	// txs
; 982  : 			actualticks += 2;
; 983  : 			regs.sp = regs.x;

	movzx	eax, BYTE PTR [rsi+75]
	mov	edi, 2
	mov	BYTE PTR [rsi+77], al

; 984  : 			break;

	jmp	$LN2@rundevice_
$LN179@rundevice_:

; 985  : 		}
; 986  : 		case 0x9b: {
; 987  : 			error_state = true;
; 988  : 			break;
; 989  : 		}
; 990  : 		case 0x9c: {	// keeps failing 07-abs_xy.nes test, everything documented tells me this is right.
; 991  : 			byte hb = (_mem_absolute >> 8);

	mov	rcx, QWORD PTR [rsi+88]
	movzx	edx, bp
	call	?readmemory_as_word@bus@@QEAAGH@Z	; bus::readmemory_as_word

; 992  : 			mbus->writememory(_mem_absolute_x, regs.y & (hb + 1));

	movzx	edx, WORD PTR [rsi+72]
	movzx	ebx, ax
	mov	rcx, QWORD PTR [rsi+88]
	shr	bx, 8
	inc	bl
	and	bl, BYTE PTR [rsi+76]
	call	?readmemory_as_word@bus@@QEAAGH@Z	; bus::readmemory_as_word
	movzx	ecx, BYTE PTR [rsi+75]
	movzx	r8d, bl
	add	ax, cx
	mov	rcx, QWORD PTR [rsi+88]
	movzx	edx, ax
	call	?writememory@bus@@QEAAXHE@Z		; bus::writememory

; 993  : 			regs.pc += 2;
; 994  : 			actualticks += 5;

	mov	edi, 5

; 995  : 			break;

	jmp	$LN1797@rundevice_
$LN180@rundevice_:

; 996  : 		}
; 997  : 		case 0x9d: {
; 998  : 			mbus->writememory(_mem_absolute_x, regs.ac);

	mov	rcx, QWORD PTR [rsi+88]
	movzx	edx, bp
	call	?readmemory_as_word@bus@@QEAAGH@Z	; bus::readmemory_as_word
	movzx	ecx, BYTE PTR [rsi+75]

; 999  : 			regs.pc += 2;
; 1000 : 			actualticks += 5;
; 1001 : 			break;

	jmp	$LN1805@rundevice_
$LN181@rundevice_:

; 1002 : 		}
; 1003 : 		case 0x9e: {	// keeps failing 07 - abs_xy.nes test, everything documented tells me this is right.
; 1004 : 			byte hb = (_mem_absolute >> 8);

	mov	rcx, QWORD PTR [rsi+88]
	movzx	edx, bp
	call	?readmemory_as_word@bus@@QEAAGH@Z	; bus::readmemory_as_word

; 1005 : 			mbus->writememory(_mem_absolute_y, regs.x & (hb + 1));

	movzx	edx, WORD PTR [rsi+72]
	movzx	ebx, ax
	mov	rcx, QWORD PTR [rsi+88]
	shr	bx, 8
	inc	bl
	and	bl, BYTE PTR [rsi+75]
	call	?readmemory_as_word@bus@@QEAAGH@Z	; bus::readmemory_as_word
	movzx	ecx, BYTE PTR [rsi+76]
	movzx	r8d, bl

; 1006 : 			regs.pc += 2;
; 1007 : 			actualticks += 5;
; 1008 : 			break;

	jmp	$LN1859@rundevice_
$LN183@rundevice_:

; 1009 : 		}
; 1010 : 		case 0x9f:  {
; 1011 : 			error_state = true;
; 1012 : 			break;
; 1013 : 		}
; 1014 : 		case 0xa0: {
; 1015 : 			opc_ld_(regs.y, mbus->readmemory(_mem_immediate));

	mov	rcx, QWORD PTR [rsi+88]
	movzx	edx, bp
	call	?readmemory@bus@@QEAAEH@Z		; bus::readmemory
	lea	rdx, QWORD PTR [rsi+76]
$LN1860@rundevice_:

; 1595 : 			opc_sbc(t);
; 1596 : 			regs.pc += 2;
; 1597 : 			actualticks += 7;
; 1598 : 			break;
; 1599 : 		}
; 1600 : 	}
; 1601 : 	return actualticks * tick_rate;

	movzx	r8d, al
	mov	rcx, rsi
	call	?opc_ld_@cpu2a03_fast@@AEAAXAEAEE@Z	; cpu2a03_fast::opc_ld_
	inc	WORD PTR [rsi+72]
	mov	edi, 2
	jmp	$LN2@rundevice_
$LN184@rundevice_:

; 1016 : 			regs.pc++;
; 1017 : 			actualticks += 2;
; 1018 : 			break;
; 1019 : 		}
; 1020 : 		case 0xa1: {
; 1021 : 			opc_ld_(regs.ac, mbus->readmemory(_mem_index_x));

	mov	rcx, QWORD PTR [rsi+88]
	movzx	edx, bp
	call	?readmemory@bus@@QEAAEH@Z		; bus::readmemory
	movzx	ecx, BYTE PTR [rsi+75]
	add	ecx, eax
	movzx	edx, cl
	mov	rcx, QWORD PTR [rsi+88]
	call	?readmemory_as_word_wrap@bus@@QEAAGH@Z	; bus::readmemory_as_word_wrap
	mov	rcx, QWORD PTR [rsi+88]
	movzx	edx, ax
	call	?readmemory@bus@@QEAAEH@Z		; bus::readmemory
	movzx	r8d, al
	lea	rdx, QWORD PTR [rsi+74]
	mov	rcx, rsi
	call	?opc_ld_@cpu2a03_fast@@AEAAXAEAEE@Z	; cpu2a03_fast::opc_ld_

; 1595 : 			opc_sbc(t);
; 1596 : 			regs.pc += 2;
; 1597 : 			actualticks += 7;
; 1598 : 			break;
; 1599 : 		}
; 1600 : 	}
; 1601 : 	return actualticks * tick_rate;

	inc	WORD PTR [rsi+72]
	mov	edi, 6
	jmp	$LN2@rundevice_
$LN185@rundevice_:

; 1022 : 			regs.pc++;
; 1023 : 			actualticks += 6;
; 1024 : 			break;
; 1025 : 		}
; 1026 : 		case 0xa2: {
; 1027 : 			opc_ld_(regs.x, mbus->readmemory(_mem_immediate));

	mov	rcx, QWORD PTR [rsi+88]
	movzx	edx, bp
	call	?readmemory@bus@@QEAAEH@Z		; bus::readmemory
	lea	rdx, QWORD PTR [rsi+75]

; 1028 : 			regs.pc++;
; 1029 : 			actualticks += 2;
; 1030 : 			break;

	jmp	SHORT $LN1860@rundevice_
$LN186@rundevice_:

; 1031 : 		}
; 1032 : 		case 0xa3: {
; 1033 : 			opc_ld_(regs.ac, mbus->readmemory(_mem_index_x));

	mov	rcx, QWORD PTR [rsi+88]
	movzx	edx, bp
	call	?readmemory@bus@@QEAAEH@Z		; bus::readmemory
	movzx	ecx, al
	movzx	eax, BYTE PTR [rsi+75]
	add	eax, ecx
	mov	rcx, QWORD PTR [rsi+88]
	movzx	edx, al
	call	?readmemory_as_word_wrap@bus@@QEAAGH@Z	; bus::readmemory_as_word_wrap
	mov	rcx, QWORD PTR [rsi+88]
	movzx	edx, ax
	call	?readmemory@bus@@QEAAEH@Z		; bus::readmemory
	movzx	r8d, al
	lea	rdx, QWORD PTR [rsi+74]
	mov	rcx, rsi
	call	?opc_ld_@cpu2a03_fast@@AEAAXAEAEE@Z	; cpu2a03_fast::opc_ld_

; 1034 : 			regs.x = regs.ac;

	movzx	eax, BYTE PTR [rsi+74]

; 1595 : 			opc_sbc(t);
; 1596 : 			regs.pc += 2;
; 1597 : 			actualticks += 7;
; 1598 : 			break;
; 1599 : 		}
; 1600 : 	}
; 1601 : 	return actualticks * tick_rate;

	mov	edi, 6
	inc	WORD PTR [rsi+72]
	mov	BYTE PTR [rsi+75], al
	jmp	$LN2@rundevice_
$LN187@rundevice_:

; 1035 : 			regs.pc++;
; 1036 : 			actualticks += 6;
; 1037 : 			break;
; 1038 : 		}
; 1039 : 		case 0xa4: {
; 1040 : 			opc_ld_(regs.y, mbus->readmemory(_mem_zero));

	mov	rcx, QWORD PTR [rsi+88]
	movzx	edx, bp
	call	?readmemory@bus@@QEAAEH@Z		; bus::readmemory
	movzx	edx, al
$LN1851@rundevice_:

; 1595 : 			opc_sbc(t);
; 1596 : 			regs.pc += 2;
; 1597 : 			actualticks += 7;
; 1598 : 			break;
; 1599 : 		}
; 1600 : 	}
; 1601 : 	return actualticks * tick_rate;

	mov	rcx, QWORD PTR [rsi+88]
	call	?readmemory@bus@@QEAAEH@Z		; bus::readmemory
	movzx	r8d, al
	lea	rdx, QWORD PTR [rsi+76]
	mov	rcx, rsi
	call	?opc_ld_@cpu2a03_fast@@AEAAXAEAEE@Z	; cpu2a03_fast::opc_ld_
	inc	WORD PTR [rsi+72]
	mov	edi, 3
	jmp	$LN2@rundevice_
$LN188@rundevice_:

; 1041 : 			regs.pc++;
; 1042 : 			actualticks += 3;
; 1043 : 			break;
; 1044 : 		}
; 1045 : 		case 0xa5: {
; 1046 : 			opc_ld_(regs.ac, mbus->readmemory(_mem_zero));

	mov	rcx, QWORD PTR [rsi+88]
	movzx	edx, bp
	call	?readmemory@bus@@QEAAEH@Z		; bus::readmemory
	mov	rcx, QWORD PTR [rsi+88]
	movzx	edx, al
	call	?readmemory@bus@@QEAAEH@Z		; bus::readmemory
	movzx	r8d, al
	lea	rdx, QWORD PTR [rsi+74]
	mov	rcx, rsi
	call	?opc_ld_@cpu2a03_fast@@AEAAXAEAEE@Z	; cpu2a03_fast::opc_ld_

; 1595 : 			opc_sbc(t);
; 1596 : 			regs.pc += 2;
; 1597 : 			actualticks += 7;
; 1598 : 			break;
; 1599 : 		}
; 1600 : 	}
; 1601 : 	return actualticks * tick_rate;

	inc	WORD PTR [rsi+72]
	mov	edi, 3
	jmp	$LN2@rundevice_
$LN189@rundevice_:

; 1047 : 			regs.pc++;
; 1048 : 			actualticks += 3;
; 1049 : 			break;
; 1050 : 		}
; 1051 : 		case 0xa6: {
; 1052 : 			opc_ld_(regs.x, mbus->readmemory(_mem_zero));

	mov	rcx, QWORD PTR [rsi+88]
	movzx	edx, bp
	call	?readmemory@bus@@QEAAEH@Z		; bus::readmemory
	mov	rcx, QWORD PTR [rsi+88]
	movzx	edx, al
	call	?readmemory@bus@@QEAAEH@Z		; bus::readmemory
	movzx	r8d, al
	lea	rdx, QWORD PTR [rsi+75]
	mov	rcx, rsi
	call	?opc_ld_@cpu2a03_fast@@AEAAXAEAEE@Z	; cpu2a03_fast::opc_ld_

; 1595 : 			opc_sbc(t);
; 1596 : 			regs.pc += 2;
; 1597 : 			actualticks += 7;
; 1598 : 			break;
; 1599 : 		}
; 1600 : 	}
; 1601 : 	return actualticks * tick_rate;

	inc	WORD PTR [rsi+72]
	mov	edi, 3
	jmp	$LN2@rundevice_
$LN190@rundevice_:

; 1053 : 			regs.pc++;
; 1054 : 			actualticks += 3;
; 1055 : 			break;
; 1056 : 		}
; 1057 : 		case 0xa7: {
; 1058 : 			opc_ld_(regs.ac, mbus->readmemory(_mem_zero));

	mov	rcx, QWORD PTR [rsi+88]
	movzx	edx, bp
	call	?readmemory@bus@@QEAAEH@Z		; bus::readmemory
	mov	rcx, QWORD PTR [rsi+88]
	movzx	edx, al
	call	?readmemory@bus@@QEAAEH@Z		; bus::readmemory
	movzx	r8d, al
	lea	rdx, QWORD PTR [rsi+74]
	mov	rcx, rsi
	call	?opc_ld_@cpu2a03_fast@@AEAAXAEAEE@Z	; cpu2a03_fast::opc_ld_

; 1059 : 			regs.x = regs.ac;

	movzx	eax, BYTE PTR [rsi+74]

; 1595 : 			opc_sbc(t);
; 1596 : 			regs.pc += 2;
; 1597 : 			actualticks += 7;
; 1598 : 			break;
; 1599 : 		}
; 1600 : 	}
; 1601 : 	return actualticks * tick_rate;

	mov	edi, 3
	inc	WORD PTR [rsi+72]
	mov	BYTE PTR [rsi+75], al
	jmp	$LN2@rundevice_
$LN191@rundevice_:

; 1060 : 			regs.pc++;
; 1061 : 			actualticks += 3;
; 1062 : 			break;
; 1063 : 		}
; 1064 : 		case 0xa8: { // tay
; 1065 : 			actualticks += 2;
; 1066 : 			regs.y = regs.ac;

	movzx	edx, BYTE PTR [rsi+74]
	mov	BYTE PTR [rsi+76], dl

; 1067 : 			regs.sr &= 0xFF - (cf_negative | cf_zero);
; 1068 : 			regs.sr = regs.y & 0x80 ? regs.sr | cf_negative : regs.sr;
; 1069 : 			regs.sr = !regs.y ? regs.sr | cf_zero : regs.sr;
; 1070 : 			break;

	jmp	$LN1861@rundevice_
$LN192@rundevice_:

; 1071 : 		}
; 1072 : 		case 0xa9: {
; 1073 : 			opc_ld_(regs.ac, mbus->readmemory(_mem_immediate));

	mov	rcx, QWORD PTR [rsi+88]
	movzx	edx, bp
	call	?readmemory@bus@@QEAAEH@Z		; bus::readmemory
	lea	rdx, QWORD PTR [rsi+74]

; 1074 : 			regs.pc++;
; 1075 : 			actualticks += 2;
; 1076 : 			break;

	jmp	$LN1860@rundevice_
$LN193@rundevice_:

; 1077 : 		}
; 1078 : 		case 0xaa: { // tax
; 1079 : 			actualticks += 2;
; 1080 : 			regs.x = regs.ac;

	movzx	edx, BYTE PTR [rsi+74]

; 1595 : 			opc_sbc(t);
; 1596 : 			regs.pc += 2;
; 1597 : 			actualticks += 7;
; 1598 : 			break;
; 1599 : 		}
; 1600 : 	}
; 1601 : 	return actualticks * tick_rate;

	mov	BYTE PTR [rsi+75], dl
	jmp	$LN1861@rundevice_
$LN194@rundevice_:

; 1081 : 			regs.sr &= 0xFF - (cf_negative | cf_zero);
; 1082 : 			regs.sr = regs.x & 0x80 ? regs.sr | cf_negative : regs.sr;
; 1083 : 			regs.sr = !regs.x ? regs.sr | cf_zero : regs.sr;
; 1084 : 			break;
; 1085 : 		}
; 1086 : 		case 0xab: { // atx
; 1087 : 			opc_ld_(regs.ac, mbus->readmemory(_mem_immediate));

	mov	rcx, QWORD PTR [rsi+88]
	movzx	edx, bp
	call	?readmemory@bus@@QEAAEH@Z		; bus::readmemory
	movzx	r8d, al
	lea	rdx, QWORD PTR [rsi+74]
	mov	rcx, rsi
	call	?opc_ld_@cpu2a03_fast@@AEAAXAEAEE@Z	; cpu2a03_fast::opc_ld_

; 1088 : 			regs.x = regs.ac;

	movzx	eax, BYTE PTR [rsi+74]

; 1595 : 			opc_sbc(t);
; 1596 : 			regs.pc += 2;
; 1597 : 			actualticks += 7;
; 1598 : 			break;
; 1599 : 		}
; 1600 : 	}
; 1601 : 	return actualticks * tick_rate;

	mov	edi, 2
	inc	WORD PTR [rsi+72]
	mov	BYTE PTR [rsi+75], al
	jmp	$LN2@rundevice_
$LN195@rundevice_:

; 1089 : 			regs.pc++;
; 1090 : 			actualticks += 2;
; 1091 : 			break;
; 1092 : 		}
; 1093 : 		case 0xac: {
; 1094 : 			opc_ld_(regs.y, mbus->readmemory(_mem_absolute));

	mov	rcx, QWORD PTR [rsi+88]
	movzx	edx, bp
	call	?readmemory_as_word@bus@@QEAAGH@Z	; bus::readmemory_as_word
	mov	rcx, QWORD PTR [rsi+88]
	movzx	edx, ax
	call	?readmemory@bus@@QEAAEH@Z		; bus::readmemory
	movzx	r8d, al
	lea	rdx, QWORD PTR [rsi+76]
	mov	rcx, rsi
	call	?opc_ld_@cpu2a03_fast@@AEAAXAEAEE@Z	; cpu2a03_fast::opc_ld_

; 1095 : 			regs.pc += 2;
; 1096 : 			actualticks += 4;

	mov	edi, 4

; 1097 : 			break;

	jmp	$LN1797@rundevice_
$LN196@rundevice_:

; 1098 : 		}
; 1099 : 		case 0xad: {
; 1100 : 			opc_ld_(regs.ac, mbus->readmemory(_mem_absolute));

	mov	rcx, QWORD PTR [rsi+88]
	movzx	edx, bp
	call	?readmemory_as_word@bus@@QEAAGH@Z	; bus::readmemory_as_word
	mov	rcx, QWORD PTR [rsi+88]
	movzx	edx, ax
	call	?readmemory@bus@@QEAAEH@Z		; bus::readmemory
	movzx	r8d, al
	lea	rdx, QWORD PTR [rsi+74]
	mov	rcx, rsi
	call	?opc_ld_@cpu2a03_fast@@AEAAXAEAEE@Z	; cpu2a03_fast::opc_ld_

; 1101 : 			regs.pc += 2;
; 1102 : 			actualticks += 4;

	mov	edi, 4

; 1103 : 			break;

	jmp	$LN1797@rundevice_
$LN197@rundevice_:

; 1104 : 		}
; 1105 : 		case 0xae: {
; 1106 : 			opc_ld_(regs.x, mbus->readmemory(_mem_absolute));

	mov	rcx, QWORD PTR [rsi+88]
	movzx	edx, bp
	call	?readmemory_as_word@bus@@QEAAGH@Z	; bus::readmemory_as_word
	mov	rcx, QWORD PTR [rsi+88]
	movzx	edx, ax
	call	?readmemory@bus@@QEAAEH@Z		; bus::readmemory
	movzx	r8d, al
	lea	rdx, QWORD PTR [rsi+75]
	mov	rcx, rsi
	call	?opc_ld_@cpu2a03_fast@@AEAAXAEAEE@Z	; cpu2a03_fast::opc_ld_

; 1107 : 			regs.pc += 2;
; 1108 : 			actualticks += 4;

	mov	edi, 4

; 1109 : 			break;

	jmp	$LN1797@rundevice_
$LN198@rundevice_:

; 1110 : 		}
; 1111 : 		case 0xaf: {
; 1112 : 			opc_ld_(regs.ac, mbus->readmemory(_mem_absolute));

	mov	rcx, QWORD PTR [rsi+88]
	movzx	edx, bp
	call	?readmemory_as_word@bus@@QEAAGH@Z	; bus::readmemory_as_word
	mov	rcx, QWORD PTR [rsi+88]
	movzx	edx, ax
	call	?readmemory@bus@@QEAAEH@Z		; bus::readmemory
	movzx	r8d, al
	lea	rdx, QWORD PTR [rsi+74]
	mov	rcx, rsi
	call	?opc_ld_@cpu2a03_fast@@AEAAXAEAEE@Z	; cpu2a03_fast::opc_ld_

; 1113 : 			regs.x = regs.ac;

	movzx	eax, BYTE PTR [rsi+74]

; 1114 : 			regs.pc += 2;
; 1115 : 			actualticks += 4;

	mov	edi, 4
	mov	BYTE PTR [rsi+75], al

; 1116 : 			break;			

	jmp	$LN1797@rundevice_
$LN199@rundevice_:

; 1117 : 		}
; 1118 : 		case 0xb0: { //bcs
; 1119 : 			actualticks += 2;
; 1120 : 			if (regs.sr & cf_carry) {

	test	BYTE PTR [rsi+78], 1
	mov	edi, 2
	je	$LN26@rundevice_

; 1121 : 				actualticks++;
; 1122 : 				if ((regs.pc & 0xFF00) != (_mem_relative & 0xFF00)) actualticks++;

	jmp	$LN1854@rundevice_
$LN203@rundevice_:

; 1123 : 				regs.pc = _mem_relative;
; 1124 : 			} else regs.pc++;
; 1125 : 			break;
; 1126 : 		}
; 1127 : 		case 0xb1: {
; 1128 : 			opc_ld_(regs.ac, mbus->readmemory(_mem_index_y));

	mov	rcx, QWORD PTR [rsi+88]
	movzx	edx, bp
	call	?readmemory@bus@@QEAAEH@Z		; bus::readmemory
	mov	rcx, QWORD PTR [rsi+88]
	movzx	edx, al
	call	?readmemory_as_word_wrap@bus@@QEAAGH@Z	; bus::readmemory_as_word_wrap
	movzx	ecx, BYTE PTR [rsi+76]
	add	ax, cx
	mov	rcx, QWORD PTR [rsi+88]
	movzx	edx, ax
	call	?readmemory@bus@@QEAAEH@Z		; bus::readmemory
	movzx	r8d, al
	lea	rdx, QWORD PTR [rsi+74]
	mov	rcx, rsi
	call	?opc_ld_@cpu2a03_fast@@AEAAXAEAEE@Z	; cpu2a03_fast::opc_ld_

; 1129 : 			regs.pc++;

	inc	WORD PTR [rsi+72]
	movzx	edx, WORD PTR [rsi+72]

; 1130 : 			actualticks += 5;
; 1131 : 			if (_mem_index_y_inc) actualticks++;

	mov	rcx, QWORD PTR [rsi+88]
	call	?readmemory@bus@@QEAAEH@Z		; bus::readmemory
	mov	rcx, QWORD PTR [rsi+88]
	movzx	edx, al
	call	?readmemory_as_word_wrap@bus@@QEAAGH@Z	; bus::readmemory_as_word_wrap
	movzx	ebx, BYTE PTR [rsi+76]
	mov	ebp, 65280				; 0000ff00H
	movzx	edx, WORD PTR [rsi+72]
	mov	rcx, QWORD PTR [rsi+88]
	movzx	eax, ax
	add	ebx, eax
	and	ebx, ebp
	call	?readmemory@bus@@QEAAEH@Z		; bus::readmemory
	mov	rcx, QWORD PTR [rsi+88]
	movzx	edx, al
	call	?readmemory_as_word_wrap@bus@@QEAAGH@Z	; bus::readmemory_as_word_wrap
	and	eax, ebp

; 1595 : 			opc_sbc(t);
; 1596 : 			regs.pc += 2;
; 1597 : 			actualticks += 7;
; 1598 : 			break;
; 1599 : 		}
; 1600 : 	}
; 1601 : 	return actualticks * tick_rate;

	cmp	eax, ebx
	setne	dil
	add	edi, 5
	jmp	$LN2@rundevice_
$LN206@rundevice_:

; 1132 : 			break;
; 1133 : 		}
; 1134 : 		case 0xb2: {
; 1135 : 			error_state = true;
; 1136 : 			break;
; 1137 : 		}
; 1138 : 		case 0xb3: {
; 1139 : 			opc_ld_(regs.ac, mbus->readmemory(_mem_index_y));

	mov	rcx, QWORD PTR [rsi+88]
	movzx	edx, bp
	call	?readmemory@bus@@QEAAEH@Z		; bus::readmemory
	mov	rcx, QWORD PTR [rsi+88]
	movzx	edx, al
	call	?readmemory_as_word_wrap@bus@@QEAAGH@Z	; bus::readmemory_as_word_wrap
	movzx	ecx, BYTE PTR [rsi+76]
	add	ax, cx
	mov	rcx, QWORD PTR [rsi+88]
	movzx	edx, ax
	call	?readmemory@bus@@QEAAEH@Z		; bus::readmemory
	movzx	r8d, al
	lea	rdx, QWORD PTR [rsi+74]
	mov	rcx, rsi
	call	?opc_ld_@cpu2a03_fast@@AEAAXAEAEE@Z	; cpu2a03_fast::opc_ld_

; 1140 : 			regs.pc++;
; 1141 : 			regs.x = regs.ac;

	movzx	eax, BYTE PTR [rsi+74]
	mov	BYTE PTR [rsi+75], al

; 1142 : 			actualticks += 5;
; 1143 : 			if (_mem_index_y_inc) actualticks++;
; 1144 : 			break;

	jmp	$LN1843@rundevice_
$LN208@rundevice_:

; 1145 : 		}
; 1146 : 		case 0xb4: {
; 1147 : 			opc_ld_(regs.y, mbus->readmemory(_mem_zero_x));

	mov	rcx, QWORD PTR [rsi+88]
	movzx	edx, bp
	call	?readmemory@bus@@QEAAEH@Z		; bus::readmemory
	movzx	ecx, BYTE PTR [rsi+75]
	add	ecx, eax
	movzx	edx, cl

; 1148 : 			regs.pc++;
; 1149 : 			actualticks += 3;
; 1150 : 			break;

	jmp	$LN1851@rundevice_
$LN209@rundevice_:

; 1151 : 		}
; 1152 : 		case 0xb5: {
; 1153 : 			opc_ld_(regs.ac, mbus->readmemory(_mem_zero_x));

	mov	rcx, QWORD PTR [rsi+88]
	movzx	edx, bp
	call	?readmemory@bus@@QEAAEH@Z		; bus::readmemory
	movzx	ecx, BYTE PTR [rsi+75]
	add	ecx, eax
	movzx	edx, cl
	mov	rcx, QWORD PTR [rsi+88]
	call	?readmemory@bus@@QEAAEH@Z		; bus::readmemory
	movzx	r8d, al
	lea	rdx, QWORD PTR [rsi+74]
	mov	rcx, rsi
	call	?opc_ld_@cpu2a03_fast@@AEAAXAEAEE@Z	; cpu2a03_fast::opc_ld_

; 1595 : 			opc_sbc(t);
; 1596 : 			regs.pc += 2;
; 1597 : 			actualticks += 7;
; 1598 : 			break;
; 1599 : 		}
; 1600 : 	}
; 1601 : 	return actualticks * tick_rate;

	inc	WORD PTR [rsi+72]
	mov	edi, 4
	jmp	$LN2@rundevice_
$LN210@rundevice_:

; 1154 : 			regs.pc++;
; 1155 : 			actualticks += 4;
; 1156 : 			break;
; 1157 : 		}
; 1158 : 		case 0xb6: {
; 1159 : 			opc_ld_(regs.x, mbus->readmemory(_mem_zero_y));

	mov	rcx, QWORD PTR [rsi+88]
	movzx	edx, bp
	call	?readmemory@bus@@QEAAEH@Z		; bus::readmemory
	movzx	ecx, BYTE PTR [rsi+76]
	add	ecx, eax
	movzx	edx, cl
	mov	rcx, QWORD PTR [rsi+88]
	call	?readmemory@bus@@QEAAEH@Z		; bus::readmemory
	movzx	r8d, al
	lea	rdx, QWORD PTR [rsi+75]
	mov	rcx, rsi
	call	?opc_ld_@cpu2a03_fast@@AEAAXAEAEE@Z	; cpu2a03_fast::opc_ld_

; 1595 : 			opc_sbc(t);
; 1596 : 			regs.pc += 2;
; 1597 : 			actualticks += 7;
; 1598 : 			break;
; 1599 : 		}
; 1600 : 	}
; 1601 : 	return actualticks * tick_rate;

	inc	WORD PTR [rsi+72]
	mov	edi, 4
	jmp	$LN2@rundevice_
$LN211@rundevice_:

; 1160 : 			regs.pc++;
; 1161 : 			actualticks += 4;
; 1162 : 			break;
; 1163 : 		}
; 1164 : 		case 0xb7: {
; 1165 : 			opc_ld_(regs.ac, mbus->readmemory(_mem_zero_y));

	mov	rcx, QWORD PTR [rsi+88]
	movzx	edx, bp
	call	?readmemory@bus@@QEAAEH@Z		; bus::readmemory
	movzx	ecx, al
	movzx	eax, BYTE PTR [rsi+76]
	add	eax, ecx
	mov	rcx, QWORD PTR [rsi+88]
	movzx	edx, al
	call	?readmemory@bus@@QEAAEH@Z		; bus::readmemory
	movzx	r8d, al
	lea	rdx, QWORD PTR [rsi+74]
	mov	rcx, rsi
	call	?opc_ld_@cpu2a03_fast@@AEAAXAEAEE@Z	; cpu2a03_fast::opc_ld_

; 1166 : 			regs.x = regs.ac;

	movzx	eax, BYTE PTR [rsi+74]

; 1595 : 			opc_sbc(t);
; 1596 : 			regs.pc += 2;
; 1597 : 			actualticks += 7;
; 1598 : 			break;
; 1599 : 		}
; 1600 : 	}
; 1601 : 	return actualticks * tick_rate;

	mov	edi, 4
	inc	WORD PTR [rsi+72]
	mov	BYTE PTR [rsi+75], al
	jmp	$LN2@rundevice_
$LN212@rundevice_:

; 1167 : 			regs.pc++;
; 1168 : 			actualticks += 4;
; 1169 : 			break;
; 1170 : 		}
; 1171 : 		case 0xb8: { // clv
; 1172 : 			regs.sr &= 0xFF - cf_overflow;

	and	BYTE PTR [rsi+78], 191			; 000000bfH

; 1595 : 			opc_sbc(t);
; 1596 : 			regs.pc += 2;
; 1597 : 			actualticks += 7;
; 1598 : 			break;
; 1599 : 		}
; 1600 : 	}
; 1601 : 	return actualticks * tick_rate;

	mov	edi, 2
	jmp	$LN2@rundevice_
$LN213@rundevice_:

; 1173 : 			actualticks += 2;
; 1174 : 			break;
; 1175 : 		}
; 1176 : 		case 0xb9: {
; 1177 : 			opc_ld_(regs.ac, mbus->readmemory(_mem_absolute_y));

	mov	rcx, QWORD PTR [rsi+88]
	movzx	edx, bp
	call	?readmemory_as_word@bus@@QEAAGH@Z	; bus::readmemory_as_word
	movzx	ecx, BYTE PTR [rsi+76]
	add	ax, cx
	mov	rcx, QWORD PTR [rsi+88]
	movzx	edx, ax
	call	?readmemory@bus@@QEAAEH@Z		; bus::readmemory
	movzx	r8d, al
	lea	rdx, QWORD PTR [rsi+74]
	mov	rcx, rsi
	call	?opc_ld_@cpu2a03_fast@@AEAAXAEAEE@Z	; cpu2a03_fast::opc_ld_

; 1178 : 			regs.pc += 2;
; 1179 : 			actualticks += 4;
; 1180 : 			if ((_mem_absolute & 0xFF00) != (_mem_absolute_y & 0xFF00)) actualticks++;
; 1181 : 			break;

	jmp	$LN1817@rundevice_
$LN215@rundevice_:

; 1182 : 		}
; 1183 : 		case 0xba: { //tsx
; 1184 : 			actualticks += 2;
; 1185 : 			regs.x = regs.sp;

	movzx	edx, BYTE PTR [rsi+77]

; 1595 : 			opc_sbc(t);
; 1596 : 			regs.pc += 2;
; 1597 : 			actualticks += 7;
; 1598 : 			break;
; 1599 : 		}
; 1600 : 	}
; 1601 : 	return actualticks * tick_rate;

	mov	BYTE PTR [rsi+75], dl
	jmp	$LN1861@rundevice_
$LN217@rundevice_:

; 1186 : 			regs.sr &= 0xFF - (cf_negative | cf_zero);
; 1187 : 			regs.sr = regs.x & 0x80 ? regs.sr | cf_negative : regs.sr;
; 1188 : 			regs.sr = !regs.x ? regs.sr | cf_zero : regs.sr;
; 1189 : 			break;
; 1190 : 		}
; 1191 : 		case 0xbb: {
; 1192 : 			error_state = true;
; 1193 : 			break;
; 1194 : 		}
; 1195 : 		case 0xbc: {
; 1196 : 			opc_ld_(regs.y, mbus->readmemory(_mem_absolute_x));

	mov	rcx, QWORD PTR [rsi+88]
	movzx	edx, bp
	call	?readmemory_as_word@bus@@QEAAGH@Z	; bus::readmemory_as_word
	movzx	ecx, BYTE PTR [rsi+75]
	add	ax, cx
	mov	rcx, QWORD PTR [rsi+88]
	movzx	edx, ax
	call	?readmemory@bus@@QEAAEH@Z		; bus::readmemory
	movzx	r8d, al
	lea	rdx, QWORD PTR [rsi+76]
	mov	rcx, rsi
	call	?opc_ld_@cpu2a03_fast@@AEAAXAEAEE@Z	; cpu2a03_fast::opc_ld_

; 1197 : 			regs.pc += 2;
; 1198 : 			actualticks += 4;
; 1199 : 			if ((_mem_absolute & 0xFF00) != (_mem_absolute_x & 0xFF00)) actualticks++;
; 1200 : 			break;

	jmp	$LN1845@rundevice_
$LN219@rundevice_:

; 1201 : 		}
; 1202 : 		case 0xbd: {
; 1203 : 			opc_ld_(regs.ac, mbus->readmemory(_mem_absolute_x));

	mov	rcx, QWORD PTR [rsi+88]
	movzx	edx, bp
	call	?readmemory_as_word@bus@@QEAAGH@Z	; bus::readmemory_as_word
	movzx	ecx, BYTE PTR [rsi+75]
	add	ax, cx
	mov	rcx, QWORD PTR [rsi+88]
	movzx	edx, ax
	call	?readmemory@bus@@QEAAEH@Z		; bus::readmemory
	movzx	r8d, al
	lea	rdx, QWORD PTR [rsi+74]
	mov	rcx, rsi
	call	?opc_ld_@cpu2a03_fast@@AEAAXAEAEE@Z	; cpu2a03_fast::opc_ld_

; 1204 : 			regs.pc += 2;
; 1205 : 			actualticks += 4;
; 1206 : 			if ((_mem_absolute & 0xFF00) != (_mem_absolute_x & 0xFF00)) actualticks++;
; 1207 : 			break;

	jmp	$LN1845@rundevice_
$LN221@rundevice_:

; 1208 : 		}
; 1209 : 		case 0xbe: {
; 1210 : 			opc_ld_(regs.x, mbus->readmemory(_mem_absolute_y));

	mov	rcx, QWORD PTR [rsi+88]
	movzx	edx, bp
	call	?readmemory_as_word@bus@@QEAAGH@Z	; bus::readmemory_as_word
	movzx	ecx, BYTE PTR [rsi+76]
	add	ax, cx
	mov	rcx, QWORD PTR [rsi+88]
	movzx	edx, ax
	call	?readmemory@bus@@QEAAEH@Z		; bus::readmemory
	movzx	r8d, al
	lea	rdx, QWORD PTR [rsi+75]
	mov	rcx, rsi
	call	?opc_ld_@cpu2a03_fast@@AEAAXAEAEE@Z	; cpu2a03_fast::opc_ld_

; 1211 : 			regs.pc += 2;
; 1212 : 			actualticks += 4;
; 1213 : 			if ((_mem_absolute & 0xFF00) != (_mem_absolute_y & 0xFF00)) actualticks++;
; 1214 : 			break;

	jmp	$LN1817@rundevice_
$LN223@rundevice_:

; 1215 : 		}
; 1216 : 		case 0xbf: {
; 1217 : 			opc_ld_(regs.ac, mbus->readmemory(_mem_absolute_y));

	mov	rcx, QWORD PTR [rsi+88]
	movzx	edx, bp
	call	?readmemory_as_word@bus@@QEAAGH@Z	; bus::readmemory_as_word
	movzx	ecx, BYTE PTR [rsi+76]
	add	ax, cx
	mov	rcx, QWORD PTR [rsi+88]
	movzx	edx, ax
	call	?readmemory@bus@@QEAAEH@Z		; bus::readmemory
	movzx	r8d, al
	lea	rdx, QWORD PTR [rsi+74]
	mov	rcx, rsi
	call	?opc_ld_@cpu2a03_fast@@AEAAXAEAEE@Z	; cpu2a03_fast::opc_ld_

; 1218 : 			regs.x = regs.ac;

	movzx	eax, BYTE PTR [rsi+74]
	mov	BYTE PTR [rsi+75], al

; 1219 : 			regs.pc += 2;
; 1220 : 			actualticks += 4;
; 1221 : 			if ((_mem_absolute & 0xFF00) != (_mem_absolute_y & 0xFF00)) actualticks++;
; 1222 : 			break;

	jmp	$LN1817@rundevice_
$LN225@rundevice_:

; 1223 : 		}
; 1224 : 		case 0xc0: {
; 1225 : 			opc_cmp(regs.y, mbus->readmemory(_mem_immediate));

	mov	rcx, QWORD PTR [rsi+88]
	movzx	edx, bp
	call	?readmemory@bus@@QEAAEH@Z		; bus::readmemory
	movzx	edx, BYTE PTR [rsi+76]
	movzx	r8d, al
	mov	rcx, rsi
	call	?opc_cmp@cpu2a03_fast@@AEAAXEE@Z	; cpu2a03_fast::opc_cmp
	inc	WORD PTR [rsi+72]

; 1595 : 			opc_sbc(t);
; 1596 : 			regs.pc += 2;
; 1597 : 			actualticks += 7;
; 1598 : 			break;
; 1599 : 		}
; 1600 : 	}
; 1601 : 	return actualticks * tick_rate;

	mov	edi, 2
	jmp	$LN2@rundevice_
$LN226@rundevice_:

; 1226 : 			regs.pc++;
; 1227 : 			actualticks += 2;
; 1228 : 			break;
; 1229 : 		}
; 1230 : 		case 0xc1: {
; 1231 : 			opc_cmp(regs.ac, mbus->readmemory(_mem_index_x));

	mov	rcx, QWORD PTR [rsi+88]
	movzx	edx, bp
	call	?readmemory@bus@@QEAAEH@Z		; bus::readmemory
	movzx	ecx, BYTE PTR [rsi+75]
	add	ecx, eax
	movzx	edx, cl
	mov	rcx, QWORD PTR [rsi+88]
	call	?readmemory_as_word_wrap@bus@@QEAAGH@Z	; bus::readmemory_as_word_wrap
	mov	rcx, QWORD PTR [rsi+88]
	movzx	edx, ax
	call	?readmemory@bus@@QEAAEH@Z		; bus::readmemory
	movzx	edx, BYTE PTR [rsi+74]
	movzx	r8d, al
	mov	rcx, rsi
	call	?opc_cmp@cpu2a03_fast@@AEAAXEE@Z	; cpu2a03_fast::opc_cmp

; 1232 : 			actualticks += 6;
; 1233 : 			regs.pc++;

	inc	WORD PTR [rsi+72]
	mov	edi, 6

; 1234 : 			break;

	jmp	$LN2@rundevice_
$LN227@rundevice_:

; 1235 : 		}
; 1236 : 		case 0xc3: {
; 1237 : 			byte t = opc_dec(mbus->readmemory(_mem_index_x));

	mov	rcx, QWORD PTR [rsi+88]
	movzx	edx, bp
	call	?readmemory@bus@@QEAAEH@Z		; bus::readmemory
	movzx	ecx, al
	movzx	eax, BYTE PTR [rsi+75]
	add	eax, ecx
	mov	rcx, QWORD PTR [rsi+88]
	movzx	edx, al
	call	?readmemory_as_word_wrap@bus@@QEAAGH@Z	; bus::readmemory_as_word_wrap
	mov	rcx, QWORD PTR [rsi+88]
	movzx	edx, ax
	call	?readmemory@bus@@QEAAEH@Z		; bus::readmemory
	movzx	edx, al
	mov	rcx, rsi
	call	?opc_dec@cpu2a03_fast@@AEAAEE@Z		; cpu2a03_fast::opc_dec

; 1238 : 			mbus->writememory(_mem_index_x, t);

	movzx	edx, WORD PTR [rsi+72]
	movzx	ebx, al
	mov	rcx, QWORD PTR [rsi+88]
	call	?readmemory@bus@@QEAAEH@Z		; bus::readmemory
	movzx	edx, BYTE PTR [rsi+75]
	movzx	ecx, al
	add	edx, ecx
	mov	rcx, QWORD PTR [rsi+88]
	movzx	edx, dl
	call	?readmemory_as_word_wrap@bus@@QEAAGH@Z	; bus::readmemory_as_word_wrap
$LN1838@rundevice_:

; 1595 : 			opc_sbc(t);
; 1596 : 			regs.pc += 2;
; 1597 : 			actualticks += 7;
; 1598 : 			break;
; 1599 : 		}
; 1600 : 	}
; 1601 : 	return actualticks * tick_rate;

	mov	rcx, QWORD PTR [rsi+88]
	movzx	r8d, bl
	movzx	edx, ax
	call	?writememory@bus@@QEAAXHE@Z		; bus::writememory
	movzx	edx, BYTE PTR [rsi+74]
	movzx	r8d, bl
	mov	rcx, rsi
	call	?opc_cmp@cpu2a03_fast@@AEAAXEE@Z	; cpu2a03_fast::opc_cmp
	inc	WORD PTR [rsi+72]
	mov	edi, 8
	jmp	$LN2@rundevice_
$LN228@rundevice_:

; 1239 : 			opc_cmp(regs.ac, t);
; 1240 : 			regs.pc++;
; 1241 : 			actualticks += 8;
; 1242 : 			break;
; 1243 : 		}
; 1244 : 		case 0xc4: {
; 1245 : 			opc_cmp(regs.y, mbus->readmemory(_mem_zero));

	mov	rcx, QWORD PTR [rsi+88]
	movzx	edx, bp
	call	?readmemory@bus@@QEAAEH@Z		; bus::readmemory
	mov	rcx, QWORD PTR [rsi+88]
	movzx	edx, al
	call	?readmemory@bus@@QEAAEH@Z		; bus::readmemory
	movzx	edx, BYTE PTR [rsi+76]
	movzx	r8d, al
	mov	rcx, rsi
	call	?opc_cmp@cpu2a03_fast@@AEAAXEE@Z	; cpu2a03_fast::opc_cmp

; 1595 : 			opc_sbc(t);
; 1596 : 			regs.pc += 2;
; 1597 : 			actualticks += 7;
; 1598 : 			break;
; 1599 : 		}
; 1600 : 	}
; 1601 : 	return actualticks * tick_rate;

	inc	WORD PTR [rsi+72]
	mov	edi, 3
	jmp	$LN2@rundevice_
$LN229@rundevice_:

; 1246 : 			regs.pc++;
; 1247 : 			actualticks += 3;
; 1248 : 			break;
; 1249 : 		}
; 1250 : 		case 0xc5: {
; 1251 : 			opc_cmp(regs.ac, mbus->readmemory(_mem_zero));

	mov	rcx, QWORD PTR [rsi+88]
	movzx	edx, bp
	call	?readmemory@bus@@QEAAEH@Z		; bus::readmemory
	mov	rcx, QWORD PTR [rsi+88]
	movzx	edx, al
	call	?readmemory@bus@@QEAAEH@Z		; bus::readmemory
	movzx	edx, BYTE PTR [rsi+74]
	movzx	r8d, al
	mov	rcx, rsi
	call	?opc_cmp@cpu2a03_fast@@AEAAXEE@Z	; cpu2a03_fast::opc_cmp

; 1595 : 			opc_sbc(t);
; 1596 : 			regs.pc += 2;
; 1597 : 			actualticks += 7;
; 1598 : 			break;
; 1599 : 		}
; 1600 : 	}
; 1601 : 	return actualticks * tick_rate;

	inc	WORD PTR [rsi+72]
	mov	edi, 3
	jmp	$LN2@rundevice_
$LN230@rundevice_:

; 1252 : 			regs.pc++;
; 1253 : 			actualticks += 3;
; 1254 : 			break;
; 1255 : 		}
; 1256 : 		case 0xc6: {
; 1257 : 			mbus->writememory(_mem_zero, opc_dec(mbus->readmemory(_mem_zero)));

	mov	rcx, QWORD PTR [rsi+88]
	movzx	edx, bp
	call	?readmemory@bus@@QEAAEH@Z		; bus::readmemory
	mov	rcx, QWORD PTR [rsi+88]
	movzx	edx, al
	call	?readmemory@bus@@QEAAEH@Z		; bus::readmemory
	movzx	edx, al
	mov	rcx, rsi
	call	?opc_dec@cpu2a03_fast@@AEAAEE@Z		; cpu2a03_fast::opc_dec
$LN1826@rundevice_:

; 1595 : 			opc_sbc(t);
; 1596 : 			regs.pc += 2;
; 1597 : 			actualticks += 7;
; 1598 : 			break;
; 1599 : 		}
; 1600 : 	}
; 1601 : 	return actualticks * tick_rate;

	movzx	edx, WORD PTR [rsi+72]
	movzx	ebx, al
	mov	rcx, QWORD PTR [rsi+88]
	call	?readmemory@bus@@QEAAEH@Z		; bus::readmemory
	mov	rcx, QWORD PTR [rsi+88]
	movzx	r8d, bl
	movzx	edx, al
	call	?writememory@bus@@QEAAXHE@Z		; bus::writememory
	inc	WORD PTR [rsi+72]
	mov	edi, 5
	jmp	$LN2@rundevice_
$LN231@rundevice_:

; 1258 : 			regs.pc++;
; 1259 : 			actualticks += 5;
; 1260 : 			break;
; 1261 : 		}
; 1262 : 		case 0xc7: {
; 1263 : 			byte t = opc_dec(mbus->readmemory(_mem_zero));

	mov	rcx, QWORD PTR [rsi+88]
	movzx	edx, bp
	call	?readmemory@bus@@QEAAEH@Z		; bus::readmemory
	mov	rcx, QWORD PTR [rsi+88]
	movzx	edx, al
	call	?readmemory@bus@@QEAAEH@Z		; bus::readmemory
	movzx	edx, al
	mov	rcx, rsi
	call	?opc_dec@cpu2a03_fast@@AEAAEE@Z		; cpu2a03_fast::opc_dec

; 1264 : 			mbus->writememory(_mem_zero, t);

	movzx	edx, WORD PTR [rsi+72]
	movzx	ebx, al
	mov	rcx, QWORD PTR [rsi+88]
	call	?readmemory@bus@@QEAAEH@Z		; bus::readmemory
	mov	rcx, QWORD PTR [rsi+88]
	movzx	r8d, bl
	movzx	edx, al
	call	?writememory@bus@@QEAAXHE@Z		; bus::writememory

; 1265 : 			opc_cmp(regs.ac, t);

	movzx	edx, BYTE PTR [rsi+74]
	movzx	r8d, bl
	mov	rcx, rsi
	call	?opc_cmp@cpu2a03_fast@@AEAAXEE@Z	; cpu2a03_fast::opc_cmp

; 1266 : 			regs.pc++;

	inc	WORD PTR [rsi+72]

; 1267 : 			actualticks += 5;

	mov	edi, 5

; 1268 : 			break;

	jmp	$LN2@rundevice_
$LN232@rundevice_:

; 1269 : 		}
; 1270 : 		case 0xc8: { //iny
; 1271 : 			regs.y = opc_inc(regs.y);

	movzx	edx, BYTE PTR [rsi+76]
	mov	rcx, rsi
	call	?opc_inc@cpu2a03_fast@@AEAAEE@Z		; cpu2a03_fast::opc_inc
	mov	BYTE PTR [rsi+76], al

; 1595 : 			opc_sbc(t);
; 1596 : 			regs.pc += 2;
; 1597 : 			actualticks += 7;
; 1598 : 			break;
; 1599 : 		}
; 1600 : 	}
; 1601 : 	return actualticks * tick_rate;

	mov	edi, 2
	jmp	$LN2@rundevice_
$LN233@rundevice_:

; 1272 : 			actualticks += 2;
; 1273 : 			break;
; 1274 : 		}
; 1275 : 		case 0xc9: {
; 1276 : 			opc_cmp(regs.ac, mbus->readmemory(_mem_immediate));

	mov	rcx, QWORD PTR [rsi+88]
	movzx	edx, bp
	call	?readmemory@bus@@QEAAEH@Z		; bus::readmemory
	movzx	edx, BYTE PTR [rsi+74]
	movzx	r8d, al
	mov	rcx, rsi
	call	?opc_cmp@cpu2a03_fast@@AEAAXEE@Z	; cpu2a03_fast::opc_cmp
	inc	WORD PTR [rsi+72]

; 1595 : 			opc_sbc(t);
; 1596 : 			regs.pc += 2;
; 1597 : 			actualticks += 7;
; 1598 : 			break;
; 1599 : 		}
; 1600 : 	}
; 1601 : 	return actualticks * tick_rate;

	mov	edi, 2
	jmp	$LN2@rundevice_
$LN234@rundevice_:

; 1277 : 			regs.pc++;
; 1278 : 			actualticks += 2;
; 1279 : 			break;
; 1280 : 		}
; 1281 : 		case 0xca: { //dex
; 1282 : 			regs.x = opc_dec(regs.x);

	movzx	edx, BYTE PTR [rsi+75]
	mov	rcx, rsi
	call	?opc_dec@cpu2a03_fast@@AEAAEE@Z		; cpu2a03_fast::opc_dec
	mov	BYTE PTR [rsi+75], al

; 1595 : 			opc_sbc(t);
; 1596 : 			regs.pc += 2;
; 1597 : 			actualticks += 7;
; 1598 : 			break;
; 1599 : 		}
; 1600 : 	}
; 1601 : 	return actualticks * tick_rate;

	mov	edi, 2
	jmp	$LN2@rundevice_
$LN235@rundevice_:

; 1283 : 			actualticks += 2;
; 1284 : 			break;
; 1285 : 		}
; 1286 : 		case 0xcb: { //axs
; 1287 : 			// what does it do.
; 1288 : 			// X <- (A & X) - Immediate
; 1289 : 			byte data = mbus->readmemory(_mem_immediate);

	mov	rcx, QWORD PTR [rsi+88]
	movzx	edx, bp
	call	?readmemory@bus@@QEAAEH@Z		; bus::readmemory

; 1290 : 			regs.sr &= 0xFF - (cf_negative | cf_zero | cf_carry);
; 1291 : 			regs.x &= regs.ac;

	movzx	ecx, BYTE PTR [rsi+74]
	and	cl, BYTE PTR [rsi+75]
	movzx	edx, cl

; 1292 : 			word c = word(regs.x) - data;

	movzx	ecx, al
	movzx	r8d, dx
	sub	r8w, cx
	movzx	ecx, BYTE PTR [rsi+78]
	and	ecx, 124				; 0000007cH

; 1293 : 			regs.sr = regs.x >= data ? regs.sr | cf_carry : regs.sr;

	cmp	dl, al
	jb	SHORT $LN355@rundevice_
	or	ecx, 1
$LN355@rundevice_:

; 1294 : 			regs.sr = c & 0x80 ? regs.sr | cf_negative : regs.sr;

	movzx	eax, cl
	test	r8b, r8b
	jns	SHORT $LN357@rundevice_
	bts	eax, 7
$LN357@rundevice_:

; 1295 : 			regs.sr = !(c & 0xFF) ? regs.sr | cf_zero : regs.sr;

	movzx	ecx, al
	test	r8b, r8b
	jne	SHORT $LN359@rundevice_
	or	ecx, 2
$LN359@rundevice_:

; 161  : 			regs.pc++;

	inc	WORD PTR [rsi+72]

; 1595 : 			opc_sbc(t);
; 1596 : 			regs.pc += 2;
; 1597 : 			actualticks += 7;
; 1598 : 			break;
; 1599 : 		}
; 1600 : 	}
; 1601 : 	return actualticks * tick_rate;

	mov	edi, 2
	mov	BYTE PTR [rsi+78], cl
	mov	BYTE PTR [rsi+75], r8b
	jmp	$LN2@rundevice_
$LN236@rundevice_:

; 1296 : 			regs.x = byte(c);
; 1297 : 			regs.pc++;
; 1298 : 			actualticks += 2;
; 1299 : 			break;
; 1300 : 		}
; 1301 : 		case 0xcc: {
; 1302 : 			opc_cmp(regs.y, mbus->readmemory(_mem_absolute));

	mov	rcx, QWORD PTR [rsi+88]
	movzx	edx, bp
	call	?readmemory_as_word@bus@@QEAAGH@Z	; bus::readmemory_as_word
	mov	rcx, QWORD PTR [rsi+88]
	movzx	edx, ax
	call	?readmemory@bus@@QEAAEH@Z		; bus::readmemory
	movzx	edx, BYTE PTR [rsi+76]
	movzx	r8d, al
	mov	rcx, rsi
	call	?opc_cmp@cpu2a03_fast@@AEAAXEE@Z	; cpu2a03_fast::opc_cmp

; 1303 : 			regs.pc += 2;
; 1304 : 			actualticks += 4;

	mov	edi, 4

; 1305 : 			break;

	jmp	$LN1797@rundevice_
$LN237@rundevice_:

; 1306 : 		}
; 1307 : 		case 0xcd: {
; 1308 : 			opc_cmp(regs.ac, mbus->readmemory(_mem_absolute));

	mov	rcx, QWORD PTR [rsi+88]
	movzx	edx, bp
	call	?readmemory_as_word@bus@@QEAAGH@Z	; bus::readmemory_as_word
	mov	rcx, QWORD PTR [rsi+88]
	movzx	edx, ax
	call	?readmemory@bus@@QEAAEH@Z		; bus::readmemory
	movzx	edx, BYTE PTR [rsi+74]
	movzx	r8d, al
	mov	rcx, rsi
	call	?opc_cmp@cpu2a03_fast@@AEAAXEE@Z	; cpu2a03_fast::opc_cmp

; 1309 : 			regs.pc += 2;
; 1310 : 			actualticks += 4;

	mov	edi, 4

; 1311 : 			break;

	jmp	$LN1797@rundevice_
$LN238@rundevice_:

; 1312 : 		}
; 1313 : 		case 0xce: {
; 1314 : 			mbus->writememory(_mem_absolute, opc_dec(mbus->readmemory(_mem_absolute)));

	mov	rcx, QWORD PTR [rsi+88]
	movzx	edx, bp
	call	?readmemory_as_word@bus@@QEAAGH@Z	; bus::readmemory_as_word
	mov	rcx, QWORD PTR [rsi+88]
	movzx	edx, ax
	call	?readmemory@bus@@QEAAEH@Z		; bus::readmemory
	movzx	edx, al
	mov	rcx, rsi
	call	?opc_dec@cpu2a03_fast@@AEAAEE@Z		; cpu2a03_fast::opc_dec
$LN1807@rundevice_:

; 1595 : 			opc_sbc(t);
; 1596 : 			regs.pc += 2;
; 1597 : 			actualticks += 7;
; 1598 : 			break;
; 1599 : 		}
; 1600 : 	}
; 1601 : 	return actualticks * tick_rate;

	movzx	edx, WORD PTR [rsi+72]
	movzx	ebx, al
	mov	rcx, QWORD PTR [rsi+88]
	call	?readmemory_as_word@bus@@QEAAGH@Z	; bus::readmemory_as_word
	mov	rcx, QWORD PTR [rsi+88]
	movzx	r8d, bl
	movzx	edx, ax
	call	?writememory@bus@@QEAAXHE@Z		; bus::writememory
	mov	edi, 6
	jmp	$LN1797@rundevice_
$LN239@rundevice_:

; 1315 : 			regs.pc += 2;
; 1316 : 			actualticks += 6;
; 1317 : 			break;
; 1318 : 		}
; 1319 : 		case 0xcf: {
; 1320 : 			byte t = opc_dec(mbus->readmemory(_mem_absolute));

	mov	rcx, QWORD PTR [rsi+88]
	movzx	edx, bp
	call	?readmemory_as_word@bus@@QEAAGH@Z	; bus::readmemory_as_word
	mov	rcx, QWORD PTR [rsi+88]
	movzx	edx, ax
	call	?readmemory@bus@@QEAAEH@Z		; bus::readmemory
	movzx	edx, al
	mov	rcx, rsi
	call	?opc_dec@cpu2a03_fast@@AEAAEE@Z		; cpu2a03_fast::opc_dec

; 1321 : 			mbus->writememory(_mem_absolute, t);

	movzx	edx, WORD PTR [rsi+72]
	movzx	ebx, al
	mov	rcx, QWORD PTR [rsi+88]
	call	?readmemory_as_word@bus@@QEAAGH@Z	; bus::readmemory_as_word
	mov	rcx, QWORD PTR [rsi+88]
	movzx	r8d, bl
	movzx	edx, ax
	call	?writememory@bus@@QEAAXHE@Z		; bus::writememory

; 1322 : 			opc_cmp(regs.ac, t);

	movzx	edx, BYTE PTR [rsi+74]
	movzx	r8d, bl
	mov	rcx, rsi
	call	?opc_cmp@cpu2a03_fast@@AEAAXEE@Z	; cpu2a03_fast::opc_cmp

; 1323 : 			regs.pc += 2;
; 1324 : 			actualticks += 6;

	mov	edi, 6

; 1325 : 			break;

	jmp	$LN1797@rundevice_
$LN240@rundevice_:

; 1326 : 		}
; 1327 : 		case 0xd0: { // bne
; 1328 : 			actualticks += 2;

	mov	edi, 2

; 1329 : 			if (!(regs.sr & cf_zero)) {

	test	BYTE PTR [rsi+78], dil
	jne	$LN26@rundevice_

; 1330 : 				actualticks++;
; 1331 : 				if ((regs.pc & 0xFF00) != (_mem_relative & 0xFF00)) actualticks++;

	jmp	$LN1849@rundevice_
$LN244@rundevice_:

; 1332 : 				regs.pc = _mem_relative;
; 1333 : 			} else regs.pc++;
; 1334 : 			break;
; 1335 : 		}
; 1336 : 		case 0xd1: {
; 1337 : 			opc_cmp(regs.ac, mbus->readmemory(_mem_index_y));

	mov	rcx, QWORD PTR [rsi+88]
	movzx	edx, bp
	call	?readmemory@bus@@QEAAEH@Z		; bus::readmemory
	mov	rcx, QWORD PTR [rsi+88]
	movzx	edx, al
	call	?readmemory_as_word_wrap@bus@@QEAAGH@Z	; bus::readmemory_as_word_wrap
	movzx	ecx, BYTE PTR [rsi+76]
	add	ax, cx
	mov	rcx, QWORD PTR [rsi+88]
	movzx	edx, ax
	call	?readmemory@bus@@QEAAEH@Z		; bus::readmemory
	movzx	edx, BYTE PTR [rsi+74]
	movzx	r8d, al
	mov	rcx, rsi
	call	?opc_cmp@cpu2a03_fast@@AEAAXEE@Z	; cpu2a03_fast::opc_cmp

; 1338 : 			regs.pc++;
; 1339 : 			actualticks += 5;
; 1340 : 			if (_mem_index_y_inc) actualticks++;
; 1341 : 			break;

	jmp	$LN1843@rundevice_
$LN247@rundevice_:

; 1342 : 		}
; 1343 : 		case 0xd2: {
; 1344 : 			error_state = true;
; 1345 : 			break;
; 1346 : 		}
; 1347 : 		case 0xd3: {
; 1348 : 			byte t = opc_dec(mbus->readmemory(_mem_index_y));

	mov	rcx, QWORD PTR [rsi+88]
	movzx	edx, bp
	call	?readmemory@bus@@QEAAEH@Z		; bus::readmemory
	mov	rcx, QWORD PTR [rsi+88]
	movzx	edx, al
	call	?readmemory_as_word_wrap@bus@@QEAAGH@Z	; bus::readmemory_as_word_wrap
	movzx	ecx, BYTE PTR [rsi+76]
	add	ax, cx
	mov	rcx, QWORD PTR [rsi+88]
	movzx	edx, ax
	call	?readmemory@bus@@QEAAEH@Z		; bus::readmemory
	movzx	edx, al
	mov	rcx, rsi
	call	?opc_dec@cpu2a03_fast@@AEAAEE@Z		; cpu2a03_fast::opc_dec

; 1349 : 			mbus->writememory(_mem_index_y, t);

	movzx	edx, WORD PTR [rsi+72]
	movzx	ebx, al
	mov	rcx, QWORD PTR [rsi+88]
	call	?readmemory@bus@@QEAAEH@Z		; bus::readmemory
	mov	rcx, QWORD PTR [rsi+88]
	movzx	edx, al
	call	?readmemory_as_word_wrap@bus@@QEAAGH@Z	; bus::readmemory_as_word_wrap
	movzx	ecx, BYTE PTR [rsi+76]
	add	ax, cx

; 1350 : 			opc_cmp(regs.ac, t);
; 1351 : 			regs.pc++;
; 1352 : 			actualticks += 8;
; 1353 : 			break;

	jmp	$LN1838@rundevice_
$LN248@rundevice_:

; 1354 : 		}
; 1355 : 		case 0xd5: {
; 1356 : 			opc_cmp(regs.ac, mbus->readmemory(_mem_zero_x));

	mov	rcx, QWORD PTR [rsi+88]
	movzx	edx, bp
	call	?readmemory@bus@@QEAAEH@Z		; bus::readmemory
	movzx	ecx, BYTE PTR [rsi+75]
	add	ecx, eax
	movzx	edx, cl
	mov	rcx, QWORD PTR [rsi+88]
	call	?readmemory@bus@@QEAAEH@Z		; bus::readmemory
	movzx	edx, BYTE PTR [rsi+74]
	movzx	r8d, al
	mov	rcx, rsi
	call	?opc_cmp@cpu2a03_fast@@AEAAXEE@Z	; cpu2a03_fast::opc_cmp

; 1595 : 			opc_sbc(t);
; 1596 : 			regs.pc += 2;
; 1597 : 			actualticks += 7;
; 1598 : 			break;
; 1599 : 		}
; 1600 : 	}
; 1601 : 	return actualticks * tick_rate;

	inc	WORD PTR [rsi+72]
	mov	edi, 4
	jmp	$LN2@rundevice_
$LN249@rundevice_:

; 1357 : 			regs.pc++;
; 1358 : 			actualticks += 4;
; 1359 : 			break;
; 1360 : 		}
; 1361 : 		case 0xd6: {
; 1362 : 			mbus->writememory(_mem_zero_x, opc_dec(mbus->readmemory(_mem_zero_x)));

	mov	rcx, QWORD PTR [rsi+88]
	movzx	edx, bp
	call	?readmemory@bus@@QEAAEH@Z		; bus::readmemory
	movzx	edx, WORD PTR [rsi+72]
	mov	rcx, QWORD PTR [rsi+88]
	movzx	ebx, al
	call	?readmemory@bus@@QEAAEH@Z		; bus::readmemory
	mov	rcx, QWORD PTR [rsi+88]
	movzx	edi, al
	movzx	eax, BYTE PTR [rsi+75]
	add	eax, ebx
	movzx	edx, al
	call	?readmemory@bus@@QEAAEH@Z		; bus::readmemory
	movzx	edx, al
	mov	rcx, rsi
	call	?opc_dec@cpu2a03_fast@@AEAAEE@Z		; cpu2a03_fast::opc_dec
	movzx	r8d, al
	movzx	eax, BYTE PTR [rsi+75]
	add	eax, edi
	movzx	edx, al

; 1363 : 			regs.pc++;
; 1364 : 			actualticks += 6;
; 1365 : 			break;

	jmp	$LN1834@rundevice_
$LN250@rundevice_:

; 1366 : 		}
; 1367 : 		case 0xd7: {
; 1368 : 			byte t = opc_dec(mbus->readmemory(_mem_zero_x));

	mov	rcx, QWORD PTR [rsi+88]
	movzx	edx, bp
	call	?readmemory@bus@@QEAAEH@Z		; bus::readmemory
	movzx	ecx, al
	movzx	eax, BYTE PTR [rsi+75]
	add	eax, ecx
	mov	rcx, QWORD PTR [rsi+88]
	movzx	edx, al
	call	?readmemory@bus@@QEAAEH@Z		; bus::readmemory
	movzx	edx, al
	mov	rcx, rsi
	call	?opc_dec@cpu2a03_fast@@AEAAEE@Z		; cpu2a03_fast::opc_dec

; 1369 : 			mbus->writememory(_mem_zero_x, t);

	movzx	edx, WORD PTR [rsi+72]
	movzx	ebx, al
	mov	rcx, QWORD PTR [rsi+88]
	call	?readmemory@bus@@QEAAEH@Z		; bus::readmemory
	movzx	edx, BYTE PTR [rsi+75]
	movzx	r8d, bl
	movzx	ecx, al
	add	edx, ecx
	mov	rcx, QWORD PTR [rsi+88]
	movzx	edx, dl
	call	?writememory@bus@@QEAAXHE@Z		; bus::writememory

; 1370 : 			opc_cmp(regs.ac, t);

	movzx	edx, BYTE PTR [rsi+74]
	movzx	r8d, bl
	mov	rcx, rsi
	call	?opc_cmp@cpu2a03_fast@@AEAAXEE@Z	; cpu2a03_fast::opc_cmp

; 1595 : 			opc_sbc(t);
; 1596 : 			regs.pc += 2;
; 1597 : 			actualticks += 7;
; 1598 : 			break;
; 1599 : 		}
; 1600 : 	}
; 1601 : 	return actualticks * tick_rate;

	inc	WORD PTR [rsi+72]
	mov	edi, 6
	jmp	$LN2@rundevice_
$LN251@rundevice_:

; 1371 : 			regs.pc++;
; 1372 : 			actualticks += 6;
; 1373 : 			break;
; 1374 : 		}
; 1375 : 		case 0xd8: { //cld
; 1376 : 			regs.sr &= 0xff - cf_decimal;

	and	BYTE PTR [rsi+78], 247			; 000000f7H

; 1595 : 			opc_sbc(t);
; 1596 : 			regs.pc += 2;
; 1597 : 			actualticks += 7;
; 1598 : 			break;
; 1599 : 		}
; 1600 : 	}
; 1601 : 	return actualticks * tick_rate;

	mov	edi, 2
	jmp	$LN2@rundevice_
$LN252@rundevice_:

; 1377 : 			actualticks += 2;
; 1378 : 			break;
; 1379 : 		}
; 1380 : 		case 0xd9: {
; 1381 : 			opc_cmp(regs.ac, mbus->readmemory(_mem_absolute_y));

	mov	rcx, QWORD PTR [rsi+88]
	movzx	edx, bp
	call	?readmemory_as_word@bus@@QEAAGH@Z	; bus::readmemory_as_word
	movzx	ecx, BYTE PTR [rsi+76]
	add	ax, cx
	mov	rcx, QWORD PTR [rsi+88]
	movzx	edx, ax
	call	?readmemory@bus@@QEAAEH@Z		; bus::readmemory
	movzx	edx, BYTE PTR [rsi+74]
	movzx	r8d, al
	mov	rcx, rsi
	call	?opc_cmp@cpu2a03_fast@@AEAAXEE@Z	; cpu2a03_fast::opc_cmp

; 1382 : 			regs.pc += 2;
; 1383 : 			actualticks += 4;
; 1384 : 			if ((_mem_absolute & 0xFF00) != (_mem_absolute_y & 0xFF00)) actualticks++;
; 1385 : 			break;

	jmp	$LN1817@rundevice_
$LN255@rundevice_:

; 1386 : 		}
; 1387 : 		case 0xda: {
; 1388 : 			error_state = true;
; 1389 : 			break;
; 1390 : 		}
; 1391 : 		case 0xdb: {
; 1392 : 			byte t = opc_dec(mbus->readmemory(_mem_absolute_y));

	mov	rcx, QWORD PTR [rsi+88]
	movzx	edx, bp
	call	?readmemory_as_word@bus@@QEAAGH@Z	; bus::readmemory_as_word
	movzx	ecx, BYTE PTR [rsi+76]
	add	ax, cx
	mov	rcx, QWORD PTR [rsi+88]
	movzx	edx, ax
	call	?readmemory@bus@@QEAAEH@Z		; bus::readmemory
	movzx	edx, al
	mov	rcx, rsi
	call	?opc_dec@cpu2a03_fast@@AEAAEE@Z		; cpu2a03_fast::opc_dec

; 1393 : 			mbus->writememory(_mem_absolute_y, t);

	movzx	edx, WORD PTR [rsi+72]
	movzx	ebx, al
	mov	rcx, QWORD PTR [rsi+88]
	call	?readmemory_as_word@bus@@QEAAGH@Z	; bus::readmemory_as_word
	movzx	ecx, BYTE PTR [rsi+76]
$LN1803@rundevice_:

; 1595 : 			opc_sbc(t);
; 1596 : 			regs.pc += 2;
; 1597 : 			actualticks += 7;
; 1598 : 			break;
; 1599 : 		}
; 1600 : 	}
; 1601 : 	return actualticks * tick_rate;

	add	ax, cx
	movzx	r8d, bl
	mov	rcx, QWORD PTR [rsi+88]
	movzx	edx, ax
	call	?writememory@bus@@QEAAXHE@Z		; bus::writememory
	movzx	edx, BYTE PTR [rsi+74]
	movzx	r8d, bl
	mov	rcx, rsi
	call	?opc_cmp@cpu2a03_fast@@AEAAXEE@Z	; cpu2a03_fast::opc_cmp
	jmp	$LN1798@rundevice_
$LN256@rundevice_:

; 1394 : 			opc_cmp(regs.ac, t);
; 1395 : 			regs.pc += 2;
; 1396 : 			actualticks += 7;
; 1397 : 			break;
; 1398 : 		}
; 1399 : 		case 0xdd: {
; 1400 : 			opc_cmp(regs.ac, mbus->readmemory(_mem_absolute_x));

	mov	rcx, QWORD PTR [rsi+88]
	movzx	edx, bp
	call	?readmemory_as_word@bus@@QEAAGH@Z	; bus::readmemory_as_word
	movzx	ecx, BYTE PTR [rsi+75]
	add	ax, cx
	mov	rcx, QWORD PTR [rsi+88]
	movzx	edx, ax
	call	?readmemory@bus@@QEAAEH@Z		; bus::readmemory
	movzx	edx, BYTE PTR [rsi+74]
	movzx	r8d, al
	mov	rcx, rsi
	call	?opc_cmp@cpu2a03_fast@@AEAAXEE@Z	; cpu2a03_fast::opc_cmp

; 1401 : 			regs.pc += 2;
; 1402 : 			actualticks += 4;
; 1403 : 			if ((_mem_absolute & 0xFF00) != (_mem_absolute_x & 0xFF00)) actualticks++;
; 1404 : 			break;

	jmp	$LN1845@rundevice_
$LN258@rundevice_:

; 1405 : 		}
; 1406 : 		case 0xde: {
; 1407 : 			mbus->writememory(_mem_absolute_x, opc_dec(mbus->readmemory(_mem_absolute_x)));

	mov	rcx, QWORD PTR [rsi+88]
	movzx	edx, bp
	call	?readmemory_as_word@bus@@QEAAGH@Z	; bus::readmemory_as_word
	movzx	ecx, BYTE PTR [rsi+75]
	add	ax, cx
	mov	rcx, QWORD PTR [rsi+88]
	movzx	edx, ax
	call	?readmemory@bus@@QEAAEH@Z		; bus::readmemory
	movzx	edx, al
	mov	rcx, rsi
	call	?opc_dec@cpu2a03_fast@@AEAAEE@Z		; cpu2a03_fast::opc_dec
$LN1804@rundevice_:

; 1595 : 			opc_sbc(t);
; 1596 : 			regs.pc += 2;
; 1597 : 			actualticks += 7;
; 1598 : 			break;
; 1599 : 		}
; 1600 : 	}
; 1601 : 	return actualticks * tick_rate;

	movzx	edx, WORD PTR [rsi+72]
	movzx	ebx, al
	mov	rcx, QWORD PTR [rsi+88]
	call	?readmemory_as_word@bus@@QEAAGH@Z	; bus::readmemory_as_word
	movzx	ecx, BYTE PTR [rsi+75]
	movzx	r8d, bl
	add	ax, cx
	mov	rcx, QWORD PTR [rsi+88]
	movzx	edx, ax
	call	?writememory@bus@@QEAAXHE@Z		; bus::writememory
	jmp	$LN1798@rundevice_
$LN259@rundevice_:

; 1408 : 			regs.pc += 2;
; 1409 : 			actualticks += 7;
; 1410 : 			break;
; 1411 : 		}
; 1412 : 		case 0xdf: {
; 1413 : 			byte t = opc_dec(mbus->readmemory(_mem_absolute_x));

	mov	rcx, QWORD PTR [rsi+88]
	movzx	edx, bp
	call	?readmemory_as_word@bus@@QEAAGH@Z	; bus::readmemory_as_word
	movzx	ecx, BYTE PTR [rsi+75]
	add	ax, cx
	mov	rcx, QWORD PTR [rsi+88]
	movzx	edx, ax
	call	?readmemory@bus@@QEAAEH@Z		; bus::readmemory
	movzx	edx, al
	mov	rcx, rsi
	call	?opc_dec@cpu2a03_fast@@AEAAEE@Z		; cpu2a03_fast::opc_dec

; 1414 : 			mbus->writememory(_mem_absolute_x, t);

	movzx	edx, WORD PTR [rsi+72]
	movzx	ebx, al
	mov	rcx, QWORD PTR [rsi+88]
	call	?readmemory_as_word@bus@@QEAAGH@Z	; bus::readmemory_as_word
	movzx	ecx, BYTE PTR [rsi+75]

; 1415 : 			opc_cmp(regs.ac, t);
; 1416 : 			regs.pc += 2;
; 1417 : 			actualticks += 7;
; 1418 : 			break;

	jmp	$LN1803@rundevice_
$LN260@rundevice_:

; 1419 : 		}
; 1420 : 		case 0xe0: {
; 1421 : 			opc_cmp(regs.x, mbus->readmemory(_mem_immediate));

	mov	rcx, QWORD PTR [rsi+88]
	movzx	edx, bp
	call	?readmemory@bus@@QEAAEH@Z		; bus::readmemory
	movzx	edx, BYTE PTR [rsi+75]
	movzx	r8d, al
	mov	rcx, rsi
	call	?opc_cmp@cpu2a03_fast@@AEAAXEE@Z	; cpu2a03_fast::opc_cmp
	inc	WORD PTR [rsi+72]

; 1595 : 			opc_sbc(t);
; 1596 : 			regs.pc += 2;
; 1597 : 			actualticks += 7;
; 1598 : 			break;
; 1599 : 		}
; 1600 : 	}
; 1601 : 	return actualticks * tick_rate;

	mov	edi, 2
	jmp	$LN2@rundevice_
$LN261@rundevice_:

; 1422 : 			regs.pc++;
; 1423 : 			actualticks += 2;
; 1424 : 			break;
; 1425 : 		}
; 1426 : 		case 0xe1: {
; 1427 : 			opc_sbc(mbus->readmemory(_mem_index_x));

	mov	rcx, QWORD PTR [rsi+88]
	movzx	edx, bp
	call	?readmemory@bus@@QEAAEH@Z		; bus::readmemory
	movzx	ecx, BYTE PTR [rsi+75]
	add	ecx, eax
	movzx	edx, cl
	mov	rcx, QWORD PTR [rsi+88]
	call	?readmemory_as_word_wrap@bus@@QEAAGH@Z	; bus::readmemory_as_word_wrap
	mov	rcx, QWORD PTR [rsi+88]
	movzx	edx, ax
	call	?readmemory@bus@@QEAAEH@Z		; bus::readmemory
	movzx	edx, al
	mov	rcx, rsi
	call	?opc_sbc@cpu2a03_fast@@AEAAXE@Z		; cpu2a03_fast::opc_sbc

; 1595 : 			opc_sbc(t);
; 1596 : 			regs.pc += 2;
; 1597 : 			actualticks += 7;
; 1598 : 			break;
; 1599 : 		}
; 1600 : 	}
; 1601 : 	return actualticks * tick_rate;

	inc	WORD PTR [rsi+72]
	mov	edi, 6
	jmp	$LN2@rundevice_
$LN262@rundevice_:

; 1428 : 			regs.pc++;
; 1429 : 			actualticks += 6;
; 1430 : 			break;
; 1431 : 		}
; 1432 : 		case 0xe3: {
; 1433 : 			byte t = opc_inc(mbus->readmemory(_mem_index_x));

	mov	rcx, QWORD PTR [rsi+88]
	movzx	edx, bp
	call	?readmemory@bus@@QEAAEH@Z		; bus::readmemory
	movzx	ecx, al
	movzx	eax, BYTE PTR [rsi+75]
	add	eax, ecx
	mov	rcx, QWORD PTR [rsi+88]
	movzx	edx, al
	call	?readmemory_as_word_wrap@bus@@QEAAGH@Z	; bus::readmemory_as_word_wrap
	mov	rcx, QWORD PTR [rsi+88]
	movzx	edx, ax
	call	?readmemory@bus@@QEAAEH@Z		; bus::readmemory
	movzx	edx, al
	mov	rcx, rsi
	call	?opc_inc@cpu2a03_fast@@AEAAEE@Z		; cpu2a03_fast::opc_inc

; 1434 : 			mbus->writememory(_mem_index_x, t);

	movzx	edx, WORD PTR [rsi+72]
	movzx	ebx, al
	mov	rcx, QWORD PTR [rsi+88]
	call	?readmemory@bus@@QEAAEH@Z		; bus::readmemory
	movzx	edx, BYTE PTR [rsi+75]
	movzx	ecx, al
	add	edx, ecx
	mov	rcx, QWORD PTR [rsi+88]
	movzx	edx, dl
	call	?readmemory_as_word_wrap@bus@@QEAAGH@Z	; bus::readmemory_as_word_wrap
	mov	rcx, QWORD PTR [rsi+88]
	movzx	r8d, bl
	movzx	edx, ax
	call	?writememory@bus@@QEAAXHE@Z		; bus::writememory

; 1435 : 			opc_sbc(t);

	movzx	edx, bl
	mov	rcx, rsi
	call	?opc_sbc@cpu2a03_fast@@AEAAXE@Z		; cpu2a03_fast::opc_sbc

; 1595 : 			opc_sbc(t);
; 1596 : 			regs.pc += 2;
; 1597 : 			actualticks += 7;
; 1598 : 			break;
; 1599 : 		}
; 1600 : 	}
; 1601 : 	return actualticks * tick_rate;

	inc	WORD PTR [rsi+72]
	mov	edi, 8
	jmp	$LN2@rundevice_
$LN263@rundevice_:

; 1436 : 			regs.pc++;
; 1437 : 			actualticks += 8;
; 1438 : 			break;
; 1439 : 		}
; 1440 : 		case 0xe4: {
; 1441 : 			opc_cmp(regs.x, mbus->readmemory(_mem_zero));

	mov	rcx, QWORD PTR [rsi+88]
	movzx	edx, bp
	call	?readmemory@bus@@QEAAEH@Z		; bus::readmemory
	mov	rcx, QWORD PTR [rsi+88]
	movzx	edx, al
	call	?readmemory@bus@@QEAAEH@Z		; bus::readmemory
	movzx	edx, BYTE PTR [rsi+75]
	movzx	r8d, al
	mov	rcx, rsi
	call	?opc_cmp@cpu2a03_fast@@AEAAXEE@Z	; cpu2a03_fast::opc_cmp

; 1595 : 			opc_sbc(t);
; 1596 : 			regs.pc += 2;
; 1597 : 			actualticks += 7;
; 1598 : 			break;
; 1599 : 		}
; 1600 : 	}
; 1601 : 	return actualticks * tick_rate;

	inc	WORD PTR [rsi+72]
	mov	edi, 3
	jmp	$LN2@rundevice_
$LN264@rundevice_:

; 1442 : 			regs.pc++;
; 1443 : 			actualticks += 3;
; 1444 : 			break;
; 1445 : 		}
; 1446 : 		case 0xe5: {
; 1447 : 			opc_sbc(mbus->readmemory(_mem_zero));

	mov	rcx, QWORD PTR [rsi+88]
	movzx	edx, bp
	call	?readmemory@bus@@QEAAEH@Z		; bus::readmemory
	mov	rcx, QWORD PTR [rsi+88]
	movzx	edx, al
	call	?readmemory@bus@@QEAAEH@Z		; bus::readmemory
	movzx	edx, al
	mov	rcx, rsi
	call	?opc_sbc@cpu2a03_fast@@AEAAXE@Z		; cpu2a03_fast::opc_sbc

; 1595 : 			opc_sbc(t);
; 1596 : 			regs.pc += 2;
; 1597 : 			actualticks += 7;
; 1598 : 			break;
; 1599 : 		}
; 1600 : 	}
; 1601 : 	return actualticks * tick_rate;

	inc	WORD PTR [rsi+72]
	mov	edi, 3
	jmp	$LN2@rundevice_
$LN265@rundevice_:

; 1448 : 			regs.pc++;
; 1449 : 			actualticks += 3;
; 1450 : 			break;
; 1451 : 		}
; 1452 : 		case 0xe6: {
; 1453 : 			mbus->writememory(_mem_zero, opc_inc(mbus->readmemory(_mem_zero)));

	mov	rcx, QWORD PTR [rsi+88]
	movzx	edx, bp
	call	?readmemory@bus@@QEAAEH@Z		; bus::readmemory
	mov	rcx, QWORD PTR [rsi+88]
	movzx	edx, al
	call	?readmemory@bus@@QEAAEH@Z		; bus::readmemory
	movzx	edx, al
	mov	rcx, rsi
	call	?opc_inc@cpu2a03_fast@@AEAAEE@Z		; cpu2a03_fast::opc_inc

; 1454 : 			regs.pc++;
; 1455 : 			actualticks += 5;
; 1456 : 			break;

	jmp	$LN1826@rundevice_
$LN266@rundevice_:

; 1457 : 		}
; 1458 : 		case 0xe7: {
; 1459 : 			byte t = opc_inc(mbus->readmemory(_mem_zero));

	mov	rcx, QWORD PTR [rsi+88]
	movzx	edx, bp
	call	?readmemory@bus@@QEAAEH@Z		; bus::readmemory
	mov	rcx, QWORD PTR [rsi+88]
	movzx	edx, al
	call	?readmemory@bus@@QEAAEH@Z		; bus::readmemory
	movzx	edx, al
	mov	rcx, rsi
	call	?opc_inc@cpu2a03_fast@@AEAAEE@Z		; cpu2a03_fast::opc_inc

; 1460 : 			mbus->writememory(_mem_zero, t);

	movzx	edx, WORD PTR [rsi+72]
	movzx	ebx, al
	mov	rcx, QWORD PTR [rsi+88]
	call	?readmemory@bus@@QEAAEH@Z		; bus::readmemory
	mov	rcx, QWORD PTR [rsi+88]
	movzx	r8d, bl
	movzx	edx, al
	call	?writememory@bus@@QEAAXHE@Z		; bus::writememory

; 1461 : 			opc_sbc(t);

	movzx	edx, bl
	mov	rcx, rsi
	call	?opc_sbc@cpu2a03_fast@@AEAAXE@Z		; cpu2a03_fast::opc_sbc

; 1595 : 			opc_sbc(t);
; 1596 : 			regs.pc += 2;
; 1597 : 			actualticks += 7;
; 1598 : 			break;
; 1599 : 		}
; 1600 : 	}
; 1601 : 	return actualticks * tick_rate;

	inc	WORD PTR [rsi+72]
	mov	edi, 5
	jmp	$LN2@rundevice_
$LN267@rundevice_:

; 1462 : 			regs.pc++;
; 1463 : 			actualticks += 5;
; 1464 : 			break;
; 1465 : 		}
; 1466 : 		case 0xe8: { // inx
; 1467 : 			regs.x = opc_inc(regs.x);

	movzx	edx, BYTE PTR [rsi+75]
	mov	rcx, rsi
	call	?opc_inc@cpu2a03_fast@@AEAAEE@Z		; cpu2a03_fast::opc_inc
	mov	BYTE PTR [rsi+75], al

; 1595 : 			opc_sbc(t);
; 1596 : 			regs.pc += 2;
; 1597 : 			actualticks += 7;
; 1598 : 			break;
; 1599 : 		}
; 1600 : 	}
; 1601 : 	return actualticks * tick_rate;

	mov	edi, 2
	jmp	$LN2@rundevice_
$LN268@rundevice_:

; 1468 : 			actualticks += 2;
; 1469 : 			break;
; 1470 : 		}
; 1471 : 		case 0xe9: case 0xeb: {
; 1472 : 			opc_sbc(mbus->readmemory(_mem_immediate));

	mov	rcx, QWORD PTR [rsi+88]
	movzx	edx, bp
	call	?readmemory@bus@@QEAAEH@Z		; bus::readmemory
	movzx	edx, al
	mov	rcx, rsi
	call	?opc_sbc@cpu2a03_fast@@AEAAXE@Z		; cpu2a03_fast::opc_sbc
	inc	WORD PTR [rsi+72]

; 1595 : 			opc_sbc(t);
; 1596 : 			regs.pc += 2;
; 1597 : 			actualticks += 7;
; 1598 : 			break;
; 1599 : 		}
; 1600 : 	}
; 1601 : 	return actualticks * tick_rate;

	mov	edi, 2
	jmp	$LN2@rundevice_
$LN270@rundevice_:

; 1473 : 			regs.pc++;
; 1474 : 			actualticks += 2;
; 1475 : 			break;
; 1476 : 		}
; 1477 : 		case 0xea: { // nop
; 1478 : 			actualticks += 2;
; 1479 : 			break;
; 1480 : 		}
; 1481 : 		case 0xec: {
; 1482 : 			opc_cmp(regs.x, mbus->readmemory(_mem_absolute));

	mov	rcx, QWORD PTR [rsi+88]
	movzx	edx, bp
	call	?readmemory_as_word@bus@@QEAAGH@Z	; bus::readmemory_as_word
	mov	rcx, QWORD PTR [rsi+88]
	movzx	edx, ax
	call	?readmemory@bus@@QEAAEH@Z		; bus::readmemory
	movzx	edx, BYTE PTR [rsi+75]
	movzx	r8d, al
	mov	rcx, rsi
	call	?opc_cmp@cpu2a03_fast@@AEAAXEE@Z	; cpu2a03_fast::opc_cmp

; 1483 : 			regs.pc += 2;
; 1484 : 			actualticks += 4;

	mov	edi, 4

; 1485 : 			break;

	jmp	$LN1797@rundevice_
$LN271@rundevice_:

; 1486 : 		}
; 1487 : 		case 0xed: {
; 1488 : 			opc_sbc(mbus->readmemory(_mem_absolute));

	mov	rcx, QWORD PTR [rsi+88]
	movzx	edx, bp
	call	?readmemory_as_word@bus@@QEAAGH@Z	; bus::readmemory_as_word
	mov	rcx, QWORD PTR [rsi+88]
	movzx	edx, ax
	call	?readmemory@bus@@QEAAEH@Z		; bus::readmemory
	movzx	edx, al
	mov	rcx, rsi
	call	?opc_sbc@cpu2a03_fast@@AEAAXE@Z		; cpu2a03_fast::opc_sbc

; 1489 : 			regs.pc += 2;
; 1490 : 			actualticks += 4;

	mov	edi, 4

; 1491 : 			break;

	jmp	$LN1797@rundevice_
$LN272@rundevice_:

; 1492 : 		}
; 1493 : 		case 0xee: {
; 1494 : 			mbus->writememory(_mem_absolute, opc_inc(mbus->readmemory(_mem_absolute)));

	mov	rcx, QWORD PTR [rsi+88]
	movzx	edx, bp
	call	?readmemory_as_word@bus@@QEAAGH@Z	; bus::readmemory_as_word
	mov	rcx, QWORD PTR [rsi+88]
	movzx	edx, ax
	call	?readmemory@bus@@QEAAEH@Z		; bus::readmemory
	movzx	edx, al
	mov	rcx, rsi
	call	?opc_inc@cpu2a03_fast@@AEAAEE@Z		; cpu2a03_fast::opc_inc

; 1495 : 			regs.pc += 2;
; 1496 : 			actualticks += 6;
; 1497 : 			break;

	jmp	$LN1807@rundevice_
$LN273@rundevice_:

; 1498 : 		}
; 1499 : 		case 0xef: {
; 1500 : 			byte t = opc_inc(mbus->readmemory(_mem_absolute));

	mov	rcx, QWORD PTR [rsi+88]
	movzx	edx, bp
	call	?readmemory_as_word@bus@@QEAAGH@Z	; bus::readmemory_as_word
	mov	rcx, QWORD PTR [rsi+88]
	movzx	edx, ax
	call	?readmemory@bus@@QEAAEH@Z		; bus::readmemory
	movzx	edx, al
	mov	rcx, rsi
	call	?opc_inc@cpu2a03_fast@@AEAAEE@Z		; cpu2a03_fast::opc_inc

; 1501 : 			mbus->writememory(_mem_absolute, t);

	movzx	edx, WORD PTR [rsi+72]
	movzx	ebx, al
	mov	rcx, QWORD PTR [rsi+88]
	call	?readmemory_as_word@bus@@QEAAGH@Z	; bus::readmemory_as_word
	mov	rcx, QWORD PTR [rsi+88]
	movzx	r8d, bl
	movzx	edx, ax
	call	?writememory@bus@@QEAAXHE@Z		; bus::writememory

; 1502 : 			opc_sbc(t);

	movzx	edx, bl
	mov	rcx, rsi
	call	?opc_sbc@cpu2a03_fast@@AEAAXE@Z		; cpu2a03_fast::opc_sbc

; 1595 : 			opc_sbc(t);
; 1596 : 			regs.pc += 2;
; 1597 : 			actualticks += 7;
; 1598 : 			break;
; 1599 : 		}
; 1600 : 	}
; 1601 : 	return actualticks * tick_rate;

	mov	edi, 6
	jmp	$LN1797@rundevice_
$LN274@rundevice_:

; 1503 : 			regs.pc += 2;
; 1504 : 			actualticks += 6;
; 1505 : 			break;
; 1506 : 		}
; 1507 : 		case 0xf0: { // beq
; 1508 : 			actualticks += 2;

	mov	edi, 2

; 1509 : 			if (regs.sr & cf_zero) {

	test	BYTE PTR [rsi+78], dil

; 1510 : 				actualticks++;
; 1511 : 				if ((regs.pc & 0xFF00) != (_mem_relative & 0xFF00)) actualticks++;

	jmp	$LN1850@rundevice_
$LN278@rundevice_:

; 1512 : 				regs.pc = _mem_relative;
; 1513 : 			} else regs.pc++;
; 1514 : 			break;
; 1515 : 		}
; 1516 : 		case 0xf1: {
; 1517 : 			opc_sbc(mbus->readmemory(_mem_index_y));

	mov	rcx, QWORD PTR [rsi+88]
	movzx	edx, bp
	call	?readmemory@bus@@QEAAEH@Z		; bus::readmemory
	mov	rcx, QWORD PTR [rsi+88]
	movzx	edx, al
	call	?readmemory_as_word_wrap@bus@@QEAAGH@Z	; bus::readmemory_as_word_wrap
	movzx	ecx, BYTE PTR [rsi+76]
	add	ax, cx
	mov	rcx, QWORD PTR [rsi+88]
	movzx	edx, ax
	call	?readmemory@bus@@QEAAEH@Z		; bus::readmemory
	movzx	edx, al
	mov	rcx, rsi
	call	?opc_sbc@cpu2a03_fast@@AEAAXE@Z		; cpu2a03_fast::opc_sbc

; 1518 : 			if (_mem_index_y_inc) actualticks++;

	movzx	edx, WORD PTR [rsi+72]
	mov	rcx, QWORD PTR [rsi+88]
	call	?readmemory@bus@@QEAAEH@Z		; bus::readmemory
	mov	rcx, QWORD PTR [rsi+88]
	movzx	edx, al
	call	?readmemory_as_word_wrap@bus@@QEAAGH@Z	; bus::readmemory_as_word_wrap
	movzx	ebx, BYTE PTR [rsi+76]
	mov	ebp, 65280				; 0000ff00H
	movzx	edx, WORD PTR [rsi+72]
	mov	rcx, QWORD PTR [rsi+88]
	movzx	eax, ax
	add	ebx, eax
	and	ebx, ebp
	call	?readmemory@bus@@QEAAEH@Z		; bus::readmemory
	mov	rcx, QWORD PTR [rsi+88]
	movzx	edx, al
	call	?readmemory_as_word_wrap@bus@@QEAAGH@Z	; bus::readmemory_as_word_wrap

; 1519 : 			regs.pc++;

	inc	WORD PTR [rsi+72]
	and	eax, ebp

; 1595 : 			opc_sbc(t);
; 1596 : 			regs.pc += 2;
; 1597 : 			actualticks += 7;
; 1598 : 			break;
; 1599 : 		}
; 1600 : 	}
; 1601 : 	return actualticks * tick_rate;

	cmp	eax, ebx
	setne	dil
	add	edi, 5
	jmp	$LN2@rundevice_
$LN281@rundevice_:

; 1520 : 			actualticks += 5;
; 1521 : 			break;
; 1522 : 		}
; 1523 : 		case 0xf2: {
; 1524 : 			error_state = true;
; 1525 : 			break;
; 1526 : 		}
; 1527 : 		case 0xf3: {
; 1528 : 			byte t = opc_inc(mbus->readmemory(_mem_index_y));

	mov	rcx, QWORD PTR [rsi+88]
	movzx	edx, bp
	call	?readmemory@bus@@QEAAEH@Z		; bus::readmemory
	mov	rcx, QWORD PTR [rsi+88]
	movzx	edx, al
	call	?readmemory_as_word_wrap@bus@@QEAAGH@Z	; bus::readmemory_as_word_wrap
	movzx	ecx, BYTE PTR [rsi+76]
	add	ax, cx
	mov	rcx, QWORD PTR [rsi+88]
	movzx	edx, ax
	call	?readmemory@bus@@QEAAEH@Z		; bus::readmemory
	movzx	edx, al
	mov	rcx, rsi
	call	?opc_inc@cpu2a03_fast@@AEAAEE@Z		; cpu2a03_fast::opc_inc

; 1529 : 			mbus->writememory(_mem_index_y, t);

	movzx	edx, WORD PTR [rsi+72]
	movzx	ebx, al
	mov	rcx, QWORD PTR [rsi+88]
	call	?readmemory@bus@@QEAAEH@Z		; bus::readmemory
	mov	rcx, QWORD PTR [rsi+88]
	movzx	edx, al
	call	?readmemory_as_word_wrap@bus@@QEAAGH@Z	; bus::readmemory_as_word_wrap
	movzx	ecx, BYTE PTR [rsi+76]
	movzx	r8d, bl
	add	ax, cx
	mov	rcx, QWORD PTR [rsi+88]
	movzx	edx, ax
	call	?writememory@bus@@QEAAXHE@Z		; bus::writememory

; 1530 : 			opc_sbc(t);

	movzx	edx, bl
	mov	rcx, rsi
	call	?opc_sbc@cpu2a03_fast@@AEAAXE@Z		; cpu2a03_fast::opc_sbc

; 1595 : 			opc_sbc(t);
; 1596 : 			regs.pc += 2;
; 1597 : 			actualticks += 7;
; 1598 : 			break;
; 1599 : 		}
; 1600 : 	}
; 1601 : 	return actualticks * tick_rate;

	inc	WORD PTR [rsi+72]
	mov	edi, 8
	jmp	$LN2@rundevice_
$LN282@rundevice_:

; 1531 : 			regs.pc++;
; 1532 : 			actualticks += 8;
; 1533 : 			break;
; 1534 : 		}
; 1535 : 		case 0xf5: {
; 1536 : 			opc_sbc(mbus->readmemory(_mem_zero_x));

	mov	rcx, QWORD PTR [rsi+88]
	movzx	edx, bp
	call	?readmemory@bus@@QEAAEH@Z		; bus::readmemory
	movzx	ecx, BYTE PTR [rsi+75]
	add	ecx, eax
	movzx	edx, cl
	mov	rcx, QWORD PTR [rsi+88]
	call	?readmemory@bus@@QEAAEH@Z		; bus::readmemory
	movzx	edx, al
	mov	rcx, rsi
	call	?opc_sbc@cpu2a03_fast@@AEAAXE@Z		; cpu2a03_fast::opc_sbc

; 1595 : 			opc_sbc(t);
; 1596 : 			regs.pc += 2;
; 1597 : 			actualticks += 7;
; 1598 : 			break;
; 1599 : 		}
; 1600 : 	}
; 1601 : 	return actualticks * tick_rate;

	inc	WORD PTR [rsi+72]
	mov	edi, 4
	jmp	$LN2@rundevice_
$LN283@rundevice_:

; 1537 : 			regs.pc++;
; 1538 : 			actualticks += 4;
; 1539 : 			break;
; 1540 : 		}
; 1541 : 		case 0xf6: {
; 1542 : 			mbus->writememory(_mem_zero_x, opc_inc(mbus->readmemory(_mem_zero_x)));

	mov	rcx, QWORD PTR [rsi+88]
	movzx	edx, bp
	call	?readmemory@bus@@QEAAEH@Z		; bus::readmemory
	movzx	edx, WORD PTR [rsi+72]
	mov	rcx, QWORD PTR [rsi+88]
	movzx	ebx, al
	call	?readmemory@bus@@QEAAEH@Z		; bus::readmemory
	mov	rcx, QWORD PTR [rsi+88]
	movzx	edi, al
	movzx	eax, BYTE PTR [rsi+75]
	add	eax, ebx
	movzx	edx, al
	call	?readmemory@bus@@QEAAEH@Z		; bus::readmemory
	movzx	edx, al
	mov	rcx, rsi
	call	?opc_inc@cpu2a03_fast@@AEAAEE@Z		; cpu2a03_fast::opc_inc
	movzx	r8d, al
	movzx	eax, BYTE PTR [rsi+75]
	add	eax, edi
	movzx	edx, al

; 1543 : 			regs.pc++;
; 1544 : 			actualticks += 6;
; 1545 : 			break;

	jmp	$LN1834@rundevice_
$LN284@rundevice_:

; 1546 : 		}
; 1547 : 		case 0xf7: {
; 1548 : 			byte t = opc_inc(mbus->readmemory(_mem_zero_x));

	mov	rcx, QWORD PTR [rsi+88]
	movzx	edx, bp
	call	?readmemory@bus@@QEAAEH@Z		; bus::readmemory
	movzx	ecx, al
	movzx	eax, BYTE PTR [rsi+75]
	add	eax, ecx
	mov	rcx, QWORD PTR [rsi+88]
	movzx	edx, al
	call	?readmemory@bus@@QEAAEH@Z		; bus::readmemory
	movzx	edx, al
	mov	rcx, rsi
	call	?opc_inc@cpu2a03_fast@@AEAAEE@Z		; cpu2a03_fast::opc_inc

; 1549 : 			mbus->writememory(_mem_zero_x, t);

	movzx	edx, WORD PTR [rsi+72]
	movzx	ebx, al
	mov	rcx, QWORD PTR [rsi+88]
	call	?readmemory@bus@@QEAAEH@Z		; bus::readmemory
	movzx	edx, BYTE PTR [rsi+75]
	movzx	r8d, bl
	movzx	ecx, al
	add	edx, ecx
	mov	rcx, QWORD PTR [rsi+88]
	movzx	edx, dl
	call	?writememory@bus@@QEAAXHE@Z		; bus::writememory

; 1550 : 			opc_sbc(t);

	movzx	edx, bl
	mov	rcx, rsi
	call	?opc_sbc@cpu2a03_fast@@AEAAXE@Z		; cpu2a03_fast::opc_sbc

; 1595 : 			opc_sbc(t);
; 1596 : 			regs.pc += 2;
; 1597 : 			actualticks += 7;
; 1598 : 			break;
; 1599 : 		}
; 1600 : 	}
; 1601 : 	return actualticks * tick_rate;

	inc	WORD PTR [rsi+72]
	mov	edi, 6
	jmp	$LN2@rundevice_
$LN285@rundevice_:

; 1551 : 			regs.pc++;
; 1552 : 			actualticks += 6;
; 1553 : 			break;
; 1554 : 		}
; 1555 : 		case 0xf8: { //sed
; 1556 : 			regs.sr |= cf_decimal;

	or	BYTE PTR [rsi+78], 8

; 1595 : 			opc_sbc(t);
; 1596 : 			regs.pc += 2;
; 1597 : 			actualticks += 7;
; 1598 : 			break;
; 1599 : 		}
; 1600 : 	}
; 1601 : 	return actualticks * tick_rate;

	mov	edi, 2
	jmp	$LN2@rundevice_
$LN286@rundevice_:

; 1557 : 			actualticks += 2;
; 1558 : 			break;
; 1559 : 		}
; 1560 : 		case 0xf9: {
; 1561 : 			opc_sbc(mbus->readmemory(_mem_absolute_y));

	mov	rcx, QWORD PTR [rsi+88]
	movzx	edx, bp
	call	?readmemory_as_word@bus@@QEAAGH@Z	; bus::readmemory_as_word
	movzx	ecx, BYTE PTR [rsi+76]
	add	ax, cx
	mov	rcx, QWORD PTR [rsi+88]
	movzx	edx, ax
	call	?readmemory@bus@@QEAAEH@Z		; bus::readmemory
	movzx	edx, al
	mov	rcx, rsi
	call	?opc_sbc@cpu2a03_fast@@AEAAXE@Z		; cpu2a03_fast::opc_sbc

; 1562 : 			regs.pc += 2;
; 1563 : 			actualticks += 4;
; 1564 : 			if ((_mem_absolute & 0xFF00) != (_mem_absolute_y & 0xFF00)) actualticks++;
; 1565 : 			break;

	jmp	$LN1817@rundevice_
$LN289@rundevice_:

; 1566 : 		}
; 1567 : 		case 0xfa: {
; 1568 : 			error_state = true;
; 1569 : 			break;
; 1570 : 		}
; 1571 : 		case 0xfb: {
; 1572 : 			byte t = opc_inc(mbus->readmemory(_mem_absolute_y));

	mov	rcx, QWORD PTR [rsi+88]
	movzx	edx, bp
	call	?readmemory_as_word@bus@@QEAAGH@Z	; bus::readmemory_as_word
	movzx	ecx, BYTE PTR [rsi+76]
	add	ax, cx
	mov	rcx, QWORD PTR [rsi+88]
	movzx	edx, ax
	call	?readmemory@bus@@QEAAEH@Z		; bus::readmemory
	movzx	edx, al
	mov	rcx, rsi
	call	?opc_inc@cpu2a03_fast@@AEAAEE@Z		; cpu2a03_fast::opc_inc

; 1573 : 			mbus->writememory(_mem_absolute_y, t);

	movzx	edx, WORD PTR [rsi+72]
	movzx	ebx, al
	mov	rcx, QWORD PTR [rsi+88]
	call	?readmemory_as_word@bus@@QEAAGH@Z	; bus::readmemory_as_word
	movzx	ecx, BYTE PTR [rsi+76]

; 1574 : 			opc_sbc(t);
; 1575 : 			regs.pc += 2;
; 1576 : 			actualticks += 7;
; 1577 : 			break;

	jmp	$LN1799@rundevice_
$LN290@rundevice_:

; 1578 : 		}
; 1579 : 		case 0xfd: {
; 1580 : 			opc_sbc(mbus->readmemory(_mem_absolute_x));

	mov	rcx, QWORD PTR [rsi+88]
	movzx	edx, bp
	call	?readmemory_as_word@bus@@QEAAGH@Z	; bus::readmemory_as_word
	movzx	ecx, BYTE PTR [rsi+75]
	add	ax, cx
	mov	rcx, QWORD PTR [rsi+88]
	movzx	edx, ax
	call	?readmemory@bus@@QEAAEH@Z		; bus::readmemory
	movzx	edx, al
	mov	rcx, rsi
	call	?opc_sbc@cpu2a03_fast@@AEAAXE@Z		; cpu2a03_fast::opc_sbc

; 1581 : 			regs.pc += 2;
; 1582 : 			actualticks += 4;
; 1583 : 			if ((_mem_absolute & 0xFF00) != (_mem_absolute_x & 0xFF00)) actualticks++;
; 1584 : 			break;

	jmp	$LN1845@rundevice_
$LN292@rundevice_:

; 1585 : 		}
; 1586 : 		case 0xfe: {
; 1587 : 			mbus->writememory(_mem_absolute_x, opc_inc(mbus->readmemory(_mem_absolute_x)));

	mov	rcx, QWORD PTR [rsi+88]
	movzx	edx, bp
	call	?readmemory_as_word@bus@@QEAAGH@Z	; bus::readmemory_as_word
	movzx	ecx, BYTE PTR [rsi+75]
	add	ax, cx
	mov	rcx, QWORD PTR [rsi+88]
	movzx	edx, ax
	call	?readmemory@bus@@QEAAEH@Z		; bus::readmemory
	movzx	edx, al
	mov	rcx, rsi
	call	?opc_inc@cpu2a03_fast@@AEAAEE@Z		; cpu2a03_fast::opc_inc

; 1588 : 			regs.pc += 2;
; 1589 : 			actualticks += 7;
; 1590 : 			break;

	jmp	$LN1804@rundevice_
$LN293@rundevice_:

; 1591 : 		}
; 1592 : 		case 0xff: {
; 1593 : 			byte t = opc_inc(mbus->readmemory(_mem_absolute_x));

	mov	rcx, QWORD PTR [rsi+88]
	movzx	edx, bp
	call	?readmemory_as_word@bus@@QEAAGH@Z	; bus::readmemory_as_word
	movzx	ecx, BYTE PTR [rsi+75]
	add	ax, cx
	mov	rcx, QWORD PTR [rsi+88]
	movzx	edx, ax
	call	?readmemory@bus@@QEAAEH@Z		; bus::readmemory
	movzx	edx, al
	mov	rcx, rsi
	call	?opc_inc@cpu2a03_fast@@AEAAEE@Z		; cpu2a03_fast::opc_inc

; 1594 : 			mbus->writememory(_mem_absolute_x, t);

	movzx	edx, WORD PTR [rsi+72]
	movzx	ebx, al
	mov	rcx, QWORD PTR [rsi+88]
	call	?readmemory_as_word@bus@@QEAAGH@Z	; bus::readmemory_as_word
	movzx	ecx, BYTE PTR [rsi+75]
$LN1799@rundevice_:

; 1595 : 			opc_sbc(t);
; 1596 : 			regs.pc += 2;
; 1597 : 			actualticks += 7;
; 1598 : 			break;
; 1599 : 		}
; 1600 : 	}
; 1601 : 	return actualticks * tick_rate;

	add	ax, cx
	movzx	r8d, bl
	mov	rcx, QWORD PTR [rsi+88]
	movzx	edx, ax
	call	?writememory@bus@@QEAAXHE@Z		; bus::writememory
	movzx	edx, bl
	mov	rcx, rsi
	call	?opc_sbc@cpu2a03_fast@@AEAAXE@Z		; cpu2a03_fast::opc_sbc
$LN1798@rundevice_:
	mov	edi, 7
$LN1797@rundevice_:
	add	WORD PTR [rsi+72], 2
$LN2@rundevice_:
	mov	eax, DWORD PTR [rsi+16]
	mov	rbp, QWORD PTR [rsp+64]
	mov	rbx, QWORD PTR [rsp+48]

; 1602 : }

	mov	rsi, QWORD PTR [rsp+72]
	imul	eax, edi
	add	rsp, 32					; 00000020H
	pop	rdi
	ret	0
	npad	3
$LN1795@rundevice_:
	DD	$LN9@rundevice_
	DD	$LN10@rundevice_
	DD	$LN11@rundevice_
	DD	$LN12@rundevice_
	DD	$LN13@rundevice_
	DD	$LN14@rundevice_
	DD	$LN15@rundevice_
	DD	$LN16@rundevice_
	DD	$LN17@rundevice_
	DD	$LN18@rundevice_
	DD	$LN19@rundevice_
	DD	$LN20@rundevice_
	DD	$LN21@rundevice_
	DD	$LN22@rundevice_
	DD	$LN23@rundevice_
	DD	$LN24@rundevice_
	DD	$LN25@rundevice_
	DD	$LN29@rundevice_
	DD	$LN11@rundevice_
	DD	$LN32@rundevice_
	DD	$LN33@rundevice_
	DD	$LN34@rundevice_
	DD	$LN35@rundevice_
	DD	$LN36@rundevice_
	DD	$LN37@rundevice_
	DD	$LN38@rundevice_
	DD	$LN11@rundevice_
	DD	$LN41@rundevice_
	DD	$LN21@rundevice_
	DD	$LN42@rundevice_
	DD	$LN44@rundevice_
	DD	$LN45@rundevice_
	DD	$LN46@rundevice_
	DD	$LN47@rundevice_
	DD	$LN11@rundevice_
	DD	$LN49@rundevice_
	DD	$LN50@rundevice_
	DD	$LN51@rundevice_
	DD	$LN52@rundevice_
	DD	$LN53@rundevice_
	DD	$LN54@rundevice_
	DD	$LN55@rundevice_
	DD	$LN56@rundevice_
	DD	$LN20@rundevice_
	DD	$LN57@rundevice_
	DD	$LN58@rundevice_
	DD	$LN59@rundevice_
	DD	$LN60@rundevice_
	DD	$LN61@rundevice_
	DD	$LN65@rundevice_
	DD	$LN11@rundevice_
	DD	$LN68@rundevice_
	DD	$LN33@rundevice_
	DD	$LN69@rundevice_
	DD	$LN70@rundevice_
	DD	$LN71@rundevice_
	DD	$LN72@rundevice_
	DD	$LN73@rundevice_
	DD	$LN11@rundevice_
	DD	$LN76@rundevice_
	DD	$LN21@rundevice_
	DD	$LN77@rundevice_
	DD	$LN79@rundevice_
	DD	$LN80@rundevice_
	DD	$LN81@rundevice_
	DD	$LN82@rundevice_
	DD	$LN11@rundevice_
	DD	$LN84@rundevice_
	DD	$LN13@rundevice_
	DD	$LN85@rundevice_
	DD	$LN86@rundevice_
	DD	$LN87@rundevice_
	DD	$LN88@rundevice_
	DD	$LN89@rundevice_
	DD	$LN90@rundevice_
	DD	$LN91@rundevice_
	DD	$LN92@rundevice_
	DD	$LN93@rundevice_
	DD	$LN94@rundevice_
	DD	$LN95@rundevice_
	DD	$LN96@rundevice_
	DD	$LN100@rundevice_
	DD	$LN11@rundevice_
	DD	$LN103@rundevice_
	DD	$LN33@rundevice_
	DD	$LN104@rundevice_
	DD	$LN105@rundevice_
	DD	$LN106@rundevice_
	DD	$LN107@rundevice_
	DD	$LN108@rundevice_
	DD	$LN11@rundevice_
	DD	$LN111@rundevice_
	DD	$LN21@rundevice_
	DD	$LN112@rundevice_
	DD	$LN114@rundevice_
	DD	$LN115@rundevice_
	DD	$LN116@rundevice_
	DD	$LN117@rundevice_
	DD	$LN11@rundevice_
	DD	$LN119@rundevice_
	DD	$LN13@rundevice_
	DD	$LN120@rundevice_
	DD	$LN121@rundevice_
	DD	$LN122@rundevice_
	DD	$LN123@rundevice_
	DD	$LN124@rundevice_
	DD	$LN125@rundevice_
	DD	$LN126@rundevice_
	DD	$LN127@rundevice_
	DD	$LN128@rundevice_
	DD	$LN129@rundevice_
	DD	$LN130@rundevice_
	DD	$LN131@rundevice_
	DD	$LN135@rundevice_
	DD	$LN11@rundevice_
	DD	$LN138@rundevice_
	DD	$LN33@rundevice_
	DD	$LN139@rundevice_
	DD	$LN140@rundevice_
	DD	$LN141@rundevice_
	DD	$LN142@rundevice_
	DD	$LN143@rundevice_
	DD	$LN11@rundevice_
	DD	$LN146@rundevice_
	DD	$LN21@rundevice_
	DD	$LN147@rundevice_
	DD	$LN149@rundevice_
	DD	$LN150@rundevice_
	DD	$LN151@rundevice_
	DD	$LN152@rundevice_
	DD	$LN151@rundevice_
	DD	$LN153@rundevice_
	DD	$LN154@rundevice_
	DD	$LN155@rundevice_
	DD	$LN156@rundevice_
	DD	$LN157@rundevice_
	DD	$LN158@rundevice_
	DD	$LN151@rundevice_
	DD	$LN159@rundevice_
	DD	$LN11@rundevice_
	DD	$LN161@rundevice_
	DD	$LN162@rundevice_
	DD	$LN163@rundevice_
	DD	$LN164@rundevice_
	DD	$LN165@rundevice_
	DD	$LN169@rundevice_
	DD	$LN11@rundevice_
	DD	$LN11@rundevice_
	DD	$LN171@rundevice_
	DD	$LN172@rundevice_
	DD	$LN173@rundevice_
	DD	$LN174@rundevice_
	DD	$LN175@rundevice_
	DD	$LN176@rundevice_
	DD	$LN177@rundevice_
	DD	$LN11@rundevice_
	DD	$LN179@rundevice_
	DD	$LN180@rundevice_
	DD	$LN181@rundevice_
	DD	$LN11@rundevice_
	DD	$LN183@rundevice_
	DD	$LN184@rundevice_
	DD	$LN185@rundevice_
	DD	$LN186@rundevice_
	DD	$LN187@rundevice_
	DD	$LN188@rundevice_
	DD	$LN189@rundevice_
	DD	$LN190@rundevice_
	DD	$LN191@rundevice_
	DD	$LN192@rundevice_
	DD	$LN193@rundevice_
	DD	$LN194@rundevice_
	DD	$LN195@rundevice_
	DD	$LN196@rundevice_
	DD	$LN197@rundevice_
	DD	$LN198@rundevice_
	DD	$LN199@rundevice_
	DD	$LN203@rundevice_
	DD	$LN11@rundevice_
	DD	$LN206@rundevice_
	DD	$LN208@rundevice_
	DD	$LN209@rundevice_
	DD	$LN210@rundevice_
	DD	$LN211@rundevice_
	DD	$LN212@rundevice_
	DD	$LN213@rundevice_
	DD	$LN215@rundevice_
	DD	$LN11@rundevice_
	DD	$LN217@rundevice_
	DD	$LN219@rundevice_
	DD	$LN221@rundevice_
	DD	$LN223@rundevice_
	DD	$LN225@rundevice_
	DD	$LN226@rundevice_
	DD	$LN151@rundevice_
	DD	$LN227@rundevice_
	DD	$LN228@rundevice_
	DD	$LN229@rundevice_
	DD	$LN230@rundevice_
	DD	$LN231@rundevice_
	DD	$LN232@rundevice_
	DD	$LN233@rundevice_
	DD	$LN234@rundevice_
	DD	$LN235@rundevice_
	DD	$LN236@rundevice_
	DD	$LN237@rundevice_
	DD	$LN238@rundevice_
	DD	$LN239@rundevice_
	DD	$LN240@rundevice_
	DD	$LN244@rundevice_
	DD	$LN11@rundevice_
	DD	$LN247@rundevice_
	DD	$LN33@rundevice_
	DD	$LN248@rundevice_
	DD	$LN249@rundevice_
	DD	$LN250@rundevice_
	DD	$LN251@rundevice_
	DD	$LN252@rundevice_
	DD	$LN11@rundevice_
	DD	$LN255@rundevice_
	DD	$LN21@rundevice_
	DD	$LN256@rundevice_
	DD	$LN258@rundevice_
	DD	$LN259@rundevice_
	DD	$LN260@rundevice_
	DD	$LN261@rundevice_
	DD	$LN151@rundevice_
	DD	$LN262@rundevice_
	DD	$LN263@rundevice_
	DD	$LN264@rundevice_
	DD	$LN265@rundevice_
	DD	$LN266@rundevice_
	DD	$LN267@rundevice_
	DD	$LN268@rundevice_
	DD	$LN269@rundevice_
	DD	$LN268@rundevice_
	DD	$LN270@rundevice_
	DD	$LN271@rundevice_
	DD	$LN272@rundevice_
	DD	$LN273@rundevice_
	DD	$LN274@rundevice_
	DD	$LN278@rundevice_
	DD	$LN11@rundevice_
	DD	$LN281@rundevice_
	DD	$LN33@rundevice_
	DD	$LN282@rundevice_
	DD	$LN283@rundevice_
	DD	$LN284@rundevice_
	DD	$LN285@rundevice_
	DD	$LN286@rundevice_
	DD	$LN11@rundevice_
	DD	$LN289@rundevice_
	DD	$LN21@rundevice_
	DD	$LN290@rundevice_
	DD	$LN292@rundevice_
	DD	$LN293@rundevice_
?rundevice_internal@cpu2a03_fast@@AEAAHH@Z ENDP		; cpu2a03_fast::rundevice_internal
_TEXT	ENDS
; Function compile flags: /Ogtpy
; File c:\users\nightorius.phibian\source\repos\denveremu\denveremu\cpu\cpu2a03_fast.cpp
;	COMDAT ?opc_ld_@cpu2a03_fast@@AEAAXAEAEE@Z
_TEXT	SEGMENT
this$ = 8
rdata$ = 16
data$ = 24
?opc_ld_@cpu2a03_fast@@AEAAXAEAEE@Z PROC		; cpu2a03_fast::opc_ld_, COMDAT

; 1608 : 	rdata = data;

	mov	BYTE PTR [rdx], r8b
	mov	r9, rcx

; 1609 : 	regs.sr &= 0xFF - (cf_negative | cf_zero);

	movzx	eax, BYTE PTR [rcx+78]
	and	eax, 125				; 0000007dH

; 1610 : 	regs.sr = data & 0x80 ? regs.sr | cf_negative : regs.sr;

	test	r8b, r8b
	jns	SHORT $LN3@opc_ld_
	bts	eax, 7
$LN3@opc_ld_:
	movzx	ecx, al

; 1611 : 	regs.sr = !data ? regs.sr | cf_zero : regs.sr;

	test	r8b, r8b
	jne	SHORT $LN5@opc_ld_
	or	ecx, 2
$LN5@opc_ld_:

; 1612 : }

	mov	BYTE PTR [r9+78], cl
	ret	0
?opc_ld_@cpu2a03_fast@@AEAAXAEAEE@Z ENDP		; cpu2a03_fast::opc_ld_
_TEXT	ENDS
; Function compile flags: /Ogtpy
; File c:\users\nightorius.phibian\source\repos\denveremu\denveremu\cpu\cpu2a03_fast.cpp
;	COMDAT ?opc_cmp@cpu2a03_fast@@AEAAXEE@Z
_TEXT	SEGMENT
this$ = 8
rdata$ = 16
data$ = 24
?opc_cmp@cpu2a03_fast@@AEAAXEE@Z PROC			; cpu2a03_fast::opc_cmp, COMDAT

; 1615 : 	regs.sr &= 0xFF - (cf_negative | cf_zero | cf_carry);
; 1616 : 	word c = word(rdata) - data;

	movzx	eax, r8b
	mov	r10, rcx
	movzx	r9d, dl
	sub	r9w, ax
	movzx	eax, BYTE PTR [rcx+78]
	and	eax, 124				; 0000007cH

; 1617 : 	regs.sr = rdata >= data ? regs.sr | cf_carry : regs.sr;

	cmp	dl, r8b
	jb	SHORT $LN3@opc_cmp
	or	eax, 1
$LN3@opc_cmp:

; 1618 : 	regs.sr = c & 0x80 ? regs.sr | cf_negative : regs.sr;

	movzx	ecx, al
	test	r9b, r9b
	jns	SHORT $LN5@opc_cmp
	bts	ecx, 7
$LN5@opc_cmp:

; 1619 : 	regs.sr = !(c & 0xFF) ? regs.sr | cf_zero : regs.sr;

	movzx	edx, cl
	test	r9b, r9b
	jne	SHORT $LN7@opc_cmp
	or	edx, 2
$LN7@opc_cmp:

; 1620 : }

	mov	BYTE PTR [r10+78], dl
	ret	0
?opc_cmp@cpu2a03_fast@@AEAAXEE@Z ENDP			; cpu2a03_fast::opc_cmp
_TEXT	ENDS
; Function compile flags: /Ogtpy
; File c:\users\nightorius.phibian\source\repos\denveremu\denveremu\cpu\cpu2a03_fast.cpp
;	COMDAT ?opc_ora@cpu2a03_fast@@AEAAXE@Z
_TEXT	SEGMENT
this$ = 8
data$ = 16
?opc_ora@cpu2a03_fast@@AEAAXE@Z PROC			; cpu2a03_fast::opc_ora, COMDAT

; 1623 : 	regs.ac |= data;

	or	BYTE PTR [rcx+74], dl
	mov	r8, rcx

; 1624 : 	regs.sr &= 0xFF - (cf_negative | cf_zero);

	movzx	eax, BYTE PTR [rcx+78]
	movzx	edx, BYTE PTR [rcx+74]
	and	eax, 125				; 0000007dH

; 1625 : 	regs.sr = regs.ac & 0x80 ? regs.sr | cf_negative : regs.sr;

	test	dl, dl
	jns	SHORT $LN3@opc_ora
	bts	eax, 7
$LN3@opc_ora:

; 1626 : 	regs.sr = !regs.ac ? regs.sr | cf_zero : regs.sr;

	movzx	ecx, al
	test	dl, dl
	jne	SHORT $LN5@opc_ora
	or	ecx, 2
$LN5@opc_ora:

; 1627 : }

	mov	BYTE PTR [r8+78], cl
	ret	0
?opc_ora@cpu2a03_fast@@AEAAXE@Z ENDP			; cpu2a03_fast::opc_ora
_TEXT	ENDS
; Function compile flags: /Ogtpy
; File c:\users\nightorius.phibian\source\repos\denveremu\denveremu\cpu\cpu2a03_fast.cpp
; File c:\users\nightorius.phibian\source\repos\denveremu\denveremu\bus\bus.cpp
; File c:\users\nightorius.phibian\source\repos\denveremu\denveremu\cpu\cpu2a03_fast.cpp
;	COMDAT ?opc_asl@cpu2a03_fast@@AEAAXG_N@Z
_TEXT	SEGMENT
this$ = 48
addr$ = 56
memory$ = 64
?opc_asl@cpu2a03_fast@@AEAAXG_N@Z PROC			; cpu2a03_fast::opc_asl, COMDAT

; 1629 : void cpu2a03_fast::opc_asl(word addr, bool memory) {

$LN16:
	mov	QWORD PTR [rsp+8], rbx
	mov	QWORD PTR [rsp+16], rsi
	push	rdi
	sub	rsp, 32					; 00000020H
	movzx	edi, r8b
	movzx	esi, dx
	mov	rbx, rcx

; 1630 : 	byte data = memory ? mbus->readmemory(addr) : regs.ac;

	test	r8b, r8b
	je	SHORT $LN5@opc_asl
	mov	rcx, QWORD PTR [rcx+88]
	movzx	eax, dx
; File c:\users\nightorius.phibian\source\repos\denveremu\denveremu\bus\bus.cpp

; 23   : 	address = addr;

	mov	DWORD PTR [rcx], eax

; 24   : 	return read();

	call	?read@bus@@QEAAEXZ			; bus::read
; File c:\users\nightorius.phibian\source\repos\denveremu\denveremu\cpu\cpu2a03_fast.cpp

; 1630 : 	byte data = memory ? mbus->readmemory(addr) : regs.ac;

	jmp	SHORT $LN6@opc_asl
$LN5@opc_asl:
	movzx	eax, BYTE PTR [rcx+74]
$LN6@opc_asl:

; 1631 : 	regs.sr = data & 0x80 ? regs.sr | cf_carry : regs.sr & (0xFF - cf_carry);

	movzx	ecx, BYTE PTR [rbx+78]
	test	al, al
	jns	SHORT $LN7@opc_asl
	or	ecx, 1
	jmp	SHORT $LN8@opc_asl
$LN7@opc_asl:
	and	ecx, 254				; 000000feH
$LN8@opc_asl:

; 1632 : 	data = data << 1;
; 1633 : 	regs.sr &= 0xFF - (cf_negative | cf_zero);

	movzx	ecx, cl
	and	ecx, 125				; 0000007dH
	add	al, al

; 1634 : 	regs.sr = data & 0x80 ? regs.sr | cf_negative : regs.sr;

	jns	SHORT $LN9@opc_asl
	bts	ecx, 7
$LN9@opc_asl:
	movzx	edx, cl

; 1635 : 	regs.sr = !data ? regs.sr | cf_zero : regs.sr;

	test	al, al
	jne	SHORT $LN11@opc_asl
	or	edx, 2
$LN11@opc_asl:
	mov	BYTE PTR [rbx+78], dl

; 1636 : 	if (memory) mbus->writememory(addr, data); else regs.ac = data;

	test	dil, dil
	je	SHORT $LN2@opc_asl
	mov	rcx, QWORD PTR [rbx+88]
	movzx	r8d, al
	movzx	edx, si

; 1637 : }

	mov	rbx, QWORD PTR [rsp+48]
	mov	rsi, QWORD PTR [rsp+56]
	add	rsp, 32					; 00000020H
	pop	rdi

; 1636 : 	if (memory) mbus->writememory(addr, data); else regs.ac = data;

	jmp	?writememory@bus@@QEAAXHE@Z		; bus::writememory
$LN2@opc_asl:

; 1637 : }

	mov	rsi, QWORD PTR [rsp+56]
	mov	BYTE PTR [rbx+74], al
	mov	rbx, QWORD PTR [rsp+48]
	add	rsp, 32					; 00000020H
	pop	rdi
	ret	0
?opc_asl@cpu2a03_fast@@AEAAXG_N@Z ENDP			; cpu2a03_fast::opc_asl
_TEXT	ENDS
; Function compile flags: /Ogtpy
; File c:\users\nightorius.phibian\source\repos\denveremu\denveremu\cpu\cpu2a03_fast.cpp
;	COMDAT ?opc_and@cpu2a03_fast@@AEAAXE@Z
_TEXT	SEGMENT
this$ = 8
data$ = 16
?opc_and@cpu2a03_fast@@AEAAXE@Z PROC			; cpu2a03_fast::opc_and, COMDAT

; 1640 : 	regs.ac &= data;

	and	BYTE PTR [rcx+74], dl
	mov	r8, rcx

; 1641 : 	regs.sr &= 0xFF - (cf_negative | cf_zero);

	movzx	eax, BYTE PTR [rcx+78]
	movzx	edx, BYTE PTR [rcx+74]
	and	eax, 125				; 0000007dH

; 1642 : 	regs.sr = regs.ac & 0x80 ? regs.sr | cf_negative : regs.sr;

	test	dl, dl
	jns	SHORT $LN3@opc_and
	bts	eax, 7
$LN3@opc_and:

; 1643 : 	regs.sr = !regs.ac ? regs.sr | cf_zero : regs.sr;

	movzx	ecx, al
	test	dl, dl
	jne	SHORT $LN5@opc_and
	or	ecx, 2
$LN5@opc_and:

; 1644 : }

	mov	BYTE PTR [r8+78], cl
	ret	0
?opc_and@cpu2a03_fast@@AEAAXE@Z ENDP			; cpu2a03_fast::opc_and
_TEXT	ENDS
; Function compile flags: /Ogtpy
; File c:\users\nightorius.phibian\source\repos\denveremu\denveremu\cpu\cpu2a03_fast.cpp
; File c:\users\nightorius.phibian\source\repos\denveremu\denveremu\bus\bus.cpp
; File c:\users\nightorius.phibian\source\repos\denveremu\denveremu\cpu\cpu2a03_fast.cpp
;	COMDAT ?opc_rol@cpu2a03_fast@@AEAAXG_N@Z
_TEXT	SEGMENT
this$ = 48
addr$ = 56
memory$ = 64
?opc_rol@cpu2a03_fast@@AEAAXG_N@Z PROC			; cpu2a03_fast::opc_rol, COMDAT

; 1646 : void cpu2a03_fast::opc_rol(word addr, bool memory) {

$LN17:
	mov	QWORD PTR [rsp+8], rbx
	mov	QWORD PTR [rsp+16], rbp
	mov	QWORD PTR [rsp+24], rsi
	push	rdi
	sub	rsp, 32					; 00000020H
	mov	rbx, rcx
	movzx	ebp, r8b

; 1647 : 	bool carry_bit = (regs.sr & cf_carry);

	movzx	ecx, BYTE PTR [rcx+78]
	movzx	esi, dx
	movzx	edi, cl
	and	dil, 1

; 1648 : 	byte data = memory ? mbus->readmemory(addr) : regs.ac;

	test	r8b, r8b
	je	SHORT $LN6@opc_rol
	mov	rcx, QWORD PTR [rbx+88]
	movzx	eax, dx
; File c:\users\nightorius.phibian\source\repos\denveremu\denveremu\bus\bus.cpp

; 23   : 	address = addr;

	mov	DWORD PTR [rcx], eax

; 24   : 	return read();

	call	?read@bus@@QEAAEXZ			; bus::read
; File c:\users\nightorius.phibian\source\repos\denveremu\denveremu\cpu\cpu2a03_fast.cpp

; 1648 : 	byte data = memory ? mbus->readmemory(addr) : regs.ac;

	movzx	ecx, BYTE PTR [rbx+78]
	jmp	SHORT $LN7@opc_rol
$LN6@opc_rol:
	movzx	eax, BYTE PTR [rbx+74]
$LN7@opc_rol:

; 1649 : 	regs.sr = data & 0x80 ? regs.sr | cf_carry : regs.sr & (0xFF - cf_carry);

	movzx	edx, cl
	test	al, al
	jns	SHORT $LN8@opc_rol
	or	edx, 1
	jmp	SHORT $LN9@opc_rol
$LN8@opc_rol:
	and	edx, 254				; 000000feH
$LN9@opc_rol:
	add	al, al
	movzx	ecx, al

; 1650 : 	data = data << 1;
; 1651 : 	if (carry_bit) data++;	// add carry
; 1652 : 	regs.sr &= 0xFF - (cf_negative | cf_zero);

	test	dil, dil
	lea	eax, DWORD PTR [rcx+1]
	movzx	r8d, al
	cmove	r8d, ecx
	movzx	eax, dl
	and	eax, 125				; 0000007dH

; 1653 : 	regs.sr = data & 0x80 ? regs.sr | cf_negative : regs.sr;

	test	r8b, r8b
	jns	SHORT $LN10@opc_rol
	bts	eax, 7
$LN10@opc_rol:
	movzx	eax, al

; 1654 : 	regs.sr = !data ? regs.sr | cf_zero : regs.sr;

	test	r8b, r8b
	jne	SHORT $LN12@opc_rol
	or	eax, 2
$LN12@opc_rol:
	mov	BYTE PTR [rbx+78], al

; 1655 : 	if (memory) mbus->writememory(addr, data); else regs.ac = data;

	test	bpl, bpl
	je	SHORT $LN3@opc_rol
	mov	rcx, QWORD PTR [rbx+88]
	movzx	edx, si
	call	?writememory@bus@@QEAAXHE@Z		; bus::writememory
	jmp	SHORT $LN4@opc_rol
$LN3@opc_rol:
	mov	BYTE PTR [rbx+74], r8b
$LN4@opc_rol:

; 1656 : }

	mov	rbx, QWORD PTR [rsp+48]
	mov	rbp, QWORD PTR [rsp+56]
	mov	rsi, QWORD PTR [rsp+64]
	add	rsp, 32					; 00000020H
	pop	rdi
	ret	0
?opc_rol@cpu2a03_fast@@AEAAXG_N@Z ENDP			; cpu2a03_fast::opc_rol
_TEXT	ENDS
; Function compile flags: /Ogtpy
; File c:\users\nightorius.phibian\source\repos\denveremu\denveremu\cpu\cpu2a03_fast.cpp
; File c:\users\nightorius.phibian\source\repos\denveremu\denveremu\bus\bus.cpp
; File c:\users\nightorius.phibian\source\repos\denveremu\denveremu\cpu\cpu2a03_fast.cpp
;	COMDAT ?opc_ror@cpu2a03_fast@@AEAAXG_N@Z
_TEXT	SEGMENT
this$ = 48
addr$ = 56
memory$ = 64
?opc_ror@cpu2a03_fast@@AEAAXG_N@Z PROC			; cpu2a03_fast::opc_ror, COMDAT

; 1658 : void cpu2a03_fast::opc_ror(word addr, bool memory) {

$LN17:
	mov	QWORD PTR [rsp+8], rbx
	mov	QWORD PTR [rsp+16], rbp
	mov	QWORD PTR [rsp+24], rsi
	push	rdi
	sub	rsp, 32					; 00000020H
	mov	rbx, rcx
	movzx	ebp, r8b

; 1659 : 	bool carry_bit = (regs.sr & cf_carry);

	movzx	ecx, BYTE PTR [rcx+78]
	movzx	esi, dx
	movzx	edi, cl
	and	dil, 1

; 1660 : 	byte data = memory ? mbus->readmemory(addr) : regs.ac;

	test	r8b, r8b
	je	SHORT $LN6@opc_ror
	mov	rcx, QWORD PTR [rbx+88]
	movzx	eax, dx
; File c:\users\nightorius.phibian\source\repos\denveremu\denveremu\bus\bus.cpp

; 23   : 	address = addr;

	mov	DWORD PTR [rcx], eax

; 24   : 	return read();

	call	?read@bus@@QEAAEXZ			; bus::read
; File c:\users\nightorius.phibian\source\repos\denveremu\denveremu\cpu\cpu2a03_fast.cpp

; 1660 : 	byte data = memory ? mbus->readmemory(addr) : regs.ac;

	movzx	ecx, BYTE PTR [rbx+78]
	jmp	SHORT $LN7@opc_ror
$LN6@opc_ror:
	movzx	eax, BYTE PTR [rbx+74]
$LN7@opc_ror:

; 1661 : 	regs.sr = data & 0x01 ? regs.sr | cf_carry : regs.sr & (0xFF - cf_carry);

	movzx	edx, cl
	test	al, 1
	je	SHORT $LN8@opc_ror
	or	edx, 1
	jmp	SHORT $LN9@opc_ror
$LN8@opc_ror:
	and	edx, 254				; 000000feH
$LN9@opc_ror:
	shr	al, 1
	movzx	ecx, al

; 1662 : 	data = data >> 1;
; 1663 : 	if (carry_bit) data += 0x80;
; 1664 : 	regs.sr &= 0xFF - (cf_negative | cf_zero);

	test	dil, dil
	lea	eax, DWORD PTR [rcx+128]
	movzx	r8d, al
	cmove	r8d, ecx
	movzx	eax, dl
	and	eax, 125				; 0000007dH

; 1665 : 	regs.sr = data & 0x80 ? regs.sr | cf_negative : regs.sr;

	test	r8b, r8b
	jns	SHORT $LN10@opc_ror
	bts	eax, 7
$LN10@opc_ror:
	movzx	eax, al

; 1666 : 	regs.sr = !data ? regs.sr | cf_zero : regs.sr;

	test	r8b, r8b
	jne	SHORT $LN12@opc_ror
	or	eax, 2
$LN12@opc_ror:
	mov	BYTE PTR [rbx+78], al

; 1667 : 	if (memory) mbus->writememory(addr, data); else regs.ac = data;

	test	bpl, bpl
	je	SHORT $LN3@opc_ror
	mov	rcx, QWORD PTR [rbx+88]
	movzx	edx, si
	call	?writememory@bus@@QEAAXHE@Z		; bus::writememory
	jmp	SHORT $LN4@opc_ror
$LN3@opc_ror:
	mov	BYTE PTR [rbx+74], r8b
$LN4@opc_ror:

; 1668 : }

	mov	rbx, QWORD PTR [rsp+48]
	mov	rbp, QWORD PTR [rsp+56]
	mov	rsi, QWORD PTR [rsp+64]
	add	rsp, 32					; 00000020H
	pop	rdi
	ret	0
?opc_ror@cpu2a03_fast@@AEAAXG_N@Z ENDP			; cpu2a03_fast::opc_ror
_TEXT	ENDS
; Function compile flags: /Ogtpy
; File c:\users\nightorius.phibian\source\repos\denveremu\denveremu\cpu\cpu2a03_fast.cpp
;	COMDAT ?opc_bit@cpu2a03_fast@@AEAAXE@Z
_TEXT	SEGMENT
this$ = 8
data$ = 16
?opc_bit@cpu2a03_fast@@AEAAXE@Z PROC			; cpu2a03_fast::opc_bit, COMDAT

; 1671 : 	regs.sr &= 0xFF - (cf_negative | cf_zero | cf_overflow);

	movzx	eax, BYTE PTR [rcx+78]
	mov	r8, rcx
	and	eax, 61					; 0000003dH

; 1672 : 	regs.sr = data & 0x80 ? regs.sr | cf_negative : regs.sr;

	test	dl, dl
	jns	SHORT $LN3@opc_bit
	bts	eax, 7
$LN3@opc_bit:

; 1673 : 	regs.sr = data & 0x40 ? regs.sr | cf_overflow : regs.sr;

	movzx	ecx, al
	test	dl, 64					; 00000040H
	je	SHORT $LN5@opc_bit
	or	ecx, 64					; 00000040H
$LN5@opc_bit:

; 1674 : 	regs.sr = !(regs.ac & data) ? regs.sr | cf_zero : regs.sr;

	movzx	eax, cl
	test	BYTE PTR [r8+74], dl
	jne	SHORT $LN7@opc_bit
	or	eax, 2
$LN7@opc_bit:

; 1675 : }

	mov	BYTE PTR [r8+78], al
	ret	0
?opc_bit@cpu2a03_fast@@AEAAXE@Z ENDP			; cpu2a03_fast::opc_bit
_TEXT	ENDS
; Function compile flags: /Ogtpy
; File c:\users\nightorius.phibian\source\repos\denveremu\denveremu\cpu\cpu2a03_fast.cpp
;	COMDAT ?opc_xor@cpu2a03_fast@@AEAAXE@Z
_TEXT	SEGMENT
this$ = 8
data$ = 16
?opc_xor@cpu2a03_fast@@AEAAXE@Z PROC			; cpu2a03_fast::opc_xor, COMDAT

; 1678 : 	regs.ac ^= data;

	movzx	r9d, BYTE PTR [rcx+74]

; 1679 : 	regs.sr &= 0xFF - (cf_negative | cf_zero);

	movzx	r8d, BYTE PTR [rcx+78]
	movzx	eax, r9b
	xor	al, dl
	and	r8d, 125				; 0000007dH
	mov	BYTE PTR [rcx+74], al

; 1680 : 	regs.sr = regs.ac & 0x80 ? regs.sr | cf_negative : regs.sr;

	test	al, al
	jns	SHORT $LN3@opc_xor
