; Listing generated by Microsoft (R) Optimizing Compiler Version 19.16.27050.0 

include listing.inc

INCLUDELIB OLDNAMES

PUBLIC	??_C@_0O@LOIPCCFK@NROM?50x00?5ROM@		; `string'
PUBLIC	??_C@_0P@JKKAPLGM@NROM?50x00?5VROM@		; `string'
PUBLIC	??_C@_0P@JADONGGG@NROM?50x00?5VRAM@		; `string'
PUBLIC	??_R2vram@@8					; vram::`RTTI Base Class Array'
PUBLIC	??_R1A@?0A@EA@vram@@8				; vram::`RTTI Base Class Descriptor at (0,-1,0,64)'
PUBLIC	??_R3vram@@8					; vram::`RTTI Class Hierarchy Descriptor'
PUBLIC	??_R0?AVvram@@@8				; vram `RTTI Type Descriptor'
PUBLIC	??_R4rom@@6B@					; rom::`RTTI Complete Object Locator'
PUBLIC	??_R4vram@@6B@					; vram::`RTTI Complete Object Locator'
PUBLIC	??_R4vrom@@6B@					; vrom::`RTTI Complete Object Locator'
PUBLIC	??_7vram@@6B@					; vram::`vftable'
PUBLIC	??_7vrom@@6B@					; vrom::`vftable'
PUBLIC	??_7rom@@6B@					; rom::`vftable'
;	COMDAT ??_7rom@@6B@
CONST	SEGMENT
??_7rom@@6B@ DQ	FLAT:??_R4rom@@6B@			; rom::`vftable'
	DQ	FLAT:?rundevice@device@@UEAAHH@Z
	DQ	FLAT:?dma@device@@UEAAXPEAE_N1@Z
	DQ	FLAT:??_Erom@@UEAAPEAXI@Z
	DQ	FLAT:?write@rom@@UEAAXHHE@Z
	DQ	FLAT:?read@rom@@UEAAEHH@Z
	DQ	FLAT:?set_rom_data@rom@@UEAAXPEAEH@Z
CONST	ENDS
;	COMDAT ??_7vrom@@6B@
CONST	SEGMENT
??_7vrom@@6B@ DQ FLAT:??_R4vrom@@6B@			; vrom::`vftable'
	DQ	FLAT:?rundevice@device@@UEAAHH@Z
	DQ	FLAT:?dma@device@@UEAAXPEAE_N1@Z
	DQ	FLAT:??_Evrom@@UEAAPEAXI@Z
	DQ	FLAT:?write@vrom@@UEAAXHHE@Z
	DQ	FLAT:?read@vrom@@UEAAEHH@Z
	DQ	FLAT:?set_rom_data@vrom@@UEAAXPEAE_K@Z
CONST	ENDS
;	COMDAT ??_7vram@@6B@
CONST	SEGMENT
??_7vram@@6B@ DQ FLAT:??_R4vram@@6B@			; vram::`vftable'
	DQ	FLAT:?rundevice@device@@UEAAHH@Z
	DQ	FLAT:?dma@device@@UEAAXPEAE_N1@Z
	DQ	FLAT:??_Evram@@UEAAPEAXI@Z
	DQ	FLAT:?write@vram@@UEAAXHHE@Z
	DQ	FLAT:?read@vram@@UEAAEHH@Z
	DQ	FLAT:?set_rom_data@vrom@@UEAAXPEAE_K@Z
CONST	ENDS
;	COMDAT ??_R4vrom@@6B@
rdata$r	SEGMENT
??_R4vrom@@6B@ DD 01H					; vrom::`RTTI Complete Object Locator'
	DD	00H
	DD	00H
	DD	imagerel ??_R0?AVvrom@@@8
	DD	imagerel ??_R3vrom@@8
	DD	imagerel ??_R4vrom@@6B@
rdata$r	ENDS
;	COMDAT ??_R4vram@@6B@
rdata$r	SEGMENT
??_R4vram@@6B@ DD 01H					; vram::`RTTI Complete Object Locator'
	DD	00H
	DD	00H
	DD	imagerel ??_R0?AVvram@@@8
	DD	imagerel ??_R3vram@@8
	DD	imagerel ??_R4vram@@6B@
rdata$r	ENDS
;	COMDAT ??_R4rom@@6B@
rdata$r	SEGMENT
??_R4rom@@6B@ DD 01H					; rom::`RTTI Complete Object Locator'
	DD	00H
	DD	00H
	DD	imagerel ??_R0?AVrom@@@8
	DD	imagerel ??_R3rom@@8
	DD	imagerel ??_R4rom@@6B@
rdata$r	ENDS
;	COMDAT ??_R0?AVvram@@@8
data$r	SEGMENT
??_R0?AVvram@@@8 DQ FLAT:??_7type_info@@6B@		; vram `RTTI Type Descriptor'
	DQ	0000000000000000H
	DB	'.?AVvram@@', 00H
data$r	ENDS
;	COMDAT ??_R3vram@@8
rdata$r	SEGMENT
??_R3vram@@8 DD	00H					; vram::`RTTI Class Hierarchy Descriptor'
	DD	00H
	DD	04H
	DD	imagerel ??_R2vram@@8
rdata$r	ENDS
;	COMDAT ??_R1A@?0A@EA@vram@@8
rdata$r	SEGMENT
??_R1A@?0A@EA@vram@@8 DD imagerel ??_R0?AVvram@@@8	; vram::`RTTI Base Class Descriptor at (0,-1,0,64)'
	DD	03H
	DD	00H
	DD	0ffffffffH
	DD	00H
	DD	040H
	DD	imagerel ??_R3vram@@8
rdata$r	ENDS
;	COMDAT ??_R2vram@@8
rdata$r	SEGMENT
??_R2vram@@8 DD	imagerel ??_R1A@?0A@EA@vram@@8		; vram::`RTTI Base Class Array'
	DD	imagerel ??_R1A@?0A@EA@vrom@@8
	DD	imagerel ??_R1A@?0A@EA@bus_device@@8
	DD	imagerel ??_R1A@?0A@EA@device@@8
	ORG $+3
rdata$r	ENDS
;	COMDAT ??_C@_0P@JADONGGG@NROM?50x00?5VRAM@
CONST	SEGMENT
??_C@_0P@JADONGGG@NROM?50x00?5VRAM@ DB 'NROM 0x00 VRAM', 00H ; `string'
CONST	ENDS
;	COMDAT ??_C@_0P@JKKAPLGM@NROM?50x00?5VROM@
CONST	SEGMENT
??_C@_0P@JKKAPLGM@NROM?50x00?5VROM@ DB 'NROM 0x00 VROM', 00H ; `string'
CONST	ENDS
;	COMDAT ??_C@_0O@LOIPCCFK@NROM?50x00?5ROM@
CONST	SEGMENT
??_C@_0O@LOIPCCFK@NROM?50x00?5ROM@ DB 'NROM 0x00 ROM', 00H ; `string'
PUBLIC	?read@vram@@UEAAEHH@Z				; vram::read
PUBLIC	?write@vram@@UEAAXHHE@Z				; vram::write
PUBLIC	??1vram@@UEAA@XZ				; vram::~vram
PUBLIC	??_Gvram@@UEAAPEAXI@Z				; vram::`scalar deleting destructor'
PUBLIC	?read@vrom@@UEAAEHH@Z				; vrom::read
PUBLIC	?write@vrom@@UEAAXHHE@Z				; vrom::write
PUBLIC	?set_rom_data@vrom@@UEAAXPEAE_K@Z		; vrom::set_rom_data
PUBLIC	??_Gvrom@@UEAAPEAXI@Z				; vrom::`scalar deleting destructor'
PUBLIC	?read@rom@@UEAAEHH@Z				; rom::read
PUBLIC	?write@rom@@UEAAXHHE@Z				; rom::write
PUBLIC	??_Grom@@UEAAPEAXI@Z				; rom::`scalar deleting destructor'
PUBLIC	??1rom@@UEAA@XZ					; rom::~rom
PUBLIC	??1vrom@@UEAA@XZ				; vrom::~vrom
PUBLIC	?set_rom_data@rom@@UEAAXPEAEH@Z			; rom::set_rom_data
PUBLIC	??0rom@@QEAA@XZ					; rom::rom
PUBLIC	??0vrom@@QEAA@XZ				; vrom::vrom
PUBLIC	?link_ppu_bus@vrom@@QEAAXPEAVbus_device@@@Z	; vrom::link_ppu_bus
EXTRN	??_Evrom@@UEAAPEAXI@Z:PROC			; vrom::`vector deleting destructor'
EXTRN	??_Evram@@UEAAPEAXI@Z:PROC			; vram::`vector deleting destructor'
EXTRN	??_Erom@@UEAAPEAXI@Z:PROC			; rom::`vector deleting destructor'
;	COMDAT pdata
pdata	SEGMENT
$pdata$??1vram@@UEAA@XZ DD imagerel $LN13@vram
	DD	imagerel $LN13@vram+55
	DD	imagerel $unwind$??1vram@@UEAA@XZ
pdata	ENDS
;	COMDAT pdata
pdata	SEGMENT
$pdata$??_Gvram@@UEAAPEAXI@Z DD imagerel $LN18@scalar
	DD	imagerel $LN18@scalar+87
	DD	imagerel $unwind$??_Gvram@@UEAAPEAXI@Z
pdata	ENDS
;	COMDAT pdata
pdata	SEGMENT
$pdata$??_Gvrom@@UEAAPEAXI@Z DD imagerel $LN15@scalar
	DD	imagerel $LN15@scalar+67
	DD	imagerel $unwind$??_Gvrom@@UEAAPEAXI@Z
pdata	ENDS
;	COMDAT pdata
pdata	SEGMENT
$pdata$??_Grom@@UEAAPEAXI@Z DD imagerel $LN15@scalar
	DD	imagerel $LN15@scalar+67
	DD	imagerel $unwind$??_Grom@@UEAAPEAXI@Z
pdata	ENDS
;	COMDAT pdata
pdata	SEGMENT
$pdata$??0rom@@QEAA@XZ DD imagerel $LN7@rom
	DD	imagerel $LN7@rom+76
	DD	imagerel $unwind$??0rom@@QEAA@XZ
pdata	ENDS
;	COMDAT pdata
pdata	SEGMENT
$pdata$??0vrom@@QEAA@XZ DD imagerel $LN7@vrom
	DD	imagerel $LN7@vrom+76
	DD	imagerel $unwind$??0vrom@@QEAA@XZ
pdata	ENDS
;	COMDAT xdata
xdata	SEGMENT
$unwind$??0vrom@@QEAA@XZ DD 020601H
	DD	030023206H
xdata	ENDS
;	COMDAT xdata
xdata	SEGMENT
$unwind$??0rom@@QEAA@XZ DD 020601H
	DD	030023206H
xdata	ENDS
;	COMDAT xdata
xdata	SEGMENT
$unwind$??_Grom@@UEAAPEAXI@Z DD 040a01H
	DD	06340aH
	DD	07006320aH
xdata	ENDS
;	COMDAT xdata
xdata	SEGMENT
$unwind$??_Gvrom@@UEAAPEAXI@Z DD 040a01H
	DD	06340aH
	DD	07006320aH
xdata	ENDS
;	COMDAT xdata
xdata	SEGMENT
$unwind$??_Gvram@@UEAAPEAXI@Z DD 040a01H
	DD	06340aH
	DD	07006320aH
xdata	ENDS
;	COMDAT xdata
xdata	SEGMENT
$unwind$??1vram@@UEAA@XZ DD 020601H
	DD	030023206H
END
