; Listing generated by Microsoft (R) Optimizing Compiler Version 19.16.27050.0 

include listing.inc

INCLUDELIB MSVCRTD
INCLUDELIB OLDNAMES

msvcjmc	SEGMENT
__FF24E80D_stdafx@h DB 01H
__84F95A01_denveremu@pch DB 01H
__8FA60561_xmemory DB 01H
__122CF1B0_xstddef DB 01H
__E53366A2_utility DB 01H
__F2A749D8_streambuf DB 01H
__375B2D08_ostream DB 01H
__548B1832_istream DB 01H
__FB7583FD_xstring DB 01H
__FF7D7337_vector DB 01H
__A57BBCE6_stdio@h DB 01H
__D40DD59F_corecrt_stdio_config@h DB 01H
__486570BD_bus@h DB 01H
__72010E87_bus@cpp DB 01H
__D1FEDD45_ios DB 01H
__5B5D5F1B_wchar@h DB 01H
__BACC91DB_xlocnum DB 01H
__9B0361F4_xiosbase DB 01H
__FD5040F3_system_error DB 01H
__420D52D3_xcall_once@h DB 01H
__244BF7CC_xlocale DB 01H
__223B5856_xfacet DB 01H
__0E7E0F59_memory DB 01H
__A2E616E7_xlocinfo DB 01H
__7A53EED8_ctype@h DB 01H
__C42C8B73_vcruntime_typeinfo@h DB 01H
__F007F164_stdexcept DB 01H
__C334353D_xatomic0@h DB 01H
__1CE3C767_xmemory0 DB 01H
__CDB00636_xutility DB 01H
__7E39D651_iosfwd DB 01H
__7949CB39_exception DB 01H
__9BB4E194_vcruntime_exception@h DB 01H
__5ECFF36E_type_traits DB 01H
__B2D003D7_limits DB 01H
__3736D25A_xtgmath@h DB 01H
__824D367B_cmath DB 01H
__D23EE329_cstdlib DB 01H
__AF9067BE_corecrt_math@h DB 01H
__388D9910_stdlib@h DB 01H
__6BC0FD35_vcruntime_new@h DB 01H
__BEFE0DB4_string@h DB 01H
__1F77EA16_corecrt_memory@h DB 01H
__ACA0BEE6_malloc@h DB 01H
msvcjmc	ENDS
PUBLIC	?__empty_global_delete@@YAXPEAX@Z		; __empty_global_delete
PUBLIC	?__empty_global_delete@@YAXPEAX_K@Z		; __empty_global_delete
PUBLIC	??2@YAPEAX_KPEAX@Z				; operator new
PUBLIC	?max@?$numeric_limits@_J@std@@SA_JXZ		; std::numeric_limits<__int64>::max
PUBLIC	?length@?$char_traits@D@std@@SA_KQEBD@Z		; std::char_traits<char>::length
PUBLIC	?eq_int_type@?$char_traits@D@std@@SA_NAEBH0@Z	; std::char_traits<char>::eq_int_type
PUBLIC	?eof@?$char_traits@D@std@@SAHXZ			; std::char_traits<char>::eof
PUBLIC	??0_Container_proxy@std@@QEAA@XZ		; std::_Container_proxy::_Container_proxy
PUBLIC	??0_Container_base12@std@@QEAA@XZ		; std::_Container_base12::_Container_base12
PUBLIC	?_Getpfirst@_Container_base12@std@@QEBAPEAPEAU_Iterator_base12@2@XZ ; std::_Container_base12::_Getpfirst
PUBLIC	?_Orphan_all@_Container_base12@std@@QEAAXXZ	; std::_Container_base12::_Orphan_all
PUBLIC	??0_Iterator_base12@std@@QEAA@XZ		; std::_Iterator_base12::_Iterator_base12
PUBLIC	??0_Iterator_base12@std@@QEAA@AEBU01@@Z		; std::_Iterator_base12::_Iterator_base12
PUBLIC	??4_Iterator_base12@std@@QEAAAEAU01@AEBU01@@Z	; std::_Iterator_base12::operator=
PUBLIC	??1_Iterator_base12@std@@QEAA@XZ		; std::_Iterator_base12::~_Iterator_base12
PUBLIC	?_Adopt@_Iterator_base12@std@@QEAAXPEBU_Container_base12@2@@Z ; std::_Iterator_base12::_Adopt
PUBLIC	?_Clrcont@_Iterator_base12@std@@QEAAXXZ		; std::_Iterator_base12::_Clrcont
PUBLIC	?_Getcont@_Iterator_base12@std@@QEBAPEBU_Container_base12@2@XZ ; std::_Iterator_base12::_Getcont
PUBLIC	?_Getpnext@_Iterator_base12@std@@QEAAPEAPEAU12@XZ ; std::_Iterator_base12::_Getpnext
PUBLIC	?_Orphan_me@_Iterator_base12@std@@QEAAXXZ	; std::_Iterator_base12::_Orphan_me
PUBLIC	?_Allocate@_Default_allocate_traits@std@@SAPEAX_K@Z ; std::_Default_allocate_traits::_Allocate
PUBLIC	?_Adjust_manually_vector_aligned@std@@YAXAEAPEAXAEA_K@Z ; std::_Adjust_manually_vector_aligned
PUBLIC	??$_Min_value@_K@std@@YAAEB_KAEB_K0@Z		; std::_Min_value<unsigned __int64>
PUBLIC	??0device@@QEAA@XZ				; device::device
PUBLIC	??1device@@QEAA@XZ				; device::~device
PUBLIC	?rundevice@device@@UEAAHH@Z			; device::rundevice
PUBLIC	?get_device_descriptor@device@@QEAAPEADXZ	; device::get_device_descriptor
PUBLIC	?dma@device@@UEAAXPEAE_N1@Z			; device::dma
PUBLIC	??0bus_device@@QEAA@XZ				; bus_device::bus_device
PUBLIC	??1bus_device@@UEAA@XZ				; bus_device::~bus_device
PUBLIC	?compute_addr_from_layout@bus_device@@QEAAGG@Z	; bus_device::compute_addr_from_layout
PUBLIC	?swappins@bus_device@@QEAAXHH@Z			; bus_device::swappins
PUBLIC	?groundpin@bus_device@@QEAAXH@Z			; bus_device::groundpin
PUBLIC	?vccpin@bus_device@@QEAAXH@Z			; bus_device::vccpin
PUBLIC	?resetpins_to_default@bus_device@@QEAAXXZ	; bus_device::resetpins_to_default
PUBLIC	?write@bus_device@@UEAAXHHE@Z			; bus_device::write
PUBLIC	?read@bus_device@@UEAAEHH@Z			; bus_device::read
PUBLIC	??_Gbus_device@@UEAAPEAXI@Z			; bus_device::`scalar deleting destructor'
PUBLIC	??0?$allocator@PEAVbus_device@@@std@@QEAA@XZ	; std::allocator<bus_device *>::allocator<bus_device *>
PUBLIC	?deallocate@?$allocator@PEAVbus_device@@@std@@QEAAXQEAPEAVbus_device@@_K@Z ; std::allocator<bus_device *>::deallocate
PUBLIC	?allocate@?$allocator@PEAVbus_device@@@std@@QEAAPEAPEAVbus_device@@_K@Z ; std::allocator<bus_device *>::allocate
PUBLIC	?max_size@?$_Default_allocator_traits@V?$allocator@PEAVbus_device@@@std@@@std@@SA_KAEBV?$allocator@PEAVbus_device@@@2@@Z ; std::_Default_allocator_traits<std::allocator<bus_device *> >::max_size
PUBLIC	??0?$_Vector_alloc@U?$_Vec_base_types@PEAVbus_device@@V?$allocator@PEAVbus_device@@@std@@@std@@@std@@QEAA@XZ ; std::_Vector_alloc<std::_Vec_base_types<bus_device *,std::allocator<bus_device *> > >::_Vector_alloc<std::_Vec_base_types<bus_device *,std::allocator<bus_device *> > >
PUBLIC	??1?$_Vector_alloc@U?$_Vec_base_types@PEAVbus_device@@V?$allocator@PEAVbus_device@@@std@@@std@@@std@@QEAA@XZ ; std::_Vector_alloc<std::_Vec_base_types<bus_device *,std::allocator<bus_device *> > >::~_Vector_alloc<std::_Vec_base_types<bus_device *,std::allocator<bus_device *> > >
PUBLIC	?_Alloc_proxy@?$_Vector_alloc@U?$_Vec_base_types@PEAVbus_device@@V?$allocator@PEAVbus_device@@@std@@@std@@@std@@QEAAXXZ ; std::_Vector_alloc<std::_Vec_base_types<bus_device *,std::allocator<bus_device *> > >::_Alloc_proxy
PUBLIC	?_Free_proxy@?$_Vector_alloc@U?$_Vec_base_types@PEAVbus_device@@V?$allocator@PEAVbus_device@@@std@@@std@@@std@@QEAAXXZ ; std::_Vector_alloc<std::_Vec_base_types<bus_device *,std::allocator<bus_device *> > >::_Free_proxy
PUBLIC	?_Getpfirst@?$_Vector_alloc@U?$_Vec_base_types@PEAVbus_device@@V?$allocator@PEAVbus_device@@@std@@@std@@@std@@QEBAPEAPEAU_Iterator_base12@2@XZ ; std::_Vector_alloc<std::_Vec_base_types<bus_device *,std::allocator<bus_device *> > >::_Getpfirst
PUBLIC	?_Myproxy@?$_Vector_alloc@U?$_Vec_base_types@PEAVbus_device@@V?$allocator@PEAVbus_device@@@std@@@std@@@std@@QEAAAEAPEAU_Container_proxy@2@XZ ; std::_Vector_alloc<std::_Vec_base_types<bus_device *,std::allocator<bus_device *> > >::_Myproxy
PUBLIC	?_Orphan_all@?$_Vector_alloc@U?$_Vec_base_types@PEAVbus_device@@V?$allocator@PEAVbus_device@@@std@@@std@@@std@@QEAAXXZ ; std::_Vector_alloc<std::_Vec_base_types<bus_device *,std::allocator<bus_device *> > >::_Orphan_all
PUBLIC	?_Getal@?$_Vector_alloc@U?$_Vec_base_types@PEAVbus_device@@V?$allocator@PEAVbus_device@@@std@@@std@@@std@@QEAAAEAV?$allocator@PEAVbus_device@@@2@XZ ; std::_Vector_alloc<std::_Vec_base_types<bus_device *,std::allocator<bus_device *> > >::_Getal
PUBLIC	?_Getal@?$_Vector_alloc@U?$_Vec_base_types@PEAVbus_device@@V?$allocator@PEAVbus_device@@@std@@@std@@@std@@QEBAAEBV?$allocator@PEAVbus_device@@@2@XZ ; std::_Vector_alloc<std::_Vec_base_types<bus_device *,std::allocator<bus_device *> > >::_Getal
PUBLIC	?_Get_data@?$_Vector_alloc@U?$_Vec_base_types@PEAVbus_device@@V?$allocator@PEAVbus_device@@@std@@@std@@@std@@QEAAAEAV?$_Vector_val@U?$_Simple_types@PEAVbus_device@@@std@@@2@XZ ; std::_Vector_alloc<std::_Vec_base_types<bus_device *,std::allocator<bus_device *> > >::_Get_data
PUBLIC	?_Get_data@?$_Vector_alloc@U?$_Vec_base_types@PEAVbus_device@@V?$allocator@PEAVbus_device@@@std@@@std@@@std@@QEBAAEBV?$_Vector_val@U?$_Simple_types@PEAVbus_device@@@std@@@2@XZ ; std::_Vector_alloc<std::_Vec_base_types<bus_device *,std::allocator<bus_device *> > >::_Get_data
PUBLIC	?_Myfirst@?$_Vector_alloc@U?$_Vec_base_types@PEAVbus_device@@V?$allocator@PEAVbus_device@@@std@@@std@@@std@@QEAAAEAPEAPEAVbus_device@@XZ ; std::_Vector_alloc<std::_Vec_base_types<bus_device *,std::allocator<bus_device *> > >::_Myfirst
PUBLIC	?_Myfirst@?$_Vector_alloc@U?$_Vec_base_types@PEAVbus_device@@V?$allocator@PEAVbus_device@@@std@@@std@@@std@@QEBAAEBQEAPEAVbus_device@@XZ ; std::_Vector_alloc<std::_Vec_base_types<bus_device *,std::allocator<bus_device *> > >::_Myfirst
PUBLIC	?_Mylast@?$_Vector_alloc@U?$_Vec_base_types@PEAVbus_device@@V?$allocator@PEAVbus_device@@@std@@@std@@@std@@QEAAAEAPEAPEAVbus_device@@XZ ; std::_Vector_alloc<std::_Vec_base_types<bus_device *,std::allocator<bus_device *> > >::_Mylast
PUBLIC	?_Mylast@?$_Vector_alloc@U?$_Vec_base_types@PEAVbus_device@@V?$allocator@PEAVbus_device@@@std@@@std@@@std@@QEBAAEBQEAPEAVbus_device@@XZ ; std::_Vector_alloc<std::_Vec_base_types<bus_device *,std::allocator<bus_device *> > >::_Mylast
PUBLIC	?_Myend@?$_Vector_alloc@U?$_Vec_base_types@PEAVbus_device@@V?$allocator@PEAVbus_device@@@std@@@std@@@std@@QEAAAEAPEAPEAVbus_device@@XZ ; std::_Vector_alloc<std::_Vec_base_types<bus_device *,std::allocator<bus_device *> > >::_Myend
PUBLIC	?_Myend@?$_Vector_alloc@U?$_Vec_base_types@PEAVbus_device@@V?$allocator@PEAVbus_device@@@std@@@std@@@std@@QEBAAEBQEAPEAVbus_device@@XZ ; std::_Vector_alloc<std::_Vec_base_types<bus_device *,std::allocator<bus_device *> > >::_Myend
PUBLIC	??0?$_Vector_val@U?$_Simple_types@PEAVbus_device@@@std@@@std@@QEAA@XZ ; std::_Vector_val<std::_Simple_types<bus_device *> >::_Vector_val<std::_Simple_types<bus_device *> >
PUBLIC	?_Get_first@?$_Compressed_pair@V?$allocator@PEAVbus_device@@@std@@V?$_Vector_val@U?$_Simple_types@PEAVbus_device@@@std@@@2@$00@std@@QEAAAEAV?$allocator@PEAVbus_device@@@2@XZ ; std::_Compressed_pair<std::allocator<bus_device *>,std::_Vector_val<std::_Simple_types<bus_device *> >,1>::_Get_first
PUBLIC	?_Get_first@?$_Compressed_pair@V?$allocator@PEAVbus_device@@@std@@V?$_Vector_val@U?$_Simple_types@PEAVbus_device@@@std@@@2@$00@std@@QEBAAEBV?$allocator@PEAVbus_device@@@2@XZ ; std::_Compressed_pair<std::allocator<bus_device *>,std::_Vector_val<std::_Simple_types<bus_device *> >,1>::_Get_first
PUBLIC	?_Get_second@?$_Compressed_pair@V?$allocator@PEAVbus_device@@@std@@V?$_Vector_val@U?$_Simple_types@PEAVbus_device@@@std@@@2@$00@std@@QEAAAEAV?$_Vector_val@U?$_Simple_types@PEAVbus_device@@@std@@@2@XZ ; std::_Compressed_pair<std::allocator<bus_device *>,std::_Vector_val<std::_Simple_types<bus_device *> >,1>::_Get_second
PUBLIC	?_Get_second@?$_Compressed_pair@V?$allocator@PEAVbus_device@@@std@@V?$_Vector_val@U?$_Simple_types@PEAVbus_device@@@std@@@2@$00@std@@QEBAAEBV?$_Vector_val@U?$_Simple_types@PEAVbus_device@@@std@@@2@XZ ; std::_Compressed_pair<std::allocator<bus_device *>,std::_Vector_val<std::_Simple_types<bus_device *> >,1>::_Get_second
PUBLIC	??0?$vector@PEAVbus_device@@V?$allocator@PEAVbus_device@@@std@@@std@@QEAA@XZ ; std::vector<bus_device *,std::allocator<bus_device *> >::vector<bus_device *,std::allocator<bus_device *> >
PUBLIC	??1?$vector@PEAVbus_device@@V?$allocator@PEAVbus_device@@@std@@@std@@QEAA@XZ ; std::vector<bus_device *,std::allocator<bus_device *> >::~vector<bus_device *,std::allocator<bus_device *> >
PUBLIC	?push_back@?$vector@PEAVbus_device@@V?$allocator@PEAVbus_device@@@std@@@std@@QEAAXAEBQEAVbus_device@@@Z ; std::vector<bus_device *,std::allocator<bus_device *> >::push_back
PUBLIC	?erase@?$vector@PEAVbus_device@@V?$allocator@PEAVbus_device@@@std@@@std@@QEAA?AV?$_Vector_iterator@V?$_Vector_val@U?$_Simple_types@PEAVbus_device@@@std@@@std@@@2@V?$_Vector_const_iterator@V?$_Vector_val@U?$_Simple_types@PEAVbus_device@@@std@@@std@@@2@@Z ; std::vector<bus_device *,std::allocator<bus_device *> >::erase
PUBLIC	?begin@?$vector@PEAVbus_device@@V?$allocator@PEAVbus_device@@@std@@@std@@QEAA?AV?$_Vector_iterator@V?$_Vector_val@U?$_Simple_types@PEAVbus_device@@@std@@@std@@@2@XZ ; std::vector<bus_device *,std::allocator<bus_device *> >::begin
PUBLIC	?_Unchecked_begin@?$vector@PEAVbus_device@@V?$allocator@PEAVbus_device@@@std@@@std@@QEAAPEAPEAVbus_device@@XZ ; std::vector<bus_device *,std::allocator<bus_device *> >::_Unchecked_begin
PUBLIC	?_Unchecked_end@?$vector@PEAVbus_device@@V?$allocator@PEAVbus_device@@@std@@@std@@QEAAPEAPEAVbus_device@@XZ ; std::vector<bus_device *,std::allocator<bus_device *> >::_Unchecked_end
PUBLIC	?size@?$vector@PEAVbus_device@@V?$allocator@PEAVbus_device@@@std@@@std@@QEBA_KXZ ; std::vector<bus_device *,std::allocator<bus_device *> >::size
PUBLIC	?max_size@?$vector@PEAVbus_device@@V?$allocator@PEAVbus_device@@@std@@@std@@QEBA_KXZ ; std::vector<bus_device *,std::allocator<bus_device *> >::max_size
PUBLIC	?capacity@?$vector@PEAVbus_device@@V?$allocator@PEAVbus_device@@@std@@@std@@QEBA_KXZ ; std::vector<bus_device *,std::allocator<bus_device *> >::capacity
PUBLIC	?_Has_unused_capacity@?$vector@PEAVbus_device@@V?$allocator@PEAVbus_device@@@std@@@std@@AEBA_NXZ ; std::vector<bus_device *,std::allocator<bus_device *> >::_Has_unused_capacity
PUBLIC	??A?$vector@PEAVbus_device@@V?$allocator@PEAVbus_device@@@std@@@std@@QEAAAEAPEAVbus_device@@_K@Z ; std::vector<bus_device *,std::allocator<bus_device *> >::operator[]
PUBLIC	?_Umove@?$vector@PEAVbus_device@@V?$allocator@PEAVbus_device@@@std@@@std@@AEAAPEAPEAVbus_device@@PEAPEAV3@00@Z ; std::vector<bus_device *,std::allocator<bus_device *> >::_Umove
PUBLIC	?_Umove_if_noexcept1@?$vector@PEAVbus_device@@V?$allocator@PEAVbus_device@@@std@@@std@@AEAAXPEAPEAVbus_device@@00U?$integral_constant@_N$00@2@@Z ; std::vector<bus_device *,std::allocator<bus_device *> >::_Umove_if_noexcept1
PUBLIC	?_Umove_if_noexcept@?$vector@PEAVbus_device@@V?$allocator@PEAVbus_device@@@std@@@std@@AEAAXPEAPEAVbus_device@@00@Z ; std::vector<bus_device *,std::allocator<bus_device *> >::_Umove_if_noexcept
PUBLIC	?_Destroy@?$vector@PEAVbus_device@@V?$allocator@PEAVbus_device@@@std@@@std@@AEAAXPEAPEAVbus_device@@0@Z ; std::vector<bus_device *,std::allocator<bus_device *> >::_Destroy
PUBLIC	?_Calculate_growth@?$vector@PEAVbus_device@@V?$allocator@PEAVbus_device@@@std@@@std@@AEBA_K_K@Z ; std::vector<bus_device *,std::allocator<bus_device *> >::_Calculate_growth
PUBLIC	?_Change_array@?$vector@PEAVbus_device@@V?$allocator@PEAVbus_device@@@std@@@std@@AEAAXQEAPEAVbus_device@@_K1@Z ; std::vector<bus_device *,std::allocator<bus_device *> >::_Change_array
PUBLIC	?_Tidy@?$vector@PEAVbus_device@@V?$allocator@PEAVbus_device@@@std@@@std@@AEAAXXZ ; std::vector<bus_device *,std::allocator<bus_device *> >::_Tidy
PUBLIC	?_Xlength@?$vector@PEAVbus_device@@V?$allocator@PEAVbus_device@@@std@@@std@@CAXXZ ; std::vector<bus_device *,std::allocator<bus_device *> >::_Xlength
PUBLIC	?_Orphan_range@?$vector@PEAVbus_device@@V?$allocator@PEAVbus_device@@@std@@@std@@AEBAXPEAPEAVbus_device@@0@Z ; std::vector<bus_device *,std::allocator<bus_device *> >::_Orphan_range
PUBLIC	??0bus@@QEAA@XZ					; bus::bus
PUBLIC	??1bus@@QEAA@XZ					; bus::~bus
PUBLIC	?writememory@bus@@QEAAXHE@Z			; bus::writememory
PUBLIC	?readmemory@bus@@QEAAEH@Z			; bus::readmemory
PUBLIC	?readmemory_as_word@bus@@QEAAGH@Z		; bus::readmemory_as_word
PUBLIC	?readmemory_as_word_wrap@bus@@QEAAGH@Z		; bus::readmemory_as_word_wrap
PUBLIC	?write@bus@@QEAAXE@Z				; bus::write
PUBLIC	?read@bus@@QEAAEXZ				; bus::read
PUBLIC	?nmi_pulled@bus@@QEAA_NXZ			; bus::nmi_pulled
PUBLIC	?irq_pulled@bus@@QEAA_NXZ			; bus::irq_pulled
PUBLIC	?registerdevice@bus@@QEAAXPEAVbus_device@@@Z	; bus::registerdevice
PUBLIC	?removedevice_select_base@bus@@QEAAXH@Z		; bus::removedevice_select_base
PUBLIC	?reportdevices@bus@@QEAAXXZ			; bus::reportdevices
PUBLIC	?emulate_bus_conflicts@bus@@QEAAX_N@Z		; bus::emulate_bus_conflicts
PUBLIC	?hex@std@@YAAEAVios_base@1@AEAV21@@Z		; std::hex
PUBLIC	??0?$_Vector_const_iterator@V?$_Vector_val@U?$_Simple_types@PEAVbus_device@@@std@@@std@@@std@@QEAA@PEAPEAVbus_device@@PEBU_Container_base12@1@@Z ; std::_Vector_const_iterator<std::_Vector_val<std::_Simple_types<bus_device *> > >::_Vector_const_iterator<std::_Vector_val<std::_Simple_types<bus_device *> > >
PUBLIC	?_Verify_offset@?$_Vector_const_iterator@V?$_Vector_val@U?$_Simple_types@PEAVbus_device@@@std@@@std@@@std@@QEBAX_J@Z ; std::_Vector_const_iterator<std::_Vector_val<std::_Simple_types<bus_device *> > >::_Verify_offset
PUBLIC	??Y?$_Vector_const_iterator@V?$_Vector_val@U?$_Simple_types@PEAVbus_device@@@std@@@std@@@std@@QEAAAEAV01@_J@Z ; std::_Vector_const_iterator<std::_Vector_val<std::_Simple_types<bus_device *> > >::operator+=
PUBLIC	??1?$_Vector_const_iterator@V?$_Vector_val@U?$_Simple_types@PEAVbus_device@@@std@@@std@@@std@@QEAA@XZ ; std::_Vector_const_iterator<std::_Vector_val<std::_Simple_types<bus_device *> > >::~_Vector_const_iterator<std::_Vector_val<std::_Simple_types<bus_device *> > >
PUBLIC	??0?$_Vector_const_iterator@V?$_Vector_val@U?$_Simple_types@PEAVbus_device@@@std@@@std@@@std@@QEAA@AEBV01@@Z ; std::_Vector_const_iterator<std::_Vector_val<std::_Simple_types<bus_device *> > >::_Vector_const_iterator<std::_Vector_val<std::_Simple_types<bus_device *> > >
PUBLIC	??0?$_Vector_const_iterator@V?$_Vector_val@U?$_Simple_types@PEAVbus_device@@@std@@@std@@@std@@QEAA@$$QEAV01@@Z ; std::_Vector_const_iterator<std::_Vector_val<std::_Simple_types<bus_device *> > >::_Vector_const_iterator<std::_Vector_val<std::_Simple_types<bus_device *> > >
PUBLIC	??0?$_Vector_iterator@V?$_Vector_val@U?$_Simple_types@PEAVbus_device@@@std@@@std@@@std@@QEAA@PEAPEAVbus_device@@PEBU_Container_base12@1@@Z ; std::_Vector_iterator<std::_Vector_val<std::_Simple_types<bus_device *> > >::_Vector_iterator<std::_Vector_val<std::_Simple_types<bus_device *> > >
PUBLIC	??Y?$_Vector_iterator@V?$_Vector_val@U?$_Simple_types@PEAVbus_device@@@std@@@std@@@std@@QEAAAEAV01@_J@Z ; std::_Vector_iterator<std::_Vector_val<std::_Simple_types<bus_device *> > >::operator+=
PUBLIC	??H?$_Vector_iterator@V?$_Vector_val@U?$_Simple_types@PEAVbus_device@@@std@@@std@@@std@@QEBA?AV01@_J@Z ; std::_Vector_iterator<std::_Vector_val<std::_Simple_types<bus_device *> > >::operator+
PUBLIC	??1?$_Vector_iterator@V?$_Vector_val@U?$_Simple_types@PEAVbus_device@@@std@@@std@@@std@@QEAA@XZ ; std::_Vector_iterator<std::_Vector_val<std::_Simple_types<bus_device *> > >::~_Vector_iterator<std::_Vector_val<std::_Simple_types<bus_device *> > >
PUBLIC	??0?$_Vector_iterator@V?$_Vector_val@U?$_Simple_types@PEAVbus_device@@@std@@@std@@@std@@QEAA@AEBV01@@Z ; std::_Vector_iterator<std::_Vector_val<std::_Simple_types<bus_device *> > >::_Vector_iterator<std::_Vector_val<std::_Simple_types<bus_device *> > >
PUBLIC	?__autoclassinit2@?$_Vector_iterator@V?$_Vector_val@U?$_Simple_types@PEAVbus_device@@@std@@@std@@@std@@QEAAX_K@Z ; std::_Vector_iterator<std::_Vector_val<std::_Simple_types<bus_device *> > >::__autoclassinit2
PUBLIC	??$?6U?$char_traits@D@std@@@std@@YAAEAV?$basic_ostream@DU?$char_traits@D@std@@@0@AEAV10@PEBD@Z ; std::operator<<<std::char_traits<char> >
PUBLIC	??$endl@DU?$char_traits@D@std@@@std@@YAAEAV?$basic_ostream@DU?$char_traits@D@std@@@0@AEAV10@@Z ; std::endl<char,std::char_traits<char> >
PUBLIC	??$addressof@V?$_Vector_val@U?$_Simple_types@PEAVbus_device@@@std@@@std@@@std@@YAPEAV?$_Vector_val@U?$_Simple_types@PEAVbus_device@@@std@@@0@AEAV10@@Z ; std::addressof<std::_Vector_val<std::_Simple_types<bus_device *> > >
PUBLIC	??$_Move_unchecked@PEAPEAVbus_device@@PEAPEAV1@@std@@YAPEAPEAVbus_device@@PEAPEAV1@00@Z ; std::_Move_unchecked<bus_device * *,bus_device * *>
PUBLIC	??$_Unfancy@PEAVbus_device@@@std@@YAPEAPEAVbus_device@@PEAPEAV1@@Z ; std::_Unfancy<bus_device *>
PUBLIC	??$destroy@PEAVbus_device@@@?$_Default_allocator_traits@V?$allocator@PEAVbus_device@@@std@@@std@@SAXAEAV?$allocator@PEAVbus_device@@@1@QEAPEAVbus_device@@@Z ; std::_Default_allocator_traits<std::allocator<bus_device *> >::destroy<bus_device *>
PUBLIC	??$emplace_back@AEBQEAVbus_device@@@?$vector@PEAVbus_device@@V?$allocator@PEAVbus_device@@@std@@@std@@QEAA@AEBQEAVbus_device@@@Z ; std::vector<bus_device *,std::allocator<bus_device *> >::emplace_back<bus_device * const &>
PUBLIC	??$forward@AEBQEAVbus_device@@@std@@YAAEBQEAVbus_device@@AEBQEAV1@@Z ; std::forward<bus_device * const &>
PUBLIC	??$_Emplace_back_with_unused_capacity@AEBQEAVbus_device@@@?$vector@PEAVbus_device@@V?$allocator@PEAVbus_device@@@std@@@std@@AEAA@AEBQEAVbus_device@@@Z ; std::vector<bus_device *,std::allocator<bus_device *> >::_Emplace_back_with_unused_capacity<bus_device * const &>
PUBLIC	??$construct@PEAVbus_device@@AEBQEAV1@@?$_Default_allocator_traits@V?$allocator@PEAVbus_device@@@std@@@std@@SAXAEAV?$allocator@PEAVbus_device@@@1@QEAPEAVbus_device@@AEBQEAV3@@Z ; std::_Default_allocator_traits<std::allocator<bus_device *> >::construct<bus_device *,bus_device * const &>
PUBLIC	??$_Emplace_reallocate@AEBQEAVbus_device@@@?$vector@PEAVbus_device@@V?$allocator@PEAVbus_device@@@std@@@std@@QEAAPEAPEAVbus_device@@QEAPEAV2@AEBQEAV2@@Z ; std::vector<bus_device *,std::allocator<bus_device *> >::_Emplace_reallocate<bus_device * const &>
PUBLIC	??0_Sentry_base@?$basic_ostream@DU?$char_traits@D@std@@@std@@QEAA@AEAV12@@Z ; std::basic_ostream<char,std::char_traits<char> >::_Sentry_base::_Sentry_base
PUBLIC	??1_Sentry_base@?$basic_ostream@DU?$char_traits@D@std@@@std@@QEAA@XZ ; std::basic_ostream<char,std::char_traits<char> >::_Sentry_base::~_Sentry_base
PUBLIC	??0sentry@?$basic_ostream@DU?$char_traits@D@std@@@std@@QEAA@AEAV12@@Z ; std::basic_ostream<char,std::char_traits<char> >::sentry::sentry
PUBLIC	??1sentry@?$basic_ostream@DU?$char_traits@D@std@@@std@@QEAA@XZ ; std::basic_ostream<char,std::char_traits<char> >::sentry::~sentry
PUBLIC	??Bsentry@?$basic_ostream@DU?$char_traits@D@std@@@std@@QEBA_NXZ ; std::basic_ostream<char,std::char_traits<char> >::sentry::operator bool
PUBLIC	??$?0$$V@?$_Compressed_pair@V?$allocator@PEAVbus_device@@@std@@V?$_Vector_val@U?$_Simple_types@PEAVbus_device@@@std@@@2@$00@std@@QEAA@U_Zero_then_variadic_args_t@1@@Z ; std::_Compressed_pair<std::allocator<bus_device *>,std::_Vector_val<std::_Simple_types<bus_device *> >,1>::_Compressed_pair<std::allocator<bus_device *>,std::_Vector_val<std::_Simple_types<bus_device *> >,1><>
PUBLIC	??$_Allocate@$0BA@U_Default_allocate_traits@std@@$0A@@std@@YAPEAX_K@Z ; std::_Allocate<16,std::_Default_allocate_traits,0>
PUBLIC	??$_Deallocate@$0BA@$0A@@std@@YAXPEAX_K@Z	; std::_Deallocate<16,0>
PUBLIC	?allocate@?$allocator@U_Container_proxy@std@@@std@@QEAAPEAU_Container_proxy@2@_K@Z ; std::allocator<std::_Container_proxy>::allocate
PUBLIC	??$?0PEAVbus_device@@@?$allocator@U_Container_proxy@std@@@std@@QEAA@AEBV?$allocator@PEAVbus_device@@@1@@Z ; std::allocator<std::_Container_proxy>::allocator<std::_Container_proxy><bus_device *>
PUBLIC	?deallocate@?$_Default_allocator_traits@V?$allocator@U_Container_proxy@std@@@std@@@std@@SAXAEAV?$allocator@U_Container_proxy@std@@@2@QEAU_Container_proxy@2@_K@Z ; std::_Default_allocator_traits<std::allocator<std::_Container_proxy> >::deallocate
PUBLIC	??$destroy@U_Container_proxy@std@@@?$_Default_allocator_traits@V?$allocator@U_Container_proxy@std@@@std@@@std@@SAXAEAV?$allocator@U_Container_proxy@std@@@1@QEAU_Container_proxy@1@@Z ; std::_Default_allocator_traits<std::allocator<std::_Container_proxy> >::destroy<std::_Container_proxy>
PUBLIC	??$_Deallocate_plain@V?$allocator@U_Container_proxy@std@@@std@@$0A@@std@@YAXAEAV?$allocator@U_Container_proxy@std@@@0@QEAU_Container_proxy@0@@Z ; std::_Deallocate_plain<std::allocator<std::_Container_proxy>,0>
PUBLIC	??$_Unfancy@U_Container_proxy@std@@@std@@YAPEAU_Container_proxy@0@PEAU10@@Z ; std::_Unfancy<std::_Container_proxy>
PUBLIC	??$construct@U_Container_proxy@std@@U12@@?$_Default_allocator_traits@V?$allocator@U_Container_proxy@std@@@std@@@std@@SAXAEAV?$allocator@U_Container_proxy@std@@@1@QEAU_Container_proxy@1@$$QEAU31@@Z ; std::_Default_allocator_traits<std::allocator<std::_Container_proxy> >::construct<std::_Container_proxy,std::_Container_proxy>
PUBLIC	??$_Destroy_range@V?$allocator@PEAVbus_device@@@std@@@std@@YAXPEAPEAVbus_device@@0AEAV?$allocator@PEAVbus_device@@@0@@Z ; std::_Destroy_range<std::allocator<bus_device *> >
PUBLIC	??$_Get_size_of_n@$0BA@@std@@YA_K_K@Z		; std::_Get_size_of_n<16>
PUBLIC	??$_Ptr_move_cat@PEAVbus_device@@PEAV1@@std@@YA?AU_Really_trivial_ptr_iterator_tag@0@AEBQEAPEAVbus_device@@0@Z ; std::_Ptr_move_cat<bus_device *,bus_device *>
PUBLIC	??$_Move_unchecked1@PEAPEAVbus_device@@PEAPEAV1@@std@@YAPEAPEAVbus_device@@PEAPEAV1@00U_Trivially_copyable_ptr_iterator_tag@0@@Z ; std::_Move_unchecked1<bus_device * *,bus_device * *>
PUBLIC	??$_Allocate_manually_vector_aligned@U_Default_allocate_traits@std@@@std@@YAPEAX_K@Z ; std::_Allocate_manually_vector_aligned<std::_Default_allocate_traits>
PUBLIC	??$forward@U_Container_proxy@std@@@std@@YA$$QEAU_Container_proxy@0@AEAU10@@Z ; std::forward<std::_Container_proxy>
PUBLIC	??$_Destroy_range1@V?$allocator@PEAVbus_device@@@std@@@std@@YAXPEAPEAVbus_device@@0AEAV?$allocator@PEAVbus_device@@@0@U?$integral_constant@_N$00@0@@Z ; std::_Destroy_range1<std::allocator<bus_device *> >
PUBLIC	??$_Uninitialized_move@PEAPEAVbus_device@@PEAPEAV1@V?$allocator@PEAVbus_device@@@std@@@std@@YAPEAPEAVbus_device@@QEAPEAV1@0PEAPEAV1@AEAV?$allocator@PEAVbus_device@@@0@@Z ; std::_Uninitialized_move<bus_device * *,bus_device * *,std::allocator<bus_device *> >
PUBLIC	??$_Get_size_of_n@$07@std@@YA_K_K@Z		; std::_Get_size_of_n<8>
PUBLIC	??$_Copy_memmove@PEAPEAVbus_device@@PEAPEAV1@@std@@YAPEAPEAVbus_device@@PEAPEAV1@00@Z ; std::_Copy_memmove<bus_device * *,bus_device * *>
PUBLIC	??$_Get_unwrapped@PEAVbus_device@@@std@@YAPEAPEAVbus_device@@QEAPEAV1@@Z ; std::_Get_unwrapped<bus_device *>
PUBLIC	??$_Idl_distance@PEAPEAVbus_device@@PEAPEAV1@@std@@YA@AEBQEAPEAVbus_device@@0@Z ; std::_Idl_distance<bus_device * *,bus_device * *>
PUBLIC	??$_Idl_distance1@PEAPEAVbus_device@@PEAPEAV1@@std@@YA_JAEBQEAPEAVbus_device@@0Urandom_access_iterator_tag@0@@Z ; std::_Idl_distance1<bus_device * *,bus_device * *>
PUBLIC	??$_Get_unwrapped_n@PEAVbus_device@@_J$0A@@std@@YAPEAPEAVbus_device@@QEAPEAV1@_J@Z ; std::_Get_unwrapped_n<bus_device *,__int64,0>
PUBLIC	??$_Uninitialized_move_al_unchecked@PEAVbus_device@@PEAV1@V?$allocator@PEAVbus_device@@@std@@@std@@YAPEAPEAVbus_device@@QEAPEAV1@00AEAV?$allocator@PEAVbus_device@@@0@U_Really_trivial_ptr_iterator_tag@0@U?$integral_constant@_N$00@0@@Z ; std::_Uninitialized_move_al_unchecked<bus_device *,bus_device *,std::allocator<bus_device *> >
PUBLIC	??$_Seek_wrapped@PEAVbus_device@@@std@@YAXAEAPEAPEAVbus_device@@QEAPEAV1@@Z ; std::_Seek_wrapped<bus_device *>
PUBLIC	__JustMyCode_Default
PUBLIC	??_C@_0BB@FCMFBGOM@invalid?5argument@		; `string'
PUBLIC	??_C@_02DKCKIIND@?$CFs@				; `string'
PUBLIC	??_C@_1CG@JNLFBNGN@?$AA?$CC?$AAi?$AAn?$AAv?$AAa?$AAl?$AAi?$AAd?$AA?5?$AAa?$AAr?$AAg?$AAu?$AAm?$AAe@ ; `string'
PUBLIC	??_C@_0BJ@LFDBABJJ@ITERATOR?5LIST?5CORRUPTED?$CB@ ; `string'
PUBLIC	??_C@_0GJ@EJIMBHLG@c?3?2program?5files?5?$CIx86?$CJ?2microsof@ ; `string'
PUBLIC	??_C@_1NC@FANNPLN@?$AAc?$AA?3?$AA?2?$AAp?$AAr?$AAo?$AAg?$AAr?$AAa?$AAm?$AA?5?$AAf?$AAi?$AAl?$AAe@ ; `string'
PUBLIC	??_C@_1EE@KLDMFDFL@?$AAs?$AAt?$AAd?$AA?3?$AA?3?$AA_?$AAI?$AAt?$AAe?$AAr?$AAa?$AAt?$AAo?$AAr?$AA_@ ; `string'
PUBLIC	??_C@_1DG@PLBPCAEM@?$AA?$CC?$AAI?$AAT?$AAE?$AAR?$AAA?$AAT?$AAO?$AAR?$AA?5?$AAL?$AAI?$AAS?$AAT?$AA?5@ ; `string'
PUBLIC	?__LINE__Var@?0??_Adjust_manually_vector_aligned@std@@YAXAEAPEAXAEA_K@Z@4JA ; `std::_Adjust_manually_vector_aligned'::`1'::__LINE__Var
PUBLIC	??_C@_0GJ@FFDBCFBF@c?3?2program?5files?5?$CIx86?$CJ?2microsof@ ; `string'
PUBLIC	??_C@_1NC@PIOGAKBO@?$AAc?$AA?3?$AA?2?$AAp?$AAr?$AAo?$AAg?$AAr?$AAa?$AAm?$AA?5?$AAf?$AAi?$AAl?$AAe@ ; `string'
PUBLIC	??_C@_1EK@NIFDJFDG@?$AAs?$AAt?$AAd?$AA?3?$AA?3?$AA_?$AAA?$AAd?$AAj?$AAu?$AAs?$AAt?$AA_?$AAm?$AAa@ ; `string'
PUBLIC	??_7device@@6B@					; device::`vftable'
PUBLIC	??_7bus_device@@6B@				; bus_device::`vftable'
PUBLIC	??_C@_01LBDDMOBJ@?$FN@				; `string'
PUBLIC	??_C@_0BE@IJMACPFN@registered?5device?5?$FL@	; `string'
PUBLIC	??_C@_0FA@CLHJNGFJ@?9?9?9?9?9?9?9?9?9?9?9?9?9?9?9?9?9?9?9?9?9?9?9?9?9?9?9?9?9?9?9@ ; `string'
PUBLIC	??_C@_05BDHPAJIP@?5?9?50x@			; `string'
PUBLIC	??_C@_0BO@KMHDIEBP@device?5operating?5range?5is?5?$FL0x@ ; `string'
PUBLIC	??_C@_0BM@GMLPKDLM@device?5adressing?5mask?5is?50x@ ; `string'
PUBLIC	??_C@_06LCIDCBMH@?5bytes@			; `string'
PUBLIC	??_C@_0BK@HECGDHBI@device?5reports?5size?5is?50x@ ; `string'
PUBLIC	??_C@_03ICICOMAL@yes@				; `string'
PUBLIC	??_C@_02KAJCLHKP@no@				; `string'
PUBLIC	??_C@_0BO@HBKBAGAM@full?5bus?5emulation?5required?$DP?5@ ; `string'
PUBLIC	??_C@_0BH@GDKDGNOP@Denver?5Base?5I?1O?5Device@	; `string'
PUBLIC	??_C@_0BD@MAHCLMLC@Denver?5Base?5Device@	; `string'
PUBLIC	??_C@_0BO@PFKOHNJC@vector?5subscript?5out?5of?5range@ ; `string'
PUBLIC	??_C@_0GH@FKAHJGEE@c?3?2program?5files?5?$CIx86?$CJ?2microsof@ ; `string'
PUBLIC	??_C@_1MO@OJBMIJHH@?$AAc?$AA?3?$AA?2?$AAp?$AAr?$AAo?$AAg?$AAr?$AAa?$AAm?$AA?5?$AAf?$AAi?$AAl?$AAe@ ; `string'
PUBLIC	??_C@_1KO@ONLFOBNG@?$AAs?$AAt?$AAd?$AA?3?$AA?3?$AAv?$AAe?$AAc?$AAt?$AAo?$AAr?$AA?$DM?$AAc?$AAl?$AAa@ ; `string'
PUBLIC	??_C@_1EA@LEKOKFNB@?$AA?$CC?$AAv?$AAe?$AAc?$AAt?$AAo?$AAr?$AA?5?$AAs?$AAu?$AAb?$AAs?$AAc?$AAr?$AAi@ ; `string'
PUBLIC	??_C@_0CE@EAMOGAIE@vector?5erase?5iterator?5outside?5r@ ; `string'
PUBLIC	??_C@_1KC@BCHEBHHN@?$AAs?$AAt?$AAd?$AA?3?$AA?3?$AAv?$AAe?$AAc?$AAt?$AAo?$AAr?$AA?$DM?$AAc?$AAl?$AAa@ ; `string'
PUBLIC	??_C@_1EM@BEMPOGMM@?$AA?$CC?$AAv?$AAe?$AAc?$AAt?$AAo?$AAr?$AA?5?$AAe?$AAr?$AAa?$AAs?$AAe?$AA?5?$AAi@ ; `string'
PUBLIC	??_C@_0CO@LHPFLLJB@cannot?5seek?5value?9initialized?5v@ ; `string'
PUBLIC	??_C@_1OK@MPDCGGGF@?$AAs?$AAt?$AAd?$AA?3?$AA?3?$AA_?$AAV?$AAe?$AAc?$AAt?$AAo?$AAr?$AA_?$AAc?$AAo@ ; `string'
PUBLIC	??_C@_1GA@EIHBFEJD@?$AA?$CC?$AAc?$AAa?$AAn?$AAn?$AAo?$AAt?$AA?5?$AAs?$AAe?$AAe?$AAk?$AA?5?$AAv?$AAa@ ; `string'
PUBLIC	??_C@_0CJ@DIFMEJBE@cannot?5seek?5vector?5iterator?5bef@ ; `string'
PUBLIC	??_C@_1FG@JCGKNFIB@?$AA?$CC?$AAc?$AAa?$AAn?$AAn?$AAo?$AAt?$AA?5?$AAs?$AAe?$AAe?$AAk?$AA?5?$AAv?$AAe@ ; `string'
PUBLIC	??_C@_0CG@JDIOCKHH@cannot?5seek?5vector?5iterator?5aft@ ; `string'
PUBLIC	??_C@_1FA@LCODAPOP@?$AA?$CC?$AAc?$AAa?$AAn?$AAn?$AAo?$AAt?$AA?5?$AAs?$AAe?$AAe?$AAk?$AA?5?$AAv?$AAe@ ; `string'
PUBLIC	??_C@_0BD@OLBABOEK@vector?$DMT?$DO?5too?5long@	; `string'
PUBLIC	??_C@_1EO@GFNCMDLA@?$AAs?$AAt?$AAd?$AA?3?$AA?3?$AA_?$AAA?$AAl?$AAl?$AAo?$AAc?$AAa?$AAt?$AAe?$AA_@ ; `string'
PUBLIC	??_R4device@@6B@				; device::`RTTI Complete Object Locator'
PUBLIC	??_R0?AVdevice@@@8				; device `RTTI Type Descriptor'
PUBLIC	??_R3device@@8					; device::`RTTI Class Hierarchy Descriptor'
PUBLIC	??_R2device@@8					; device::`RTTI Base Class Array'
PUBLIC	??_R1A@?0A@EA@device@@8				; device::`RTTI Base Class Descriptor at (0,-1,0,64)'
PUBLIC	??_R4bus_device@@6B@				; bus_device::`RTTI Complete Object Locator'
PUBLIC	??_R0?AVbus_device@@@8				; bus_device `RTTI Type Descriptor'
PUBLIC	??_R3bus_device@@8				; bus_device::`RTTI Class Hierarchy Descriptor'
PUBLIC	??_R2bus_device@@8				; bus_device::`RTTI Base Class Array'
PUBLIC	??_R1A@?0A@EA@bus_device@@8			; bus_device::`RTTI Base Class Descriptor at (0,-1,0,64)'
EXTRN	??2@YAPEAX_K@Z:PROC				; operator new
EXTRN	??3@YAXPEAX_K@Z:PROC				; operator delete
EXTRN	__imp__invalid_parameter:PROC
EXTRN	memmove:PROC
EXTRN	__imp_free:PROC
EXTRN	__imp_malloc:PROC
EXTRN	__imp_strcpy_s:PROC
EXTRN	strlen:PROC
EXTRN	__imp__CrtDbgReport:PROC
EXTRN	__imp_??0_Lockit@std@@QEAA@H@Z:PROC
EXTRN	__imp_??1_Lockit@std@@QEAA@XZ:PROC
EXTRN	?uncaught_exception@std@@YA_NXZ:PROC		; std::uncaught_exception
EXTRN	?_Xlength_error@std@@YAXPEBD@Z:PROC		; std::_Xlength_error
EXTRN	??_Ebus_device@@UEAAPEAXI@Z:PROC		; bus_device::`vector deleting destructor'
EXTRN	__imp_?good@ios_base@std@@QEBA_NXZ:PROC
EXTRN	__imp_?flags@ios_base@std@@QEBAHXZ:PROC
EXTRN	__imp_?setf@ios_base@std@@QEAAHHH@Z:PROC
EXTRN	__imp_?width@ios_base@std@@QEBA_JXZ:PROC
EXTRN	__imp_?width@ios_base@std@@QEAA_J_J@Z:PROC
EXTRN	__imp_?sputc@?$basic_streambuf@DU?$char_traits@D@std@@@std@@QEAAHD@Z:PROC
EXTRN	__imp_?sputn@?$basic_streambuf@DU?$char_traits@D@std@@@std@@QEAA_JPEBD_J@Z:PROC
EXTRN	__imp_?setstate@?$basic_ios@DU?$char_traits@D@std@@@std@@QEAAXH_N@Z:PROC
EXTRN	__imp_?tie@?$basic_ios@DU?$char_traits@D@std@@@std@@QEBAPEAV?$basic_ostream@DU?$char_traits@D@std@@@2@XZ:PROC
EXTRN	__imp_?rdbuf@?$basic_ios@DU?$char_traits@D@std@@@std@@QEBAPEAV?$basic_streambuf@DU?$char_traits@D@std@@@2@XZ:PROC
EXTRN	__imp_?fill@?$basic_ios@DU?$char_traits@D@std@@@std@@QEBADXZ:PROC
EXTRN	__imp_?widen@?$basic_ios@DU?$char_traits@D@std@@@std@@QEBADD@Z:PROC
EXTRN	__imp_?_Osfx@?$basic_ostream@DU?$char_traits@D@std@@@std@@QEAAXXZ:PROC
EXTRN	__imp_??6?$basic_ostream@DU?$char_traits@D@std@@@std@@QEAAAEAV01@P6AAEAV01@AEAV01@@Z@Z:PROC
EXTRN	__imp_??6?$basic_ostream@DU?$char_traits@D@std@@@std@@QEAAAEAV01@P6AAEAVios_base@1@AEAV21@@Z@Z:PROC
EXTRN	__imp_??6?$basic_ostream@DU?$char_traits@D@std@@@std@@QEAAAEAV01@H@Z:PROC
EXTRN	__imp_?put@?$basic_ostream@DU?$char_traits@D@std@@@std@@QEAAAEAV12@D@Z:PROC
EXTRN	__imp_?flush@?$basic_ostream@DU?$char_traits@D@std@@@std@@QEAAAEAV12@XZ:PROC
EXTRN	_CxxThrowException:PROC
EXTRN	_RTC_CheckStackVars:PROC
EXTRN	_RTC_InitBase:PROC
EXTRN	_RTC_Shutdown:PROC
EXTRN	__CheckForDebuggerJustMyCode:PROC
EXTRN	__CxxFrameHandler3:PROC
EXTRN	__GSHandlerCheck:PROC
EXTRN	__GSHandlerCheck_EH:PROC
EXTRN	__security_check_cookie:PROC
EXTRN	??_7type_info@@6B@:BYTE				; type_info::`vftable'
EXTRN	__imp_?cout@std@@3V?$basic_ostream@DU?$char_traits@D@std@@@1@A:BYTE
EXTRN	__security_cookie:QWORD
;	COMDAT pdata
pdata	SEGMENT
$pdata$?__empty_global_delete@@YAXPEAX@Z DD imagerel $LN3
	DD	imagerel $LN3+64
	DD	imagerel $unwind$?__empty_global_delete@@YAXPEAX@Z
pdata	ENDS
;	COMDAT pdata
pdata	SEGMENT
$pdata$?__empty_global_delete@@YAXPEAX_K@Z DD imagerel $LN3
	DD	imagerel $LN3+69
	DD	imagerel $unwind$?__empty_global_delete@@YAXPEAX_K@Z
pdata	ENDS
;	COMDAT pdata
pdata	SEGMENT
$pdata$??2@YAPEAX_KPEAX@Z DD imagerel $LN3
	DD	imagerel $LN3+88
	DD	imagerel $unwind$??2@YAPEAX_KPEAX@Z
pdata	ENDS
;	COMDAT pdata
pdata	SEGMENT
$pdata$?max@?$numeric_limits@_J@std@@SA_JXZ DD imagerel $LN3
	DD	imagerel $LN3+74
	DD	imagerel $unwind$?max@?$numeric_limits@_J@std@@SA_JXZ
pdata	ENDS
;	COMDAT pdata
pdata	SEGMENT
$pdata$?length@?$char_traits@D@std@@SA_KQEBD@Z DD imagerel $LN3
	DD	imagerel $LN3+89
	DD	imagerel $unwind$?length@?$char_traits@D@std@@SA_KQEBD@Z
pdata	ENDS
;	COMDAT pdata
pdata	SEGMENT
$pdata$?eq_int_type@?$char_traits@D@std@@SA_NAEBH0@Z DD imagerel $LN5
	DD	imagerel $LN5+130
	DD	imagerel $unwind$?eq_int_type@?$char_traits@D@std@@SA_NAEBH0@Z
pdata	ENDS
;	COMDAT pdata
pdata	SEGMENT
$pdata$?eof@?$char_traits@D@std@@SAHXZ DD imagerel $LN3
	DD	imagerel $LN3+69
	DD	imagerel $unwind$?eof@?$char_traits@D@std@@SAHXZ
pdata	ENDS
;	COMDAT pdata
pdata	SEGMENT
$pdata$??0_Container_proxy@std@@QEAA@XZ DD imagerel $LN3
	DD	imagerel $LN3+112
	DD	imagerel $unwind$??0_Container_proxy@std@@QEAA@XZ
pdata	ENDS
;	COMDAT pdata
pdata	SEGMENT
$pdata$??0_Container_base12@std@@QEAA@XZ DD imagerel $LN3
	DD	imagerel $LN3+85
	DD	imagerel $unwind$??0_Container_base12@std@@QEAA@XZ
pdata	ENDS
;	COMDAT pdata
pdata	SEGMENT
$pdata$?_Getpfirst@_Container_base12@std@@QEBAPEAPEAU_Iterator_base12@2@XZ DD imagerel $LN5
	DD	imagerel $LN5+130
	DD	imagerel $unwind$?_Getpfirst@_Container_base12@std@@QEBAPEAPEAU_Iterator_base12@2@XZ
pdata	ENDS
;	COMDAT pdata
pdata	SEGMENT
$pdata$?_Orphan_all@_Container_base12@std@@QEAAXXZ DD imagerel $LN7
	DD	imagerel $LN7+248
	DD	imagerel $unwind$?_Orphan_all@_Container_base12@std@@QEAAXXZ
pdata	ENDS
;	COMDAT pdata
pdata	SEGMENT
$pdata$??0_Iterator_base12@std@@QEAA@XZ DD imagerel $LN3
	DD	imagerel $LN3+112
	DD	imagerel $unwind$??0_Iterator_base12@std@@QEAA@XZ
pdata	ENDS
;	COMDAT pdata
pdata	SEGMENT
$pdata$??0_Iterator_base12@std@@QEAA@AEBU01@@Z DD imagerel $LN3
	DD	imagerel $LN3+137
	DD	imagerel $unwind$??0_Iterator_base12@std@@QEAA@AEBU01@@Z
pdata	ENDS
;	COMDAT pdata
pdata	SEGMENT
$pdata$??4_Iterator_base12@std@@QEAAAEAU01@AEBU01@@Z DD imagerel $LN6
	DD	imagerel $LN6+247
	DD	imagerel $unwind$??4_Iterator_base12@std@@QEAAAEAU01@AEBU01@@Z
pdata	ENDS
;	COMDAT pdata
pdata	SEGMENT
$pdata$??1_Iterator_base12@std@@QEAA@XZ DD imagerel $LN3
	DD	imagerel $LN3+166
	DD	imagerel $unwind$??1_Iterator_base12@std@@QEAA@XZ
pdata	ENDS
;	COMDAT pdata
pdata	SEGMENT
$pdata$?_Adopt@_Iterator_base12@std@@QEAAXPEBU_Container_base12@2@@Z DD imagerel $LN6
	DD	imagerel $LN6+301
	DD	imagerel $unwind$?_Adopt@_Iterator_base12@std@@QEAAXPEBU_Container_base12@2@@Z
pdata	ENDS
;	COMDAT pdata
pdata	SEGMENT
$pdata$?_Clrcont@_Iterator_base12@std@@QEAAXXZ DD imagerel $LN3
	DD	imagerel $LN3+90
	DD	imagerel $unwind$?_Clrcont@_Iterator_base12@std@@QEAAXXZ
pdata	ENDS
;	COMDAT pdata
pdata	SEGMENT
$pdata$?_Getcont@_Iterator_base12@std@@QEBAPEBU_Container_base12@2@XZ DD imagerel $LN5
	DD	imagerel $LN5+129
	DD	imagerel $unwind$?_Getcont@_Iterator_base12@std@@QEBAPEBU_Container_base12@2@XZ
pdata	ENDS
;	COMDAT pdata
pdata	SEGMENT
$pdata$?_Getpnext@_Iterator_base12@std@@QEAAPEAPEAU12@XZ DD imagerel $LN3
	DD	imagerel $LN3+87
	DD	imagerel $unwind$?_Getpnext@_Iterator_base12@std@@QEAAPEAPEAU12@XZ
pdata	ENDS
;	COMDAT pdata
pdata	SEGMENT
$pdata$?_Orphan_me@_Iterator_base12@std@@QEAAXXZ DD imagerel $LN15
	DD	imagerel $LN15+313
	DD	imagerel $unwind$?_Orphan_me@_Iterator_base12@std@@QEAAXXZ
pdata	ENDS
;	COMDAT pdata
pdata	SEGMENT
$pdata$?_Allocate@_Default_allocate_traits@std@@SAPEAX_K@Z DD imagerel $LN3
	DD	imagerel $LN3+76
	DD	imagerel $unwind$?_Allocate@_Default_allocate_traits@std@@SAPEAX_K@Z
pdata	ENDS
;	COMDAT pdata
pdata	SEGMENT
$pdata$?_Adjust_manually_vector_aligned@std@@YAXAEAPEAXAEA_K@Z DD imagerel $LN21
	DD	imagerel $LN21+476
	DD	imagerel $unwind$?_Adjust_manually_vector_aligned@std@@YAXAEAPEAXAEA_K@Z
pdata	ENDS
;	COMDAT pdata
pdata	SEGMENT
$pdata$??$_Min_value@_K@std@@YAAEB_KAEB_K0@Z DD imagerel $LN5
	DD	imagerel $LN5+154
	DD	imagerel $unwind$??$_Min_value@_K@std@@YAAEB_KAEB_K0@Z
pdata	ENDS
;	COMDAT pdata
pdata	SEGMENT
$pdata$??0device@@QEAA@XZ DD imagerel $LN3
	DD	imagerel $LN3+167
	DD	imagerel $unwind$??0device@@QEAA@XZ
pdata	ENDS
;	COMDAT pdata
pdata	SEGMENT
$pdata$??1device@@QEAA@XZ DD imagerel $LN3
	DD	imagerel $LN3+111
	DD	imagerel $unwind$??1device@@QEAA@XZ
pdata	ENDS
;	COMDAT pdata
pdata	SEGMENT
$pdata$?rundevice@device@@UEAAHH@Z DD imagerel $LN3
	DD	imagerel $LN3+74
	DD	imagerel $unwind$?rundevice@device@@UEAAHH@Z
pdata	ENDS
;	COMDAT pdata
pdata	SEGMENT
$pdata$?get_device_descriptor@device@@QEAAPEADXZ DD imagerel $LN3
	DD	imagerel $LN3+75
	DD	imagerel $unwind$?get_device_descriptor@device@@QEAAPEADXZ
pdata	ENDS
;	COMDAT pdata
pdata	SEGMENT
$pdata$?dma@device@@UEAAXPEAE_N1@Z DD imagerel $LN3
	DD	imagerel $LN3+79
	DD	imagerel $unwind$?dma@device@@UEAAXPEAE_N1@Z
pdata	ENDS
;	COMDAT pdata
pdata	SEGMENT
$pdata$??0bus_device@@QEAA@XZ DD imagerel $LN7
	DD	imagerel $LN7+231
	DD	imagerel $unwind$??0bus_device@@QEAA@XZ
pdata	ENDS
;	COMDAT pdata
pdata	SEGMENT
$pdata$?dtor$0@?0???0bus_device@@QEAA@XZ@4HA DD imagerel ?dtor$0@?0???0bus_device@@QEAA@XZ@4HA
	DD	imagerel ?dtor$0@?0???0bus_device@@QEAA@XZ@4HA+39
	DD	imagerel $unwind$?dtor$0@?0???0bus_device@@QEAA@XZ@4HA
pdata	ENDS
;	COMDAT pdata
pdata	SEGMENT
$pdata$??1bus_device@@UEAA@XZ DD imagerel $LN3
	DD	imagerel $LN3+106
	DD	imagerel $unwind$??1bus_device@@UEAA@XZ
pdata	ENDS
;	COMDAT pdata
pdata	SEGMENT
$pdata$?compute_addr_from_layout@bus_device@@QEAAGG@Z DD imagerel $LN11
	DD	imagerel $LN11+320
	DD	imagerel $unwind$?compute_addr_from_layout@bus_device@@QEAAGG@Z
pdata	ENDS
;	COMDAT pdata
pdata	SEGMENT
$pdata$?swappins@bus_device@@QEAAXHH@Z DD imagerel $LN3
	DD	imagerel $LN3+166
	DD	imagerel $unwind$?swappins@bus_device@@QEAAXHH@Z
pdata	ENDS
;	COMDAT pdata
pdata	SEGMENT
$pdata$?groundpin@bus_device@@QEAAXH@Z DD imagerel $LN3
	DD	imagerel $LN3+98
	DD	imagerel $unwind$?groundpin@bus_device@@QEAAXH@Z
pdata	ENDS
;	COMDAT pdata
pdata	SEGMENT
$pdata$?vccpin@bus_device@@QEAAXH@Z DD imagerel $LN3
	DD	imagerel $LN3+98
	DD	imagerel $unwind$?vccpin@bus_device@@QEAAXH@Z
pdata	ENDS
;	COMDAT pdata
pdata	SEGMENT
$pdata$?resetpins_to_default@bus_device@@QEAAXXZ DD imagerel $LN6
	DD	imagerel $LN6+119
	DD	imagerel $unwind$?resetpins_to_default@bus_device@@QEAAXXZ
pdata	ENDS
;	COMDAT pdata
pdata	SEGMENT
$pdata$?write@bus_device@@UEAAXHHE@Z DD imagerel $LN3
	DD	imagerel $LN3+78
	DD	imagerel $unwind$?write@bus_device@@UEAAXHHE@Z
pdata	ENDS
;	COMDAT pdata
pdata	SEGMENT
$pdata$?read@bus_device@@UEAAEHH@Z DD imagerel $LN3
	DD	imagerel $LN3+75
	DD	imagerel $unwind$?read@bus_device@@UEAAEHH@Z
pdata	ENDS
;	COMDAT pdata
pdata	SEGMENT
$pdata$??_Gbus_device@@UEAAPEAXI@Z DD imagerel $LN4
	DD	imagerel $LN4+105
	DD	imagerel $unwind$??_Gbus_device@@UEAAPEAXI@Z
pdata	ENDS
;	COMDAT pdata
pdata	SEGMENT
$pdata$??0?$allocator@PEAVbus_device@@@std@@QEAA@XZ DD imagerel $LN3
	DD	imagerel $LN3+83
	DD	imagerel $unwind$??0?$allocator@PEAVbus_device@@@std@@QEAA@XZ
pdata	ENDS
;	COMDAT pdata
pdata	SEGMENT
$pdata$?deallocate@?$allocator@PEAVbus_device@@@std@@QEAAXQEAPEAVbus_device@@_K@Z DD imagerel $LN3
	DD	imagerel $LN3+100
	DD	imagerel $unwind$?deallocate@?$allocator@PEAVbus_device@@@std@@QEAAXQEAPEAVbus_device@@_K@Z
pdata	ENDS
;	COMDAT pdata
pdata	SEGMENT
$pdata$?allocate@?$allocator@PEAVbus_device@@@std@@QEAAPEAPEAVbus_device@@_K@Z DD imagerel $LN3
	DD	imagerel $LN3+89
	DD	imagerel $unwind$?allocate@?$allocator@PEAVbus_device@@@std@@QEAAPEAPEAVbus_device@@_K@Z
pdata	ENDS
;	COMDAT pdata
pdata	SEGMENT
$pdata$?max_size@?$_Default_allocator_traits@V?$allocator@PEAVbus_device@@@std@@@std@@SA_KAEBV?$allocator@PEAVbus_device@@@2@@Z DD imagerel $LN3
	DD	imagerel $LN3+86
	DD	imagerel $unwind$?max_size@?$_Default_allocator_traits@V?$allocator@PEAVbus_device@@@std@@@std@@SA_KAEBV?$allocator@PEAVbus_device@@@2@@Z
pdata	ENDS
;	COMDAT pdata
pdata	SEGMENT
$pdata$??0?$_Vector_alloc@U?$_Vec_base_types@PEAVbus_device@@V?$allocator@PEAVbus_device@@@std@@@std@@@std@@QEAA@XZ DD imagerel $LN3
	DD	imagerel $LN3+105
	DD	imagerel $unwind$??0?$_Vector_alloc@U?$_Vec_base_types@PEAVbus_device@@V?$allocator@PEAVbus_device@@@std@@@std@@@std@@QEAA@XZ
pdata	ENDS
;	COMDAT pdata
pdata	SEGMENT
$pdata$??1?$_Vector_alloc@U?$_Vec_base_types@PEAVbus_device@@V?$allocator@PEAVbus_device@@@std@@@std@@@std@@QEAA@XZ DD imagerel $LN3
	DD	imagerel $LN3+89
	DD	imagerel $unwind$??1?$_Vector_alloc@U?$_Vec_base_types@PEAVbus_device@@V?$allocator@PEAVbus_device@@@std@@@std@@@std@@QEAA@XZ
pdata	ENDS
;	COMDAT pdata
pdata	SEGMENT
$pdata$?_Alloc_proxy@?$_Vector_alloc@U?$_Vec_base_types@PEAVbus_device@@V?$allocator@PEAVbus_device@@@std@@@std@@@std@@QEAAXXZ DD imagerel $LN3
	DD	imagerel $LN3+292
	DD	imagerel $unwind$?_Alloc_proxy@?$_Vector_alloc@U?$_Vec_base_types@PEAVbus_device@@V?$allocator@PEAVbus_device@@@std@@@std@@@std@@QEAAXXZ
pdata	ENDS
;	COMDAT pdata
pdata	SEGMENT
$pdata$?_Free_proxy@?$_Vector_alloc@U?$_Vec_base_types@PEAVbus_device@@V?$allocator@PEAVbus_device@@@std@@@std@@@std@@QEAAXXZ DD imagerel $LN3
	DD	imagerel $LN3+215
	DD	imagerel $unwind$?_Free_proxy@?$_Vector_alloc@U?$_Vec_base_types@PEAVbus_device@@V?$allocator@PEAVbus_device@@@std@@@std@@@std@@QEAAXXZ
pdata	ENDS
;	COMDAT pdata
pdata	SEGMENT
$pdata$?_Getpfirst@?$_Vector_alloc@U?$_Vec_base_types@PEAVbus_device@@V?$allocator@PEAVbus_device@@@std@@@std@@@std@@QEBAPEAPEAU_Iterator_base12@2@XZ DD imagerel $LN3
	DD	imagerel $LN3+84
	DD	imagerel $unwind$?_Getpfirst@?$_Vector_alloc@U?$_Vec_base_types@PEAVbus_device@@V?$allocator@PEAVbus_device@@@std@@@std@@@std@@QEBAPEAPEAU_Iterator_base12@2@XZ
pdata	ENDS
;	COMDAT pdata
pdata	SEGMENT
$pdata$?_Myproxy@?$_Vector_alloc@U?$_Vec_base_types@PEAVbus_device@@V?$allocator@PEAVbus_device@@@std@@@std@@@std@@QEAAAEAPEAU_Container_proxy@2@XZ DD imagerel $LN3
	DD	imagerel $LN3+89
	DD	imagerel $unwind$?_Myproxy@?$_Vector_alloc@U?$_Vec_base_types@PEAVbus_device@@V?$allocator@PEAVbus_device@@@std@@@std@@@std@@QEAAAEAPEAU_Container_proxy@2@XZ
pdata	ENDS
;	COMDAT pdata
pdata	SEGMENT
$pdata$?_Orphan_all@?$_Vector_alloc@U?$_Vec_base_types@PEAVbus_device@@V?$allocator@PEAVbus_device@@@std@@@std@@@std@@QEAAXXZ DD imagerel $LN3
	DD	imagerel $LN3+84
	DD	imagerel $unwind$?_Orphan_all@?$_Vector_alloc@U?$_Vec_base_types@PEAVbus_device@@V?$allocator@PEAVbus_device@@@std@@@std@@@std@@QEAAXXZ
pdata	ENDS
;	COMDAT pdata
pdata	SEGMENT
$pdata$?_Getal@?$_Vector_alloc@U?$_Vec_base_types@PEAVbus_device@@V?$allocator@PEAVbus_device@@@std@@@std@@@std@@QEAAAEAV?$allocator@PEAVbus_device@@@2@XZ DD imagerel $LN3
	DD	imagerel $LN3+92
	DD	imagerel $unwind$?_Getal@?$_Vector_alloc@U?$_Vec_base_types@PEAVbus_device@@V?$allocator@PEAVbus_device@@@std@@@std@@@std@@QEAAAEAV?$allocator@PEAVbus_device@@@2@XZ
pdata	ENDS
;	COMDAT pdata
pdata	SEGMENT
$pdata$?_Getal@?$_Vector_alloc@U?$_Vec_base_types@PEAVbus_device@@V?$allocator@PEAVbus_device@@@std@@@std@@@std@@QEBAAEBV?$allocator@PEAVbus_device@@@2@XZ DD imagerel $LN3
	DD	imagerel $LN3+92
	DD	imagerel $unwind$?_Getal@?$_Vector_alloc@U?$_Vec_base_types@PEAVbus_device@@V?$allocator@PEAVbus_device@@@std@@@std@@@std@@QEBAAEBV?$allocator@PEAVbus_device@@@2@XZ
pdata	ENDS
;	COMDAT pdata
pdata	SEGMENT
$pdata$?_Get_data@?$_Vector_alloc@U?$_Vec_base_types@PEAVbus_device@@V?$allocator@PEAVbus_device@@@std@@@std@@@std@@QEAAAEAV?$_Vector_val@U?$_Simple_types@PEAVbus_device@@@std@@@2@XZ DD imagerel $LN3
	DD	imagerel $LN3+92
	DD	imagerel $unwind$?_Get_data@?$_Vector_alloc@U?$_Vec_base_types@PEAVbus_device@@V?$allocator@PEAVbus_device@@@std@@@std@@@std@@QEAAAEAV?$_Vector_val@U?$_Simple_types@PEAVbus_device@@@std@@@2@XZ
pdata	ENDS
;	COMDAT pdata
pdata	SEGMENT
$pdata$?_Get_data@?$_Vector_alloc@U?$_Vec_base_types@PEAVbus_device@@V?$allocator@PEAVbus_device@@@std@@@std@@@std@@QEBAAEBV?$_Vector_val@U?$_Simple_types@PEAVbus_device@@@std@@@2@XZ DD imagerel $LN3
	DD	imagerel $LN3+92
	DD	imagerel $unwind$?_Get_data@?$_Vector_alloc@U?$_Vec_base_types@PEAVbus_device@@V?$allocator@PEAVbus_device@@@std@@@std@@@std@@QEBAAEBV?$_Vector_val@U?$_Simple_types@PEAVbus_device@@@std@@@2@XZ
pdata	ENDS
;	COMDAT pdata
pdata	SEGMENT
$pdata$?_Myfirst@?$_Vector_alloc@U?$_Vec_base_types@PEAVbus_device@@V?$allocator@PEAVbus_device@@@std@@@std@@@std@@QEAAAEAPEAPEAVbus_device@@XZ DD imagerel $LN3
	DD	imagerel $LN3+93
	DD	imagerel $unwind$?_Myfirst@?$_Vector_alloc@U?$_Vec_base_types@PEAVbus_device@@V?$allocator@PEAVbus_device@@@std@@@std@@@std@@QEAAAEAPEAPEAVbus_device@@XZ
pdata	ENDS
;	COMDAT pdata
pdata	SEGMENT
$pdata$?_Myfirst@?$_Vector_alloc@U?$_Vec_base_types@PEAVbus_device@@V?$allocator@PEAVbus_device@@@std@@@std@@@std@@QEBAAEBQEAPEAVbus_device@@XZ DD imagerel $LN3
	DD	imagerel $LN3+93
	DD	imagerel $unwind$?_Myfirst@?$_Vector_alloc@U?$_Vec_base_types@PEAVbus_device@@V?$allocator@PEAVbus_device@@@std@@@std@@@std@@QEBAAEBQEAPEAVbus_device@@XZ
pdata	ENDS
;	COMDAT pdata
pdata	SEGMENT
$pdata$?_Mylast@?$_Vector_alloc@U?$_Vec_base_types@PEAVbus_device@@V?$allocator@PEAVbus_device@@@std@@@std@@@std@@QEAAAEAPEAPEAVbus_device@@XZ DD imagerel $LN3
	DD	imagerel $LN3+93
	DD	imagerel $unwind$?_Mylast@?$_Vector_alloc@U?$_Vec_base_types@PEAVbus_device@@V?$allocator@PEAVbus_device@@@std@@@std@@@std@@QEAAAEAPEAPEAVbus_device@@XZ
pdata	ENDS
;	COMDAT pdata
pdata	SEGMENT
$pdata$?_Mylast@?$_Vector_alloc@U?$_Vec_base_types@PEAVbus_device@@V?$allocator@PEAVbus_device@@@std@@@std@@@std@@QEBAAEBQEAPEAVbus_device@@XZ DD imagerel $LN3
	DD	imagerel $LN3+93
	DD	imagerel $unwind$?_Mylast@?$_Vector_alloc@U?$_Vec_base_types@PEAVbus_device@@V?$allocator@PEAVbus_device@@@std@@@std@@@std@@QEBAAEBQEAPEAVbus_device@@XZ
pdata	ENDS
;	COMDAT pdata
pdata	SEGMENT
$pdata$?_Myend@?$_Vector_alloc@U?$_Vec_base_types@PEAVbus_device@@V?$allocator@PEAVbus_device@@@std@@@std@@@std@@QEAAAEAPEAPEAVbus_device@@XZ DD imagerel $LN3
	DD	imagerel $LN3+93
	DD	imagerel $unwind$?_Myend@?$_Vector_alloc@U?$_Vec_base_types@PEAVbus_device@@V?$allocator@PEAVbus_device@@@std@@@std@@@std@@QEAAAEAPEAPEAVbus_device@@XZ
pdata	ENDS
;	COMDAT pdata
pdata	SEGMENT
$pdata$?_Myend@?$_Vector_alloc@U?$_Vec_base_types@PEAVbus_device@@V?$allocator@PEAVbus_device@@@std@@@std@@@std@@QEBAAEBQEAPEAVbus_device@@XZ DD imagerel $LN3
	DD	imagerel $LN3+93
	DD	imagerel $unwind$?_Myend@?$_Vector_alloc@U?$_Vec_base_types@PEAVbus_device@@V?$allocator@PEAVbus_device@@@std@@@std@@@std@@QEBAAEBQEAPEAVbus_device@@XZ
pdata	ENDS
;	COMDAT pdata
pdata	SEGMENT
$pdata$??0?$_Vector_val@U?$_Simple_types@PEAVbus_device@@@std@@@std@@QEAA@XZ DD imagerel $LN3
	DD	imagerel $LN3+128
	DD	imagerel $unwind$??0?$_Vector_val@U?$_Simple_types@PEAVbus_device@@@std@@@std@@QEAA@XZ
pdata	ENDS
;	COMDAT pdata
pdata	SEGMENT
$pdata$?_Get_first@?$_Compressed_pair@V?$allocator@PEAVbus_device@@@std@@V?$_Vector_val@U?$_Simple_types@PEAVbus_device@@@std@@@2@$00@std@@QEAAAEAV?$allocator@PEAVbus_device@@@2@XZ DD imagerel $LN3
	DD	imagerel $LN3+83
	DD	imagerel $unwind$?_Get_first@?$_Compressed_pair@V?$allocator@PEAVbus_device@@@std@@V?$_Vector_val@U?$_Simple_types@PEAVbus_device@@@std@@@2@$00@std@@QEAAAEAV?$allocator@PEAVbus_device@@@2@XZ
pdata	ENDS
;	COMDAT pdata
pdata	SEGMENT
$pdata$?_Get_first@?$_Compressed_pair@V?$allocator@PEAVbus_device@@@std@@V?$_Vector_val@U?$_Simple_types@PEAVbus_device@@@std@@@2@$00@std@@QEBAAEBV?$allocator@PEAVbus_device@@@2@XZ DD imagerel $LN3
	DD	imagerel $LN3+83
	DD	imagerel $unwind$?_Get_first@?$_Compressed_pair@V?$allocator@PEAVbus_device@@@std@@V?$_Vector_val@U?$_Simple_types@PEAVbus_device@@@std@@@2@$00@std@@QEBAAEBV?$allocator@PEAVbus_device@@@2@XZ
pdata	ENDS
;	COMDAT pdata
pdata	SEGMENT
$pdata$?_Get_second@?$_Compressed_pair@V?$allocator@PEAVbus_device@@@std@@V?$_Vector_val@U?$_Simple_types@PEAVbus_device@@@std@@@2@$00@std@@QEAAAEAV?$_Vector_val@U?$_Simple_types@PEAVbus_device@@@std@@@2@XZ DD imagerel $LN3
	DD	imagerel $LN3+83
	DD	imagerel $unwind$?_Get_second@?$_Compressed_pair@V?$allocator@PEAVbus_device@@@std@@V?$_Vector_val@U?$_Simple_types@PEAVbus_device@@@std@@@2@$00@std@@QEAAAEAV?$_Vector_val@U?$_Simple_types@PEAVbus_device@@@std@@@2@XZ
pdata	ENDS
;	COMDAT pdata
pdata	SEGMENT
$pdata$?_Get_second@?$_Compressed_pair@V?$allocator@PEAVbus_device@@@std@@V?$_Vector_val@U?$_Simple_types@PEAVbus_device@@@std@@@2@$00@std@@QEBAAEBV?$_Vector_val@U?$_Simple_types@PEAVbus_device@@@std@@@2@XZ DD imagerel $LN3
	DD	imagerel $LN3+83
	DD	imagerel $unwind$?_Get_second@?$_Compressed_pair@V?$allocator@PEAVbus_device@@@std@@V?$_Vector_val@U?$_Simple_types@PEAVbus_device@@@std@@@2@$00@std@@QEBAAEBV?$_Vector_val@U?$_Simple_types@PEAVbus_device@@@std@@@2@XZ
pdata	ENDS
;	COMDAT pdata
pdata	SEGMENT
$pdata$??0?$vector@PEAVbus_device@@V?$allocator@PEAVbus_device@@@std@@@std@@QEAA@XZ DD imagerel $LN3
	DD	imagerel $LN3+96
	DD	imagerel $unwind$??0?$vector@PEAVbus_device@@V?$allocator@PEAVbus_device@@@std@@@std@@QEAA@XZ
pdata	ENDS
;	COMDAT pdata
pdata	SEGMENT
$pdata$??1?$vector@PEAVbus_device@@V?$allocator@PEAVbus_device@@@std@@@std@@QEAA@XZ DD imagerel $LN3
	DD	imagerel $LN3+102
	DD	imagerel $unwind$??1?$vector@PEAVbus_device@@V?$allocator@PEAVbus_device@@@std@@@std@@QEAA@XZ
pdata	ENDS
;	COMDAT pdata
pdata	SEGMENT
$pdata$?push_back@?$vector@PEAVbus_device@@V?$allocator@PEAVbus_device@@@std@@@std@@QEAAXAEBQEAVbus_device@@@Z DD imagerel $LN3
	DD	imagerel $LN3+88
	DD	imagerel $unwind$?push_back@?$vector@PEAVbus_device@@V?$allocator@PEAVbus_device@@@std@@@std@@QEAAXAEBQEAVbus_device@@@Z
pdata	ENDS
;	COMDAT pdata
pdata	SEGMENT
$pdata$?erase@?$vector@PEAVbus_device@@V?$allocator@PEAVbus_device@@@std@@@std@@QEAA?AV?$_Vector_iterator@V?$_Vector_val@U?$_Simple_types@PEAVbus_device@@@std@@@std@@@2@V?$_Vector_const_iterator@V?$_Vector_val@U?$_Simple_types@PEAVbus_device@@@std@@@std@@@2@@Z DD imagerel $LN15
	DD	imagerel $LN15+592
	DD	imagerel $unwind$?erase@?$vector@PEAVbus_device@@V?$allocator@PEAVbus_device@@@std@@@std@@QEAA?AV?$_Vector_iterator@V?$_Vector_val@U?$_Simple_types@PEAVbus_device@@@std@@@std@@@2@V?$_Vector_const_iterator@V?$_Vector_val@U?$_Simple_types@PEAVbus_device@@@std@@@std@@@2@@Z
pdata	ENDS
;	COMDAT pdata
pdata	SEGMENT
$pdata$?dtor$0@?0??erase@?$vector@PEAVbus_device@@V?$allocator@PEAVbus_device@@@std@@@std@@QEAA?AV?$_Vector_iterator@V?$_Vector_val@U?$_Simple_types@PEAVbus_device@@@std@@@std@@@2@V?$_Vector_const_iterator@V?$_Vector_val@U?$_Simple_types@PEAVbus_device@@@std@@@std@@@2@@Z@4HA DD imagerel ?dtor$0@?0??erase@?$vector@PEAVbus_device@@V?$allocator@PEAVbus_device@@@std@@@std@@QEAA?AV?$_Vector_iterator@V?$_Vector_val@U?$_Simple_types@PEAVbus_device@@@std@@@std@@@2@V?$_Vector_const_iterator@V?$_Vector_val@U?$_Simple_types@PEAVbus_device@@@std@@@std@@@2@@Z@4HA
	DD	imagerel ?dtor$0@?0??erase@?$vector@PEAVbus_device@@V?$allocator@PEAVbus_device@@@std@@@std@@QEAA?AV?$_Vector_iterator@V?$_Vector_val@U?$_Simple_types@PEAVbus_device@@@std@@@std@@@2@V?$_Vector_const_iterator@V?$_Vector_val@U?$_Simple_types@PEAVbus_device@@@std@@@std@@@2@@Z@4HA+39
	DD	imagerel $unwind$?dtor$0@?0??erase@?$vector@PEAVbus_device@@V?$allocator@PEAVbus_device@@@std@@@std@@QEAA?AV?$_Vector_iterator@V?$_Vector_val@U?$_Simple_types@PEAVbus_device@@@std@@@std@@@2@V?$_Vector_const_iterator@V?$_Vector_val@U?$_Simple_types@PEAVbus_device@@@std@@@std@@@2@@Z@4HA
pdata	ENDS
;	COMDAT pdata
pdata	SEGMENT
$pdata$?begin@?$vector@PEAVbus_device@@V?$allocator@PEAVbus_device@@@std@@@std@@QEAA?AV?$_Vector_iterator@V?$_Vector_val@U?$_Simple_types@PEAVbus_device@@@std@@@std@@@2@XZ DD imagerel $LN3
	DD	imagerel $LN3+156
	DD	imagerel $unwind$?begin@?$vector@PEAVbus_device@@V?$allocator@PEAVbus_device@@@std@@@std@@QEAA?AV?$_Vector_iterator@V?$_Vector_val@U?$_Simple_types@PEAVbus_device@@@std@@@std@@@2@XZ
pdata	ENDS
;	COMDAT pdata
pdata	SEGMENT
$pdata$?_Unchecked_begin@?$vector@PEAVbus_device@@V?$allocator@PEAVbus_device@@@std@@@std@@QEAAPEAPEAVbus_device@@XZ DD imagerel $LN3
	DD	imagerel $LN3+92
	DD	imagerel $unwind$?_Unchecked_begin@?$vector@PEAVbus_device@@V?$allocator@PEAVbus_device@@@std@@@std@@QEAAPEAPEAVbus_device@@XZ
pdata	ENDS
;	COMDAT pdata
pdata	SEGMENT
$pdata$?_Unchecked_end@?$vector@PEAVbus_device@@V?$allocator@PEAVbus_device@@@std@@@std@@QEAAPEAPEAVbus_device@@XZ DD imagerel $LN3
	DD	imagerel $LN3+92
	DD	imagerel $unwind$?_Unchecked_end@?$vector@PEAVbus_device@@V?$allocator@PEAVbus_device@@@std@@@std@@QEAAPEAPEAVbus_device@@XZ
pdata	ENDS
;	COMDAT pdata
pdata	SEGMENT
$pdata$?size@?$vector@PEAVbus_device@@V?$allocator@PEAVbus_device@@@std@@@std@@QEBA_KXZ DD imagerel $LN3
	DD	imagerel $LN3+132
	DD	imagerel $unwind$?size@?$vector@PEAVbus_device@@V?$allocator@PEAVbus_device@@@std@@@std@@QEBA_KXZ
pdata	ENDS
;	COMDAT pdata
pdata	SEGMENT
$pdata$?max_size@?$vector@PEAVbus_device@@V?$allocator@PEAVbus_device@@@std@@@std@@QEBA_KXZ DD imagerel $LN3
	DD	imagerel $LN3+141
	DD	imagerel $unwind$?max_size@?$vector@PEAVbus_device@@V?$allocator@PEAVbus_device@@@std@@@std@@QEBA_KXZ
pdata	ENDS
;	COMDAT pdata
pdata	SEGMENT
$pdata$?capacity@?$vector@PEAVbus_device@@V?$allocator@PEAVbus_device@@@std@@@std@@QEBA_KXZ DD imagerel $LN3
	DD	imagerel $LN3+132
	DD	imagerel $unwind$?capacity@?$vector@PEAVbus_device@@V?$allocator@PEAVbus_device@@@std@@@std@@QEBA_KXZ
pdata	ENDS
;	COMDAT pdata
pdata	SEGMENT
$pdata$?_Has_unused_capacity@?$vector@PEAVbus_device@@V?$allocator@PEAVbus_device@@@std@@@std@@AEBA_NXZ DD imagerel $LN5
	DD	imagerel $LN5+153
	DD	imagerel $unwind$?_Has_unused_capacity@?$vector@PEAVbus_device@@V?$allocator@PEAVbus_device@@@std@@@std@@AEBA_NXZ
pdata	ENDS
;	COMDAT pdata
pdata	SEGMENT
$pdata$??A?$vector@PEAVbus_device@@V?$allocator@PEAVbus_device@@@std@@@std@@QEAAAEAPEAVbus_device@@_K@Z DD imagerel $LN12
	DD	imagerel $LN12+235
	DD	imagerel $unwind$??A?$vector@PEAVbus_device@@V?$allocator@PEAVbus_device@@@std@@@std@@QEAAAEAPEAVbus_device@@_K@Z
pdata	ENDS
;	COMDAT pdata
pdata	SEGMENT
$pdata$?_Umove@?$vector@PEAVbus_device@@V?$allocator@PEAVbus_device@@@std@@@std@@AEAAPEAPEAVbus_device@@PEAPEAV3@00@Z DD imagerel $LN3
	DD	imagerel $LN3+120
	DD	imagerel $unwind$?_Umove@?$vector@PEAVbus_device@@V?$allocator@PEAVbus_device@@@std@@@std@@AEAAPEAPEAVbus_device@@PEAPEAV3@00@Z
pdata	ENDS
;	COMDAT pdata
pdata	SEGMENT
$pdata$?_Umove_if_noexcept1@?$vector@PEAVbus_device@@V?$allocator@PEAVbus_device@@@std@@@std@@AEAAXPEAPEAVbus_device@@00U?$integral_constant@_N$00@2@@Z DD imagerel $LN3
	DD	imagerel $LN3+120
	DD	imagerel $unwind$?_Umove_if_noexcept1@?$vector@PEAVbus_device@@V?$allocator@PEAVbus_device@@@std@@@std@@AEAAXPEAPEAVbus_device@@00U?$integral_constant@_N$00@2@@Z
pdata	ENDS
;	COMDAT pdata
pdata	SEGMENT
$pdata$?_Umove_if_noexcept@?$vector@PEAVbus_device@@V?$allocator@PEAVbus_device@@@std@@@std@@AEAAXPEAPEAVbus_device@@00@Z DD imagerel $LN3
	DD	imagerel $LN3+142
	DD	imagerel $unwind$?_Umove_if_noexcept@?$vector@PEAVbus_device@@V?$allocator@PEAVbus_device@@@std@@@std@@AEAAXPEAPEAVbus_device@@00@Z
pdata	ENDS
;	COMDAT pdata
pdata	SEGMENT
$pdata$?_Destroy@?$vector@PEAVbus_device@@V?$allocator@PEAVbus_device@@@std@@@std@@AEAAXPEAPEAVbus_device@@0@Z DD imagerel $LN3
	DD	imagerel $LN3+108
	DD	imagerel $unwind$?_Destroy@?$vector@PEAVbus_device@@V?$allocator@PEAVbus_device@@@std@@@std@@AEAAXPEAPEAVbus_device@@0@Z
pdata	ENDS
;	COMDAT pdata
pdata	SEGMENT
$pdata$?_Calculate_growth@?$vector@PEAVbus_device@@V?$allocator@PEAVbus_device@@@std@@@std@@AEBA_K_K@Z DD imagerel $LN5
	DD	imagerel $LN5+200
	DD	imagerel $unwind$?_Calculate_growth@?$vector@PEAVbus_device@@V?$allocator@PEAVbus_device@@@std@@@std@@AEBA_K_K@Z
pdata	ENDS
;	COMDAT pdata
pdata	SEGMENT
$pdata$?_Change_array@?$vector@PEAVbus_device@@V?$allocator@PEAVbus_device@@@std@@@std@@AEAAXQEAPEAVbus_device@@_K1@Z DD imagerel $LN4
	DD	imagerel $LN4+363
	DD	imagerel $unwind$?_Change_array@?$vector@PEAVbus_device@@V?$allocator@PEAVbus_device@@@std@@@std@@AEAAXQEAPEAVbus_device@@_K1@Z
pdata	ENDS
;	COMDAT pdata
pdata	SEGMENT
$pdata$?_Tidy@?$vector@PEAVbus_device@@V?$allocator@PEAVbus_device@@@std@@@std@@AEAAXXZ DD imagerel $LN4
	DD	imagerel $LN4+289
	DD	imagerel $unwind$?_Tidy@?$vector@PEAVbus_device@@V?$allocator@PEAVbus_device@@@std@@@std@@AEAAXXZ
pdata	ENDS
;	COMDAT pdata
pdata	SEGMENT
$pdata$?_Xlength@?$vector@PEAVbus_device@@V?$allocator@PEAVbus_device@@@std@@@std@@CAXXZ DD imagerel $LN3
	DD	imagerel $LN3+64
	DD	imagerel $unwind$?_Xlength@?$vector@PEAVbus_device@@V?$allocator@PEAVbus_device@@@std@@@std@@CAXXZ
pdata	ENDS
;	COMDAT pdata
pdata	SEGMENT
$pdata$?_Orphan_range@?$vector@PEAVbus_device@@V?$allocator@PEAVbus_device@@@std@@@std@@AEBAXPEAPEAVbus_device@@0@Z DD imagerel $LN10
	DD	imagerel $LN10+286
	DD	imagerel $unwind$?_Orphan_range@?$vector@PEAVbus_device@@V?$allocator@PEAVbus_device@@@std@@@std@@AEBAXPEAPEAVbus_device@@0@Z
pdata	ENDS
;	COMDAT pdata
pdata	SEGMENT
$pdata$?dtor$0@?0??_Orphan_range@?$vector@PEAVbus_device@@V?$allocator@PEAVbus_device@@@std@@@std@@AEBAXPEAPEAVbus_device@@0@Z@4HA DD imagerel ?dtor$0@?0??_Orphan_range@?$vector@PEAVbus_device@@V?$allocator@PEAVbus_device@@@std@@@std@@AEBAXPEAPEAVbus_device@@0@Z@4HA
	DD	imagerel ?dtor$0@?0??_Orphan_range@?$vector@PEAVbus_device@@V?$allocator@PEAVbus_device@@@std@@@std@@AEBAXPEAPEAVbus_device@@0@Z@4HA+37
	DD	imagerel $unwind$?dtor$0@?0??_Orphan_range@?$vector@PEAVbus_device@@V?$allocator@PEAVbus_device@@@std@@@std@@AEBAXPEAPEAVbus_device@@0@Z@4HA
pdata	ENDS
;	COMDAT pdata
pdata	SEGMENT
$pdata$??0bus@@QEAA@XZ DD imagerel $LN4
	DD	imagerel $LN4+101
	DD	imagerel $unwind$??0bus@@QEAA@XZ
pdata	ENDS
;	COMDAT pdata
pdata	SEGMENT
$pdata$??1bus@@QEAA@XZ DD imagerel $LN8
	DD	imagerel $LN8+257
	DD	imagerel $unwind$??1bus@@QEAA@XZ
pdata	ENDS
;	COMDAT pdata
pdata	SEGMENT
$pdata$?writememory@bus@@QEAAXHE@Z DD imagerel $LN3
	DD	imagerel $LN3+107
	DD	imagerel $unwind$?writememory@bus@@QEAAXHE@Z
pdata	ENDS
;	COMDAT pdata
pdata	SEGMENT
$pdata$?readmemory@bus@@QEAAEH@Z DD imagerel $LN3
	DD	imagerel $LN3+95
	DD	imagerel $unwind$?readmemory@bus@@QEAAEH@Z
pdata	ENDS
;	COMDAT pdata
pdata	SEGMENT
$pdata$?readmemory_as_word@bus@@QEAAGH@Z DD imagerel $LN3
	DD	imagerel $LN3+160
	DD	imagerel $unwind$?readmemory_as_word@bus@@QEAAGH@Z
pdata	ENDS
;	COMDAT pdata
pdata	SEGMENT
$pdata$?readmemory_as_word_wrap@bus@@QEAAGH@Z DD imagerel $LN3
	DD	imagerel $LN3+176
	DD	imagerel $unwind$?readmemory_as_word_wrap@bus@@QEAAGH@Z
pdata	ENDS
;	COMDAT pdata
pdata	SEGMENT
$pdata$?write@bus@@QEAAXE@Z DD imagerel $LN8
	DD	imagerel $LN8+294
	DD	imagerel $unwind$?write@bus@@QEAAXE@Z
pdata	ENDS
;	COMDAT pdata
pdata	SEGMENT
$pdata$?read@bus@@QEAAEXZ DD imagerel $LN8
	DD	imagerel $LN8+329
	DD	imagerel $unwind$?read@bus@@QEAAEXZ
pdata	ENDS
;	COMDAT pdata
pdata	SEGMENT
$pdata$?nmi_pulled@bus@@QEAA_NXZ DD imagerel $LN7
	DD	imagerel $LN7+183
	DD	imagerel $unwind$?nmi_pulled@bus@@QEAA_NXZ
pdata	ENDS
;	COMDAT pdata
pdata	SEGMENT
$pdata$?irq_pulled@bus@@QEAA_NXZ DD imagerel $LN7
	DD	imagerel $LN7+160
	DD	imagerel $unwind$?irq_pulled@bus@@QEAA_NXZ
pdata	ENDS
;	COMDAT pdata
pdata	SEGMENT
$pdata$?registerdevice@bus@@QEAAXPEAVbus_device@@@Z DD imagerel $LN3
	DD	imagerel $LN3+95
	DD	imagerel $unwind$?registerdevice@bus@@QEAAXPEAVbus_device@@@Z
pdata	ENDS
;	COMDAT pdata
pdata	SEGMENT
$pdata$?removedevice_select_base@bus@@QEAAXH@Z DD imagerel $LN11
	DD	imagerel $LN11+379
	DD	imagerel $unwind$?removedevice_select_base@bus@@QEAAXH@Z
pdata	ENDS
;	COMDAT pdata
pdata	SEGMENT
$pdata$?dtor$0@?0??removedevice_select_base@bus@@QEAAXH@Z@4HA DD imagerel ?dtor$0@?0??removedevice_select_base@bus@@QEAAXH@Z@4HA
	DD	imagerel ?dtor$0@?0??removedevice_select_base@bus@@QEAAXH@Z@4HA+39
	DD	imagerel $unwind$?dtor$0@?0??removedevice_select_base@bus@@QEAAXH@Z@4HA
pdata	ENDS
;	COMDAT pdata
pdata	SEGMENT
$pdata$?dtor$1@?0??removedevice_select_base@bus@@QEAAXH@Z@4HA DD imagerel ?dtor$1@?0??removedevice_select_base@bus@@QEAAXH@Z@4HA
	DD	imagerel ?dtor$1@?0??removedevice_select_base@bus@@QEAAXH@Z@4HA+39
	DD	imagerel $unwind$?dtor$1@?0??removedevice_select_base@bus@@QEAAXH@Z@4HA
pdata	ENDS
;	COMDAT pdata
pdata	SEGMENT
$pdata$?reportdevices@bus@@QEAAXXZ DD imagerel $LN8
	DD	imagerel $LN8+629
	DD	imagerel $unwind$?reportdevices@bus@@QEAAXXZ
pdata	ENDS
;	COMDAT pdata
pdata	SEGMENT
$pdata$?emulate_bus_conflicts@bus@@QEAAX_N@Z DD imagerel $LN3
	DD	imagerel $LN3+85
	DD	imagerel $unwind$?emulate_bus_conflicts@bus@@QEAAX_N@Z
pdata	ENDS
;	COMDAT pdata
pdata	SEGMENT
$pdata$?hex@std@@YAAEAVios_base@1@AEAV21@@Z DD imagerel $LN3
	DD	imagerel $LN3+95
	DD	imagerel $unwind$?hex@std@@YAAEAVios_base@1@AEAV21@@Z
pdata	ENDS
;	COMDAT pdata
pdata	SEGMENT
$pdata$??0?$_Vector_const_iterator@V?$_Vector_val@U?$_Simple_types@PEAVbus_device@@@std@@@std@@@std@@QEAA@PEAPEAVbus_device@@PEBU_Container_base12@1@@Z DD imagerel $LN4
	DD	imagerel $LN4+130
	DD	imagerel $unwind$??0?$_Vector_const_iterator@V?$_Vector_val@U?$_Simple_types@PEAVbus_device@@@std@@@std@@@std@@QEAA@PEAPEAVbus_device@@PEBU_Container_base12@1@@Z
pdata	ENDS
;	COMDAT pdata
pdata	SEGMENT
$pdata$?_Verify_offset@?$_Vector_const_iterator@V?$_Vector_val@U?$_Simple_types@PEAVbus_device@@@std@@@std@@@std@@QEBAX_J@Z DD imagerel $LN33
	DD	imagerel $LN33+564
	DD	imagerel $unwind$?_Verify_offset@?$_Vector_const_iterator@V?$_Vector_val@U?$_Simple_types@PEAVbus_device@@@std@@@std@@@std@@QEBAX_J@Z
pdata	ENDS
;	COMDAT pdata
pdata	SEGMENT
$pdata$??Y?$_Vector_const_iterator@V?$_Vector_val@U?$_Simple_types@PEAVbus_device@@@std@@@std@@@std@@QEAAAEAV01@_J@Z DD imagerel $LN3
	DD	imagerel $LN3+128
	DD	imagerel $unwind$??Y?$_Vector_const_iterator@V?$_Vector_val@U?$_Simple_types@PEAVbus_device@@@std@@@std@@@std@@QEAAAEAV01@_J@Z
pdata	ENDS
;	COMDAT pdata
pdata	SEGMENT
$pdata$??1?$_Vector_const_iterator@V?$_Vector_val@U?$_Simple_types@PEAVbus_device@@@std@@@std@@@std@@QEAA@XZ DD imagerel $LN3
	DD	imagerel $LN3+64
	DD	imagerel $unwind$??1?$_Vector_const_iterator@V?$_Vector_val@U?$_Simple_types@PEAVbus_device@@@std@@@std@@@std@@QEAA@XZ
pdata	ENDS
;	COMDAT pdata
pdata	SEGMENT
$pdata$??0?$_Vector_const_iterator@V?$_Vector_val@U?$_Simple_types@PEAVbus_device@@@std@@@std@@@std@@QEAA@AEBV01@@Z DD imagerel $LN3
	DD	imagerel $LN3+105
	DD	imagerel $unwind$??0?$_Vector_const_iterator@V?$_Vector_val@U?$_Simple_types@PEAVbus_device@@@std@@@std@@@std@@QEAA@AEBV01@@Z
pdata	ENDS
;	COMDAT pdata
pdata	SEGMENT
$pdata$??0?$_Vector_const_iterator@V?$_Vector_val@U?$_Simple_types@PEAVbus_device@@@std@@@std@@@std@@QEAA@$$QEAV01@@Z DD imagerel $LN3
	DD	imagerel $LN3+105
	DD	imagerel $unwind$??0?$_Vector_const_iterator@V?$_Vector_val@U?$_Simple_types@PEAVbus_device@@@std@@@std@@@std@@QEAA@$$QEAV01@@Z
pdata	ENDS
;	COMDAT pdata
pdata	SEGMENT
$pdata$??0?$_Vector_iterator@V?$_Vector_val@U?$_Simple_types@PEAVbus_device@@@std@@@std@@@std@@QEAA@PEAPEAVbus_device@@PEBU_Container_base12@1@@Z DD imagerel $LN4
	DD	imagerel $LN4+107
	DD	imagerel $unwind$??0?$_Vector_iterator@V?$_Vector_val@U?$_Simple_types@PEAVbus_device@@@std@@@std@@@std@@QEAA@PEAPEAVbus_device@@PEBU_Container_base12@1@@Z
pdata	ENDS
;	COMDAT pdata
pdata	SEGMENT
$pdata$??Y?$_Vector_iterator@V?$_Vector_val@U?$_Simple_types@PEAVbus_device@@@std@@@std@@@std@@QEAAAEAV01@_J@Z DD imagerel $LN3
	DD	imagerel $LN3+95
	DD	imagerel $unwind$??Y?$_Vector_iterator@V?$_Vector_val@U?$_Simple_types@PEAVbus_device@@@std@@@std@@@std@@QEAAAEAV01@_J@Z
pdata	ENDS
;	COMDAT pdata
pdata	SEGMENT
$pdata$??H?$_Vector_iterator@V?$_Vector_val@U?$_Simple_types@PEAVbus_device@@@std@@@std@@@std@@QEBA?AV01@_J@Z DD imagerel $LN6
	DD	imagerel $LN6+242
	DD	imagerel $unwind$??H?$_Vector_iterator@V?$_Vector_val@U?$_Simple_types@PEAVbus_device@@@std@@@std@@@std@@QEBA?AV01@_J@Z
pdata	ENDS
;	COMDAT pdata
pdata	SEGMENT
$pdata$?dtor$0@?0???H?$_Vector_iterator@V?$_Vector_val@U?$_Simple_types@PEAVbus_device@@@std@@@std@@@std@@QEBA?AV01@_J@Z@4HA DD imagerel ?dtor$0@?0???H?$_Vector_iterator@V?$_Vector_val@U?$_Simple_types@PEAVbus_device@@@std@@@std@@@std@@QEBA?AV01@_J@Z@4HA
	DD	imagerel ?dtor$0@?0???H?$_Vector_iterator@V?$_Vector_val@U?$_Simple_types@PEAVbus_device@@@std@@@std@@@std@@QEBA?AV01@_J@Z@4HA+36
	DD	imagerel $unwind$?dtor$0@?0???H?$_Vector_iterator@V?$_Vector_val@U?$_Simple_types@PEAVbus_device@@@std@@@std@@@std@@QEBA?AV01@_J@Z@4HA
pdata	ENDS
;	COMDAT pdata
pdata	SEGMENT
$pdata$??1?$_Vector_iterator@V?$_Vector_val@U?$_Simple_types@PEAVbus_device@@@std@@@std@@@std@@QEAA@XZ DD imagerel $LN3
	DD	imagerel $LN3+64
	DD	imagerel $unwind$??1?$_Vector_iterator@V?$_Vector_val@U?$_Simple_types@PEAVbus_device@@@std@@@std@@@std@@QEAA@XZ
pdata	ENDS
;	COMDAT pdata
pdata	SEGMENT
$pdata$??0?$_Vector_iterator@V?$_Vector_val@U?$_Simple_types@PEAVbus_device@@@std@@@std@@@std@@QEAA@AEBV01@@Z DD imagerel $LN3
	DD	imagerel $LN3+83
	DD	imagerel $unwind$??0?$_Vector_iterator@V?$_Vector_val@U?$_Simple_types@PEAVbus_device@@@std@@@std@@@std@@QEAA@AEBV01@@Z
pdata	ENDS
;	COMDAT pdata
pdata	SEGMENT
$pdata$?__autoclassinit2@?$_Vector_iterator@V?$_Vector_val@U?$_Simple_types@PEAVbus_device@@@std@@@std@@@std@@QEAAX_K@Z DD imagerel $LN3
	DD	imagerel $LN3+73
	DD	imagerel $unwind$?__autoclassinit2@?$_Vector_iterator@V?$_Vector_val@U?$_Simple_types@PEAVbus_device@@@std@@@std@@@std@@QEAAX_K@Z
pdata	ENDS
;	COMDAT pdata
pdata	SEGMENT
$pdata$??$?6U?$char_traits@D@std@@@std@@YAAEAV?$basic_ostream@DU?$char_traits@D@std@@@0@AEAV10@PEBD@Z DD imagerel $LN25
	DD	imagerel $LN25+1045
	DD	imagerel $unwind$??$?6U?$char_traits@D@std@@@std@@YAAEAV?$basic_ostream@DU?$char_traits@D@std@@@0@AEAV10@PEBD@Z
pdata	ENDS
;	COMDAT pdata
pdata	SEGMENT
$pdata$?dtor$0@?0???$?6U?$char_traits@D@std@@@std@@YAAEAV?$basic_ostream@DU?$char_traits@D@std@@@0@AEAV10@PEBD@Z@4HA DD imagerel ?dtor$0@?0???$?6U?$char_traits@D@std@@@std@@YAAEAV?$basic_ostream@DU?$char_traits@D@std@@@0@AEAV10@PEBD@Z@4HA
	DD	imagerel ?dtor$0@?0???$?6U?$char_traits@D@std@@@std@@YAAEAV?$basic_ostream@DU?$char_traits@D@std@@@0@AEAV10@PEBD@Z@4HA+36
	DD	imagerel $unwind$?dtor$0@?0???$?6U?$char_traits@D@std@@@std@@YAAEAV?$basic_ostream@DU?$char_traits@D@std@@@0@AEAV10@PEBD@Z@4HA
pdata	ENDS
;	COMDAT pdata
pdata	SEGMENT
$pdata$?catch$1@?0???$?6U?$char_traits@D@std@@@std@@YAAEAV?$basic_ostream@DU?$char_traits@D@std@@@0@AEAV10@PEBD@Z@4HA DD imagerel ?catch$1@?0???$?6U?$char_traits@D@std@@@std@@YAAEAV?$basic_ostream@DU?$char_traits@D@std@@@0@AEAV10@PEBD@Z@4HA
	DD	imagerel ?catch$1@?0???$?6U?$char_traits@D@std@@@std@@YAAEAV?$basic_ostream@DU?$char_traits@D@std@@@0@AEAV10@PEBD@Z@4HA+80
	DD	imagerel $unwind$?catch$1@?0???$?6U?$char_traits@D@std@@@std@@YAAEAV?$basic_ostream@DU?$char_traits@D@std@@@0@AEAV10@PEBD@Z@4HA
pdata	ENDS
;	COMDAT pdata
pdata	SEGMENT
$pdata$??$endl@DU?$char_traits@D@std@@@std@@YAAEAV?$basic_ostream@DU?$char_traits@D@std@@@0@AEAV10@@Z DD imagerel $LN3
	DD	imagerel $LN3+138
	DD	imagerel $unwind$??$endl@DU?$char_traits@D@std@@@std@@YAAEAV?$basic_ostream@DU?$char_traits@D@std@@@0@AEAV10@@Z
pdata	ENDS
;	COMDAT pdata
pdata	SEGMENT
$pdata$??$addressof@V?$_Vector_val@U?$_Simple_types@PEAVbus_device@@@std@@@std@@@std@@YAPEAV?$_Vector_val@U?$_Simple_types@PEAVbus_device@@@std@@@0@AEAV10@@Z DD imagerel $LN3
	DD	imagerel $LN3+83
	DD	imagerel $unwind$??$addressof@V?$_Vector_val@U?$_Simple_types@PEAVbus_device@@@std@@@std@@@std@@YAPEAV?$_Vector_val@U?$_Simple_types@PEAVbus_device@@@std@@@0@AEAV10@@Z
pdata	ENDS
;	COMDAT pdata
pdata	SEGMENT
$pdata$??$_Move_unchecked@PEAPEAVbus_device@@PEAPEAV1@@std@@YAPEAPEAVbus_device@@PEAPEAV1@00@Z DD imagerel $LN3
	DD	imagerel $LN3+134
	DD	imagerel $unwind$??$_Move_unchecked@PEAPEAVbus_device@@PEAPEAV1@@std@@YAPEAPEAVbus_device@@PEAPEAV1@00@Z
pdata	ENDS
;	COMDAT pdata
pdata	SEGMENT
$pdata$??$_Unfancy@PEAVbus_device@@@std@@YAPEAPEAVbus_device@@PEAPEAV1@@Z DD imagerel $LN3
	DD	imagerel $LN3+71
	DD	imagerel $unwind$??$_Unfancy@PEAVbus_device@@@std@@YAPEAPEAVbus_device@@PEAPEAV1@@Z
pdata	ENDS
;	COMDAT pdata
pdata	SEGMENT
$pdata$??$destroy@PEAVbus_device@@@?$_Default_allocator_traits@V?$allocator@PEAVbus_device@@@std@@@std@@SAXAEAV?$allocator@PEAVbus_device@@@1@QEAPEAVbus_device@@@Z DD imagerel $LN3
	DD	imagerel $LN3+69
	DD	imagerel $unwind$??$destroy@PEAVbus_device@@@?$_Default_allocator_traits@V?$allocator@PEAVbus_device@@@std@@@std@@SAXAEAV?$allocator@PEAVbus_device@@@1@QEAPEAVbus_device@@@Z
pdata	ENDS
;	COMDAT pdata
pdata	SEGMENT
$pdata$??$emplace_back@AEBQEAVbus_device@@@?$vector@PEAVbus_device@@V?$allocator@PEAVbus_device@@@std@@@std@@QEAA@AEBQEAVbus_device@@@Z DD imagerel $LN4
	DD	imagerel $LN4+177
	DD	imagerel $unwind$??$emplace_back@AEBQEAVbus_device@@@?$vector@PEAVbus_device@@V?$allocator@PEAVbus_device@@@std@@@std@@QEAA@AEBQEAVbus_device@@@Z
pdata	ENDS
;	COMDAT pdata
pdata	SEGMENT
$pdata$??$forward@AEBQEAVbus_device@@@std@@YAAEBQEAVbus_device@@AEBQEAV1@@Z DD imagerel $LN3
	DD	imagerel $LN3+83
	DD	imagerel $unwind$??$forward@AEBQEAVbus_device@@@std@@YAAEBQEAVbus_device@@AEBQEAV1@@Z
pdata	ENDS
;	COMDAT pdata
pdata	SEGMENT
$pdata$??$_Emplace_back_with_unused_capacity@AEBQEAVbus_device@@@?$vector@PEAVbus_device@@V?$allocator@PEAVbus_device@@@std@@@std@@AEAA@AEBQEAVbus_device@@@Z DD imagerel $LN3
	DD	imagerel $LN3+273
	DD	imagerel $unwind$??$_Emplace_back_with_unused_capacity@AEBQEAVbus_device@@@?$vector@PEAVbus_device@@V?$allocator@PEAVbus_device@@@std@@@std@@AEAA@AEBQEAVbus_device@@@Z
pdata	ENDS
;	COMDAT pdata
pdata	SEGMENT
$pdata$??$construct@PEAVbus_device@@AEBQEAV1@@?$_Default_allocator_traits@V?$allocator@PEAVbus_device@@@std@@@std@@SAXAEAV?$allocator@PEAVbus_device@@@1@QEAPEAVbus_device@@AEBQEAV3@@Z DD imagerel $LN3
	DD	imagerel $LN3+123
	DD	imagerel $unwind$??$construct@PEAVbus_device@@AEBQEAV1@@?$_Default_allocator_traits@V?$allocator@PEAVbus_device@@@std@@@std@@SAXAEAV?$allocator@PEAVbus_device@@@1@QEAPEAVbus_device@@AEBQEAV3@@Z
pdata	ENDS
;	COMDAT pdata
pdata	SEGMENT
$pdata$??$_Emplace_reallocate@AEBQEAVbus_device@@@?$vector@PEAVbus_device@@V?$allocator@PEAVbus_device@@@std@@@std@@QEAAPEAPEAVbus_device@@QEAPEAV2@AEBQEAV2@@Z DD imagerel $LN13
	DD	imagerel $LN13+620
	DD	imagerel $unwind$??$_Emplace_reallocate@AEBQEAVbus_device@@@?$vector@PEAVbus_device@@V?$allocator@PEAVbus_device@@@std@@@std@@QEAAPEAPEAVbus_device@@QEAPEAV2@AEBQEAV2@@Z
pdata	ENDS
;	COMDAT pdata
pdata	SEGMENT
$pdata$?catch$0@?0???$_Emplace_reallocate@AEBQEAVbus_device@@@?$vector@PEAVbus_device@@V?$allocator@PEAVbus_device@@@std@@@std@@QEAAPEAPEAVbus_device@@QEAPEAV2@AEBQEAV2@@Z@4HA DD imagerel ?catch$0@?0???$_Emplace_reallocate@AEBQEAVbus_device@@@?$vector@PEAVbus_device@@V?$allocator@PEAVbus_device@@@std@@@std@@QEAAPEAPEAVbus_device@@QEAPEAV2@AEBQEAV2@@Z@4HA
	DD	imagerel ?catch$0@?0???$_Emplace_reallocate@AEBQEAVbus_device@@@?$vector@PEAVbus_device@@V?$allocator@PEAVbus_device@@@std@@@std@@QEAAPEAPEAVbus_device@@QEAPEAV2@AEBQEAV2@@Z@4HA+94
	DD	imagerel $unwind$?catch$0@?0???$_Emplace_reallocate@AEBQEAVbus_device@@@?$vector@PEAVbus_device@@V?$allocator@PEAVbus_device@@@std@@@std@@QEAAPEAPEAVbus_device@@QEAPEAV2@AEBQEAV2@@Z@4HA
pdata	ENDS
;	COMDAT pdata
pdata	SEGMENT
$pdata$??0_Sentry_base@?$basic_ostream@DU?$char_traits@D@std@@@std@@QEAA@AEAV12@@Z DD imagerel $LN4
	DD	imagerel $LN4+231
	DD	imagerel $unwind$??0_Sentry_base@?$basic_ostream@DU?$char_traits@D@std@@@std@@QEAA@AEAV12@@Z
pdata	ENDS
;	COMDAT pdata
pdata	SEGMENT
$pdata$??1_Sentry_base@?$basic_ostream@DU?$char_traits@D@std@@@std@@QEAA@XZ DD imagerel $LN4
	DD	imagerel $LN4+217
	DD	imagerel $unwind$??1_Sentry_base@?$basic_ostream@DU?$char_traits@D@std@@@std@@QEAA@XZ
pdata	ENDS
;	COMDAT pdata
pdata	SEGMENT
$pdata$??0sentry@?$basic_ostream@DU?$char_traits@D@std@@@std@@QEAA@AEAV12@@Z DD imagerel $LN5
	DD	imagerel $LN5+331
	DD	imagerel $unwind$??0sentry@?$basic_ostream@DU?$char_traits@D@std@@@std@@QEAA@AEAV12@@Z
pdata	ENDS
;	COMDAT pdata
pdata	SEGMENT
$pdata$?dtor$0@?0???0sentry@?$basic_ostream@DU?$char_traits@D@std@@@std@@QEAA@AEAV12@@Z@4HA DD imagerel ?dtor$0@?0???0sentry@?$basic_ostream@DU?$char_traits@D@std@@@std@@QEAA@AEAV12@@Z@4HA
	DD	imagerel ?dtor$0@?0???0sentry@?$basic_ostream@DU?$char_traits@D@std@@@std@@QEAA@AEAV12@@Z@4HA+39
	DD	imagerel $unwind$?dtor$0@?0???0sentry@?$basic_ostream@DU?$char_traits@D@std@@@std@@QEAA@AEAV12@@Z@4HA
pdata	ENDS
;	COMDAT pdata
pdata	SEGMENT
$pdata$??1sentry@?$basic_ostream@DU?$char_traits@D@std@@@std@@QEAA@XZ DD imagerel $LN4
	DD	imagerel $LN4+119
	DD	imagerel $unwind$??1sentry@?$basic_ostream@DU?$char_traits@D@std@@@std@@QEAA@XZ
pdata	ENDS
;	COMDAT pdata
pdata	SEGMENT
$pdata$??Bsentry@?$basic_ostream@DU?$char_traits@D@std@@@std@@QEBA_NXZ DD imagerel $LN3
	DD	imagerel $LN3+75
	DD	imagerel $unwind$??Bsentry@?$basic_ostream@DU?$char_traits@D@std@@@std@@QEBA_NXZ
pdata	ENDS
;	COMDAT pdata
pdata	SEGMENT
$pdata$??$?0$$V@?$_Compressed_pair@V?$allocator@PEAVbus_device@@@std@@V?$_Vector_val@U?$_Simple_types@PEAVbus_device@@@std@@@2@$00@std@@QEAA@U_Zero_then_variadic_args_t@1@@Z DD imagerel $LN3
	DD	imagerel $LN3+102
	DD	imagerel $unwind$??$?0$$V@?$_Compressed_pair@V?$allocator@PEAVbus_device@@@std@@V?$_Vector_val@U?$_Simple_types@PEAVbus_device@@@std@@@2@$00@std@@QEAA@U_Zero_then_variadic_args_t@1@@Z
pdata	ENDS
;	COMDAT pdata
pdata	SEGMENT
$pdata$??$_Allocate@$0BA@U_Default_allocate_traits@std@@$0A@@std@@YAPEAX_K@Z DD imagerel $LN5
	DD	imagerel $LN5+117
	DD	imagerel $unwind$??$_Allocate@$0BA@U_Default_allocate_traits@std@@$0A@@std@@YAPEAX_K@Z
pdata	ENDS
;	COMDAT pdata
pdata	SEGMENT
$pdata$??$_Deallocate@$0BA@$0A@@std@@YAXPEAX_K@Z DD imagerel $LN4
	DD	imagerel $LN4+120
	DD	imagerel $unwind$??$_Deallocate@$0BA@$0A@@std@@YAXPEAX_K@Z
pdata	ENDS
;	COMDAT pdata
pdata	SEGMENT
$pdata$?allocate@?$allocator@U_Container_proxy@std@@@std@@QEAAPEAU_Container_proxy@2@_K@Z DD imagerel $LN3
	DD	imagerel $LN3+89
	DD	imagerel $unwind$?allocate@?$allocator@U_Container_proxy@std@@@std@@QEAAPEAU_Container_proxy@2@_K@Z
pdata	ENDS
;	COMDAT pdata
pdata	SEGMENT
$pdata$??$?0PEAVbus_device@@@?$allocator@U_Container_proxy@std@@@std@@QEAA@AEBV?$allocator@PEAVbus_device@@@1@@Z DD imagerel $LN3
	DD	imagerel $LN3+88
	DD	imagerel $unwind$??$?0PEAVbus_device@@@?$allocator@U_Container_proxy@std@@@std@@QEAA@AEBV?$allocator@PEAVbus_device@@@1@@Z
pdata	ENDS
;	COMDAT pdata
pdata	SEGMENT
$pdata$?deallocate@?$_Default_allocator_traits@V?$allocator@U_Container_proxy@std@@@std@@@std@@SAXAEAV?$allocator@U_Container_proxy@std@@@2@QEAU_Container_proxy@2@_K@Z DD imagerel $LN3
	DD	imagerel $LN3+97
	DD	imagerel $unwind$?deallocate@?$_Default_allocator_traits@V?$allocator@U_Container_proxy@std@@@std@@@std@@SAXAEAV?$allocator@U_Container_proxy@std@@@2@QEAU_Container_proxy@2@_K@Z
pdata	ENDS
;	COMDAT pdata
pdata	SEGMENT
$pdata$??$destroy@U_Container_proxy@std@@@?$_Default_allocator_traits@V?$allocator@U_Container_proxy@std@@@std@@@std@@SAXAEAV?$allocator@U_Container_proxy@std@@@1@QEAU_Container_proxy@1@@Z DD imagerel $LN3
	DD	imagerel $LN3+69
	DD	imagerel $unwind$??$destroy@U_Container_proxy@std@@@?$_Default_allocator_traits@V?$allocator@U_Container_proxy@std@@@std@@@std@@SAXAEAV?$allocator@U_Container_proxy@std@@@1@QEAU_Container_proxy@1@@Z
pdata	ENDS
;	COMDAT pdata
pdata	SEGMENT
$pdata$??$_Deallocate_plain@V?$allocator@U_Container_proxy@std@@@std@@$0A@@std@@YAXAEAV?$allocator@U_Container_proxy@std@@@0@QEAU_Container_proxy@0@@Z DD imagerel $LN3
	DD	imagerel $LN3+94
	DD	imagerel $unwind$??$_Deallocate_plain@V?$allocator@U_Container_proxy@std@@@std@@$0A@@std@@YAXAEAV?$allocator@U_Container_proxy@std@@@0@QEAU_Container_proxy@0@@Z
pdata	ENDS
;	COMDAT pdata
pdata	SEGMENT
$pdata$??$_Unfancy@U_Container_proxy@std@@@std@@YAPEAU_Container_proxy@0@PEAU10@@Z DD imagerel $LN3
	DD	imagerel $LN3+71
	DD	imagerel $unwind$??$_Unfancy@U_Container_proxy@std@@@std@@YAPEAU_Container_proxy@0@PEAU10@@Z
pdata	ENDS
;	COMDAT pdata
pdata	SEGMENT
$pdata$??$construct@U_Container_proxy@std@@U12@@?$_Default_allocator_traits@V?$allocator@U_Container_proxy@std@@@std@@@std@@SAXAEAV?$allocator@U_Container_proxy@std@@@1@QEAU_Container_proxy@1@$$QEAU31@@Z DD imagerel $LN3
	DD	imagerel $LN3+129
	DD	imagerel $unwind$??$construct@U_Container_proxy@std@@U12@@?$_Default_allocator_traits@V?$allocator@U_Container_proxy@std@@@std@@@std@@SAXAEAV?$allocator@U_Container_proxy@std@@@1@QEAU_Container_proxy@1@$$QEAU31@@Z
pdata	ENDS
;	COMDAT pdata
pdata	SEGMENT
$pdata$??$_Destroy_range@V?$allocator@PEAVbus_device@@@std@@@std@@YAXPEAPEAVbus_device@@0AEAV?$allocator@PEAVbus_device@@@0@@Z DD imagerel $LN3
	DD	imagerel $LN3+127
	DD	imagerel $unwind$??$_Destroy_range@V?$allocator@PEAVbus_device@@@std@@@std@@YAXPEAPEAVbus_device@@0AEAV?$allocator@PEAVbus_device@@@0@@Z
pdata	ENDS
;	COMDAT pdata
pdata	SEGMENT
$pdata$??$_Get_size_of_n@$0BA@@std@@YA_K_K@Z DD imagerel $LN4
	DD	imagerel $LN4+121
	DD	imagerel $unwind$??$_Get_size_of_n@$0BA@@std@@YA_K_K@Z
pdata	ENDS
;	COMDAT pdata
pdata	SEGMENT
$pdata$??$_Ptr_move_cat@PEAVbus_device@@PEAV1@@std@@YA?AU_Really_trivial_ptr_iterator_tag@0@AEBQEAPEAVbus_device@@0@Z DD imagerel $LN3
	DD	imagerel $LN3+81
	DD	imagerel $unwind$??$_Ptr_move_cat@PEAVbus_device@@PEAV1@@std@@YA?AU_Really_trivial_ptr_iterator_tag@0@AEBQEAPEAVbus_device@@0@Z
pdata	ENDS
;	COMDAT pdata
pdata	SEGMENT
$pdata$??$_Move_unchecked1@PEAPEAVbus_device@@PEAPEAV1@@std@@YAPEAPEAVbus_device@@PEAPEAV1@00U_Trivially_copyable_ptr_iterator_tag@0@@Z DD imagerel $LN3
	DD	imagerel $LN3+105
	DD	imagerel $unwind$??$_Move_unchecked1@PEAPEAVbus_device@@PEAPEAV1@@std@@YAPEAPEAVbus_device@@PEAPEAV1@00U_Trivially_copyable_ptr_iterator_tag@0@@Z
pdata	ENDS
;	COMDAT pdata
pdata	SEGMENT
$pdata$??$_Allocate_manually_vector_aligned@U_Default_allocate_traits@std@@@std@@YAPEAX_K@Z DD imagerel $LN13
	DD	imagerel $LN13+303
	DD	imagerel $unwind$??$_Allocate_manually_vector_aligned@U_Default_allocate_traits@std@@@std@@YAPEAX_K@Z
pdata	ENDS
;	COMDAT pdata
pdata	SEGMENT
$pdata$??$forward@U_Container_proxy@std@@@std@@YA$$QEAU_Container_proxy@0@AEAU10@@Z DD imagerel $LN3
	DD	imagerel $LN3+83
	DD	imagerel $unwind$??$forward@U_Container_proxy@std@@@std@@YA$$QEAU_Container_proxy@0@AEAU10@@Z
pdata	ENDS
;	COMDAT pdata
pdata	SEGMENT
$pdata$??$_Destroy_range1@V?$allocator@PEAVbus_device@@@std@@@std@@YAXPEAPEAVbus_device@@0AEAV?$allocator@PEAVbus_device@@@0@U?$integral_constant@_N$00@0@@Z DD imagerel $LN3
	DD	imagerel $LN3+79
	DD	imagerel $unwind$??$_Destroy_range1@V?$allocator@PEAVbus_device@@@std@@@std@@YAXPEAPEAVbus_device@@0AEAV?$allocator@PEAVbus_device@@@0@U?$integral_constant@_N$00@0@@Z
pdata	ENDS
;	COMDAT pdata
pdata	SEGMENT
$pdata$??$_Uninitialized_move@PEAPEAVbus_device@@PEAPEAV1@V?$allocator@PEAVbus_device@@@std@@@std@@YAPEAPEAVbus_device@@QEAPEAV1@0PEAPEAV1@AEAV?$allocator@PEAVbus_device@@@0@@Z DD imagerel $LN3
	DD	imagerel $LN3+281
	DD	imagerel $unwind$??$_Uninitialized_move@PEAPEAVbus_device@@PEAPEAV1@V?$allocator@PEAVbus_device@@@std@@@std@@YAPEAPEAVbus_device@@QEAPEAV1@0PEAPEAV1@AEAV?$allocator@PEAVbus_device@@@0@@Z
pdata	ENDS
;	COMDAT pdata
pdata	SEGMENT
$pdata$??$_Get_size_of_n@$07@std@@YA_K_K@Z DD imagerel $LN4
	DD	imagerel $LN4+124
	DD	imagerel $unwind$??$_Get_size_of_n@$07@std@@YA_K_K@Z
pdata	ENDS
;	COMDAT pdata
pdata	SEGMENT
$pdata$??$_Copy_memmove@PEAPEAVbus_device@@PEAPEAV1@@std@@YAPEAPEAVbus_device@@PEAPEAV1@00@Z DD imagerel $LN3
	DD	imagerel $LN3+156
	DD	imagerel $unwind$??$_Copy_memmove@PEAPEAVbus_device@@PEAPEAV1@@std@@YAPEAPEAVbus_device@@PEAPEAV1@00@Z
pdata	ENDS
;	COMDAT pdata
pdata	SEGMENT
$pdata$??$_Get_unwrapped@PEAVbus_device@@@std@@YAPEAPEAVbus_device@@QEAPEAV1@@Z DD imagerel $LN3
	DD	imagerel $LN3+71
	DD	imagerel $unwind$??$_Get_unwrapped@PEAVbus_device@@@std@@YAPEAPEAVbus_device@@QEAPEAV1@@Z
pdata	ENDS
;	COMDAT pdata
pdata	SEGMENT
$pdata$??$_Idl_distance@PEAPEAVbus_device@@PEAPEAV1@@std@@YA@AEBQEAPEAVbus_device@@0@Z DD imagerel $LN3
	DD	imagerel $LN3+96
	DD	imagerel $unwind$??$_Idl_distance@PEAPEAVbus_device@@PEAPEAV1@@std@@YA@AEBQEAPEAVbus_device@@0@Z
pdata	ENDS
;	COMDAT pdata
pdata	SEGMENT
$pdata$??$_Idl_distance1@PEAPEAVbus_device@@PEAPEAV1@@std@@YA_JAEBQEAPEAVbus_device@@0Urandom_access_iterator_tag@0@@Z DD imagerel $LN3
	DD	imagerel $LN3+101
	DD	imagerel $unwind$??$_Idl_distance1@PEAPEAVbus_device@@PEAPEAV1@@std@@YA_JAEBQEAPEAVbus_device@@0Urandom_access_iterator_tag@0@@Z
pdata	ENDS
;	COMDAT pdata
pdata	SEGMENT
$pdata$??$_Get_unwrapped_n@PEAVbus_device@@_J$0A@@std@@YAPEAPEAVbus_device@@QEAPEAV1@_J@Z DD imagerel $LN3
	DD	imagerel $LN3+76
	DD	imagerel $unwind$??$_Get_unwrapped_n@PEAVbus_device@@_J$0A@@std@@YAPEAPEAVbus_device@@QEAPEAV1@_J@Z
pdata	ENDS
;	COMDAT pdata
pdata	SEGMENT
$pdata$??$_Uninitialized_move_al_unchecked@PEAVbus_device@@PEAV1@V?$allocator@PEAVbus_device@@@std@@@std@@YAPEAPEAVbus_device@@QEAPEAV1@00AEAV?$allocator@PEAVbus_device@@@0@U_Really_trivial_ptr_iterator_tag@0@U?$integral_constant@_N$00@0@@Z DD imagerel $LN3
	DD	imagerel $LN3+105
	DD	imagerel $unwind$??$_Uninitialized_move_al_unchecked@PEAVbus_device@@PEAV1@V?$allocator@PEAVbus_device@@@std@@@std@@YAPEAPEAVbus_device@@QEAPEAV1@00AEAV?$allocator@PEAVbus_device@@@0@U_Really_trivial_ptr_iterator_tag@0@U?$integral_constant@_N$00@0@@Z
pdata	ENDS
;	COMDAT pdata
pdata	SEGMENT
$pdata$??$_Seek_wrapped@PEAVbus_device@@@std@@YAXAEAPEAPEAVbus_device@@QEAPEAV1@@Z DD imagerel $LN3
	DD	imagerel $LN3+86
	DD	imagerel $unwind$??$_Seek_wrapped@PEAVbus_device@@@std@@YAXAEAPEAPEAVbus_device@@QEAPEAV1@@Z
pdata	ENDS
;	COMDAT rtc$TMZ
rtc$TMZ	SEGMENT
_RTC_Shutdown.rtc$TMZ DQ FLAT:_RTC_Shutdown
rtc$TMZ	ENDS
;	COMDAT rtc$IMZ
rtc$IMZ	SEGMENT
_RTC_InitBase.rtc$IMZ DQ FLAT:_RTC_InitBase
rtc$IMZ	ENDS
;	COMDAT ??_R1A@?0A@EA@bus_device@@8
rdata$r	SEGMENT
??_R1A@?0A@EA@bus_device@@8 DD imagerel ??_R0?AVbus_device@@@8 ; bus_device::`RTTI Base Class Descriptor at (0,-1,0,64)'
	DD	01H
	DD	00H
	DD	0ffffffffH
	DD	00H
	DD	040H
	DD	imagerel ??_R3bus_device@@8
rdata$r	ENDS
;	COMDAT ??_R2bus_device@@8
rdata$r	SEGMENT
??_R2bus_device@@8 DD imagerel ??_R1A@?0A@EA@bus_device@@8 ; bus_device::`RTTI Base Class Array'
	DD	imagerel ??_R1A@?0A@EA@device@@8
	ORG $+3
rdata$r	ENDS
;	COMDAT ??_R3bus_device@@8
rdata$r	SEGMENT
??_R3bus_device@@8 DD 00H				; bus_device::`RTTI Class Hierarchy Descriptor'
	DD	00H
	DD	02H
	DD	imagerel ??_R2bus_device@@8
rdata$r	ENDS
;	COMDAT ??_R0?AVbus_device@@@8
data$r	SEGMENT
??_R0?AVbus_device@@@8 DQ FLAT:??_7type_info@@6B@	; bus_device `RTTI Type Descriptor'
	DQ	0000000000000000H
	DB	'.?AVbus_device@@', 00H
data$r	ENDS
;	COMDAT ??_R4bus_device@@6B@
rdata$r	SEGMENT
??_R4bus_device@@6B@ DD 01H				; bus_device::`RTTI Complete Object Locator'
	DD	00H
	DD	00H
	DD	imagerel ??_R0?AVbus_device@@@8
	DD	imagerel ??_R3bus_device@@8
	DD	imagerel ??_R4bus_device@@6B@
rdata$r	ENDS
;	COMDAT ??_R1A@?0A@EA@device@@8
rdata$r	SEGMENT
??_R1A@?0A@EA@device@@8 DD imagerel ??_R0?AVdevice@@@8	; device::`RTTI Base Class Descriptor at (0,-1,0,64)'
	DD	00H
	DD	00H
	DD	0ffffffffH
	DD	00H
	DD	040H
	DD	imagerel ??_R3device@@8
rdata$r	ENDS
;	COMDAT ??_R2device@@8
rdata$r	SEGMENT
??_R2device@@8 DD imagerel ??_R1A@?0A@EA@device@@8	; device::`RTTI Base Class Array'
	ORG $+3
rdata$r	ENDS
;	COMDAT ??_R3device@@8
rdata$r	SEGMENT
??_R3device@@8 DD 00H					; device::`RTTI Class Hierarchy Descriptor'
	DD	00H
	DD	01H
	DD	imagerel ??_R2device@@8
rdata$r	ENDS
;	COMDAT ??_R0?AVdevice@@@8
data$r	SEGMENT
??_R0?AVdevice@@@8 DQ FLAT:??_7type_info@@6B@		; device `RTTI Type Descriptor'
	DQ	0000000000000000H
	DB	'.?AVdevice@@', 00H
data$r	ENDS
;	COMDAT ??_R4device@@6B@
rdata$r	SEGMENT
??_R4device@@6B@ DD 01H					; device::`RTTI Complete Object Locator'
	DD	00H
	DD	00H
	DD	imagerel ??_R0?AVdevice@@@8
	DD	imagerel ??_R3device@@8
	DD	imagerel ??_R4device@@6B@
rdata$r	ENDS
;	COMDAT ??_C@_1EO@GFNCMDLA@?$AAs?$AAt?$AAd?$AA?3?$AA?3?$AA_?$AAA?$AAl?$AAl?$AAo?$AAc?$AAa?$AAt?$AAe?$AA_@
CONST	SEGMENT
??_C@_1EO@GFNCMDLA@?$AAs?$AAt?$AAd?$AA?3?$AA?3?$AA_?$AAA?$AAl?$AAl?$AAo?$AAc?$AAa?$AAt?$AAe?$AA_@ DB 's'
	DB	00H, 't', 00H, 'd', 00H, ':', 00H, ':', 00H, '_', 00H, 'A', 00H
	DB	'l', 00H, 'l', 00H, 'o', 00H, 'c', 00H, 'a', 00H, 't', 00H, 'e'
	DB	00H, '_', 00H, 'm', 00H, 'a', 00H, 'n', 00H, 'u', 00H, 'a', 00H
	DB	'l', 00H, 'l', 00H, 'y', 00H, '_', 00H, 'v', 00H, 'e', 00H, 'c'
	DB	00H, 't', 00H, 'o', 00H, 'r', 00H, '_', 00H, 'a', 00H, 'l', 00H
	DB	'i', 00H, 'g', 00H, 'n', 00H, 'e', 00H, 'd', 00H, 00H, 00H ; `string'
CONST	ENDS
;	COMDAT ??_C@_0BD@OLBABOEK@vector?$DMT?$DO?5too?5long@
CONST	SEGMENT
??_C@_0BD@OLBABOEK@vector?$DMT?$DO?5too?5long@ DB 'vector<T> too long', 00H ; `string'
CONST	ENDS
;	COMDAT ??_C@_1FA@LCODAPOP@?$AA?$CC?$AAc?$AAa?$AAn?$AAn?$AAo?$AAt?$AA?5?$AAs?$AAe?$AAe?$AAk?$AA?5?$AAv?$AAe@
CONST	SEGMENT
??_C@_1FA@LCODAPOP@?$AA?$CC?$AAc?$AAa?$AAn?$AAn?$AAo?$AAt?$AA?5?$AAs?$AAe?$AAe?$AAk?$AA?5?$AAv?$AAe@ DB '"'
	DB	00H, 'c', 00H, 'a', 00H, 'n', 00H, 'n', 00H, 'o', 00H, 't', 00H
	DB	' ', 00H, 's', 00H, 'e', 00H, 'e', 00H, 'k', 00H, ' ', 00H, 'v'
	DB	00H, 'e', 00H, 'c', 00H, 't', 00H, 'o', 00H, 'r', 00H, ' ', 00H
	DB	'i', 00H, 't', 00H, 'e', 00H, 'r', 00H, 'a', 00H, 't', 00H, 'o'
	DB	00H, 'r', 00H, ' ', 00H, 'a', 00H, 'f', 00H, 't', 00H, 'e', 00H
	DB	'r', 00H, ' ', 00H, 'e', 00H, 'n', 00H, 'd', 00H, '"', 00H, 00H
	DB	00H						; `string'
CONST	ENDS
;	COMDAT ??_C@_0CG@JDIOCKHH@cannot?5seek?5vector?5iterator?5aft@
CONST	SEGMENT
??_C@_0CG@JDIOCKHH@cannot?5seek?5vector?5iterator?5aft@ DB 'cannot seek v'
	DB	'ector iterator after end', 00H		; `string'
CONST	ENDS
;	COMDAT ??_C@_1FG@JCGKNFIB@?$AA?$CC?$AAc?$AAa?$AAn?$AAn?$AAo?$AAt?$AA?5?$AAs?$AAe?$AAe?$AAk?$AA?5?$AAv?$AAe@
CONST	SEGMENT
??_C@_1FG@JCGKNFIB@?$AA?$CC?$AAc?$AAa?$AAn?$AAn?$AAo?$AAt?$AA?5?$AAs?$AAe?$AAe?$AAk?$AA?5?$AAv?$AAe@ DB '"'
	DB	00H, 'c', 00H, 'a', 00H, 'n', 00H, 'n', 00H, 'o', 00H, 't', 00H
	DB	' ', 00H, 's', 00H, 'e', 00H, 'e', 00H, 'k', 00H, ' ', 00H, 'v'
	DB	00H, 'e', 00H, 'c', 00H, 't', 00H, 'o', 00H, 'r', 00H, ' ', 00H
	DB	'i', 00H, 't', 00H, 'e', 00H, 'r', 00H, 'a', 00H, 't', 00H, 'o'
	DB	00H, 'r', 00H, ' ', 00H, 'b', 00H, 'e', 00H, 'f', 00H, 'o', 00H
	DB	'r', 00H, 'e', 00H, ' ', 00H, 'b', 00H, 'e', 00H, 'g', 00H, 'i'
	DB	00H, 'n', 00H, '"', 00H, 00H, 00H		; `string'
CONST	ENDS
;	COMDAT ??_C@_0CJ@DIFMEJBE@cannot?5seek?5vector?5iterator?5bef@
CONST	SEGMENT
??_C@_0CJ@DIFMEJBE@cannot?5seek?5vector?5iterator?5bef@ DB 'cannot seek v'
	DB	'ector iterator before begin', 00H		; `string'
CONST	ENDS
;	COMDAT ??_C@_1GA@EIHBFEJD@?$AA?$CC?$AAc?$AAa?$AAn?$AAn?$AAo?$AAt?$AA?5?$AAs?$AAe?$AAe?$AAk?$AA?5?$AAv?$AAa@
CONST	SEGMENT
??_C@_1GA@EIHBFEJD@?$AA?$CC?$AAc?$AAa?$AAn?$AAn?$AAo?$AAt?$AA?5?$AAs?$AAe?$AAe?$AAk?$AA?5?$AAv?$AAa@ DB '"'
	DB	00H, 'c', 00H, 'a', 00H, 'n', 00H, 'n', 00H, 'o', 00H, 't', 00H
	DB	' ', 00H, 's', 00H, 'e', 00H, 'e', 00H, 'k', 00H, ' ', 00H, 'v'
	DB	00H, 'a', 00H, 'l', 00H, 'u', 00H, 'e', 00H, '-', 00H, 'i', 00H
	DB	'n', 00H, 'i', 00H, 't', 00H, 'i', 00H, 'a', 00H, 'l', 00H, 'i'
	DB	00H, 'z', 00H, 'e', 00H, 'd', 00H, ' ', 00H, 'v', 00H, 'e', 00H
	DB	'c', 00H, 't', 00H, 'o', 00H, 'r', 00H, ' ', 00H, 'i', 00H, 't'
	DB	00H, 'e', 00H, 'r', 00H, 'a', 00H, 't', 00H, 'o', 00H, 'r', 00H
	DB	'"', 00H, 00H, 00H				; `string'
CONST	ENDS
;	COMDAT ??_C@_1OK@MPDCGGGF@?$AAs?$AAt?$AAd?$AA?3?$AA?3?$AA_?$AAV?$AAe?$AAc?$AAt?$AAo?$AAr?$AA_?$AAc?$AAo@
CONST	SEGMENT
??_C@_1OK@MPDCGGGF@?$AAs?$AAt?$AAd?$AA?3?$AA?3?$AA_?$AAV?$AAe?$AAc?$AAt?$AAo?$AAr?$AA_?$AAc?$AAo@ DB 's'
	DB	00H, 't', 00H, 'd', 00H, ':', 00H, ':', 00H, '_', 00H, 'V', 00H
	DB	'e', 00H, 'c', 00H, 't', 00H, 'o', 00H, 'r', 00H, '_', 00H, 'c'
	DB	00H, 'o', 00H, 'n', 00H, 's', 00H, 't', 00H, '_', 00H, 'i', 00H
	DB	't', 00H, 'e', 00H, 'r', 00H, 'a', 00H, 't', 00H, 'o', 00H, 'r'
	DB	00H, '<', 00H, 'c', 00H, 'l', 00H, 'a', 00H, 's', 00H, 's', 00H
	DB	' ', 00H, 's', 00H, 't', 00H, 'd', 00H, ':', 00H, ':', 00H, '_'
	DB	00H, 'V', 00H, 'e', 00H, 'c', 00H, 't', 00H, 'o', 00H, 'r', 00H
	DB	'_', 00H, 'v', 00H, 'a', 00H, 'l', 00H, '<', 00H, 's', 00H, 't'
	DB	00H, 'r', 00H, 'u', 00H, 'c', 00H, 't', 00H, ' ', 00H, 's', 00H
	DB	't', 00H, 'd', 00H, ':', 00H, ':', 00H, '_', 00H, 'S', 00H, 'i'
	DB	00H, 'm', 00H, 'p', 00H, 'l', 00H, 'e', 00H, '_', 00H, 't', 00H
	DB	'y', 00H, 'p', 00H, 'e', 00H, 's', 00H, '<', 00H, 'c', 00H, 'l'
	DB	00H, 'a', 00H, 's', 00H, 's', 00H, ' ', 00H, 'b', 00H, 'u', 00H
	DB	's', 00H, '_', 00H, 'd', 00H, 'e', 00H, 'v', 00H, 'i', 00H, 'c'
	DB	00H, 'e', 00H, ' ', 00H, '*', 00H, '>', 00H, ' ', 00H, '>', 00H
	DB	' ', 00H, '>', 00H, ':', 00H, ':', 00H, '_', 00H, 'V', 00H, 'e'
	DB	00H, 'r', 00H, 'i', 00H, 'f', 00H, 'y', 00H, '_', 00H, 'o', 00H
	DB	'f', 00H, 'f', 00H, 's', 00H, 'e', 00H, 't', 00H, 00H, 00H ; `string'
CONST	ENDS
;	COMDAT ??_C@_0CO@LHPFLLJB@cannot?5seek?5value?9initialized?5v@
CONST	SEGMENT
??_C@_0CO@LHPFLLJB@cannot?5seek?5value?9initialized?5v@ DB 'cannot seek v'
	DB	'alue-initialized vector iterator', 00H	; `string'
CONST	ENDS
;	COMDAT ??_C@_1EM@BEMPOGMM@?$AA?$CC?$AAv?$AAe?$AAc?$AAt?$AAo?$AAr?$AA?5?$AAe?$AAr?$AAa?$AAs?$AAe?$AA?5?$AAi@
CONST	SEGMENT
??_C@_1EM@BEMPOGMM@?$AA?$CC?$AAv?$AAe?$AAc?$AAt?$AAo?$AAr?$AA?5?$AAe?$AAr?$AAa?$AAs?$AAe?$AA?5?$AAi@ DB '"'
	DB	00H, 'v', 00H, 'e', 00H, 'c', 00H, 't', 00H, 'o', 00H, 'r', 00H
	DB	' ', 00H, 'e', 00H, 'r', 00H, 'a', 00H, 's', 00H, 'e', 00H, ' '
	DB	00H, 'i', 00H, 't', 00H, 'e', 00H, 'r', 00H, 'a', 00H, 't', 00H
	DB	'o', 00H, 'r', 00H, ' ', 00H, 'o', 00H, 'u', 00H, 't', 00H, 's'
	DB	00H, 'i', 00H, 'd', 00H, 'e', 00H, ' ', 00H, 'r', 00H, 'a', 00H
	DB	'n', 00H, 'g', 00H, 'e', 00H, '"', 00H, 00H, 00H ; `string'
CONST	ENDS
;	COMDAT ??_C@_1KC@BCHEBHHN@?$AAs?$AAt?$AAd?$AA?3?$AA?3?$AAv?$AAe?$AAc?$AAt?$AAo?$AAr?$AA?$DM?$AAc?$AAl?$AAa@
CONST	SEGMENT
??_C@_1KC@BCHEBHHN@?$AAs?$AAt?$AAd?$AA?3?$AA?3?$AAv?$AAe?$AAc?$AAt?$AAo?$AAr?$AA?$DM?$AAc?$AAl?$AAa@ DB 's'
	DB	00H, 't', 00H, 'd', 00H, ':', 00H, ':', 00H, 'v', 00H, 'e', 00H
	DB	'c', 00H, 't', 00H, 'o', 00H, 'r', 00H, '<', 00H, 'c', 00H, 'l'
	DB	00H, 'a', 00H, 's', 00H, 's', 00H, ' ', 00H, 'b', 00H, 'u', 00H
	DB	's', 00H, '_', 00H, 'd', 00H, 'e', 00H, 'v', 00H, 'i', 00H, 'c'
	DB	00H, 'e', 00H, ' ', 00H, '*', 00H, ',', 00H, 'c', 00H, 'l', 00H
	DB	'a', 00H, 's', 00H, 's', 00H, ' ', 00H, 's', 00H, 't', 00H, 'd'
	DB	00H, ':', 00H, ':', 00H, 'a', 00H, 'l', 00H, 'l', 00H, 'o', 00H
	DB	'c', 00H, 'a', 00H, 't', 00H, 'o', 00H, 'r', 00H, '<', 00H, 'c'
	DB	00H, 'l', 00H, 'a', 00H, 's', 00H, 's', 00H, ' ', 00H, 'b', 00H
	DB	'u', 00H, 's', 00H, '_', 00H, 'd', 00H, 'e', 00H, 'v', 00H, 'i'
	DB	00H, 'c', 00H, 'e', 00H, ' ', 00H, '*', 00H, '>', 00H, ' ', 00H
	DB	'>', 00H, ':', 00H, ':', 00H, 'e', 00H, 'r', 00H, 'a', 00H, 's'
	DB	00H, 'e', 00H, 00H, 00H			; `string'
CONST	ENDS
;	COMDAT ??_C@_0CE@EAMOGAIE@vector?5erase?5iterator?5outside?5r@
CONST	SEGMENT
??_C@_0CE@EAMOGAIE@vector?5erase?5iterator?5outside?5r@ DB 'vector erase '
	DB	'iterator outside range', 00H		; `string'
CONST	ENDS
;	COMDAT ??_C@_1EA@LEKOKFNB@?$AA?$CC?$AAv?$AAe?$AAc?$AAt?$AAo?$AAr?$AA?5?$AAs?$AAu?$AAb?$AAs?$AAc?$AAr?$AAi@
CONST	SEGMENT
??_C@_1EA@LEKOKFNB@?$AA?$CC?$AAv?$AAe?$AAc?$AAt?$AAo?$AAr?$AA?5?$AAs?$AAu?$AAb?$AAs?$AAc?$AAr?$AAi@ DB '"'
	DB	00H, 'v', 00H, 'e', 00H, 'c', 00H, 't', 00H, 'o', 00H, 'r', 00H
	DB	' ', 00H, 's', 00H, 'u', 00H, 'b', 00H, 's', 00H, 'c', 00H, 'r'
	DB	00H, 'i', 00H, 'p', 00H, 't', 00H, ' ', 00H, 'o', 00H, 'u', 00H
	DB	't', 00H, ' ', 00H, 'o', 00H, 'f', 00H, ' ', 00H, 'r', 00H, 'a'
	DB	00H, 'n', 00H, 'g', 00H, 'e', 00H, '"', 00H, 00H, 00H ; `string'
CONST	ENDS
;	COMDAT ??_C@_1KO@ONLFOBNG@?$AAs?$AAt?$AAd?$AA?3?$AA?3?$AAv?$AAe?$AAc?$AAt?$AAo?$AAr?$AA?$DM?$AAc?$AAl?$AAa@
CONST	SEGMENT
??_C@_1KO@ONLFOBNG@?$AAs?$AAt?$AAd?$AA?3?$AA?3?$AAv?$AAe?$AAc?$AAt?$AAo?$AAr?$AA?$DM?$AAc?$AAl?$AAa@ DB 's'
	DB	00H, 't', 00H, 'd', 00H, ':', 00H, ':', 00H, 'v', 00H, 'e', 00H
	DB	'c', 00H, 't', 00H, 'o', 00H, 'r', 00H, '<', 00H, 'c', 00H, 'l'
	DB	00H, 'a', 00H, 's', 00H, 's', 00H, ' ', 00H, 'b', 00H, 'u', 00H
	DB	's', 00H, '_', 00H, 'd', 00H, 'e', 00H, 'v', 00H, 'i', 00H, 'c'
	DB	00H, 'e', 00H, ' ', 00H, '*', 00H, ',', 00H, 'c', 00H, 'l', 00H
	DB	'a', 00H, 's', 00H, 's', 00H, ' ', 00H, 's', 00H, 't', 00H, 'd'
	DB	00H, ':', 00H, ':', 00H, 'a', 00H, 'l', 00H, 'l', 00H, 'o', 00H
	DB	'c', 00H, 'a', 00H, 't', 00H, 'o', 00H, 'r', 00H, '<', 00H, 'c'
	DB	00H, 'l', 00H, 'a', 00H, 's', 00H, 's', 00H, ' ', 00H, 'b', 00H
	DB	'u', 00H, 's', 00H, '_', 00H, 'd', 00H, 'e', 00H, 'v', 00H, 'i'
	DB	00H, 'c', 00H, 'e', 00H, ' ', 00H, '*', 00H, '>', 00H, ' ', 00H
	DB	'>', 00H, ':', 00H, ':', 00H, 'o', 00H, 'p', 00H, 'e', 00H, 'r'
	DB	00H, 'a', 00H, 't', 00H, 'o', 00H, 'r', 00H, ' ', 00H, '[', 00H
	DB	']', 00H, 00H, 00H				; `string'
CONST	ENDS
;	COMDAT ??_C@_1MO@OJBMIJHH@?$AAc?$AA?3?$AA?2?$AAp?$AAr?$AAo?$AAg?$AAr?$AAa?$AAm?$AA?5?$AAf?$AAi?$AAl?$AAe@
CONST	SEGMENT
??_C@_1MO@OJBMIJHH@?$AAc?$AA?3?$AA?2?$AAp?$AAr?$AAo?$AAg?$AAr?$AAa?$AAm?$AA?5?$AAf?$AAi?$AAl?$AAe@ DB 'c'
	DB	00H, ':', 00H, '\', 00H, 'p', 00H, 'r', 00H, 'o', 00H, 'g', 00H
	DB	'r', 00H, 'a', 00H, 'm', 00H, ' ', 00H, 'f', 00H, 'i', 00H, 'l'
	DB	00H, 'e', 00H, 's', 00H, ' ', 00H, '(', 00H, 'x', 00H, '8', 00H
	DB	'6', 00H, ')', 00H, '\', 00H, 'm', 00H, 'i', 00H, 'c', 00H, 'r'
	DB	00H, 'o', 00H, 's', 00H, 'o', 00H, 'f', 00H, 't', 00H, ' ', 00H
	DB	'v', 00H, 'i', 00H, 's', 00H, 'u', 00H, 'a', 00H, 'l', 00H, ' '
	DB	00H, 's', 00H, 't', 00H, 'u', 00H, 'd', 00H, 'i', 00H, 'o', 00H
	DB	'\', 00H, '2', 00H, '0', 00H, '1', 00H, '7', 00H, '\', 00H, 'c'
	DB	00H, 'o', 00H, 'm', 00H, 'm', 00H, 'u', 00H, 'n', 00H, 'i', 00H
	DB	't', 00H, 'y', 00H, '\', 00H, 'v', 00H, 'c', 00H, '\', 00H, 't'
	DB	00H, 'o', 00H, 'o', 00H, 'l', 00H, 's', 00H, '\', 00H, 'm', 00H
	DB	's', 00H, 'v', 00H, 'c', 00H, '\', 00H, '1', 00H, '4', 00H, '.'
	DB	00H, '1', 00H, '6', 00H, '.', 00H, '2', 00H, '7', 00H, '0', 00H
	DB	'2', 00H, '3', 00H, '\', 00H, 'i', 00H, 'n', 00H, 'c', 00H, 'l'
	DB	00H, 'u', 00H, 'd', 00H, 'e', 00H, '\', 00H, 'v', 00H, 'e', 00H
	DB	'c', 00H, 't', 00H, 'o', 00H, 'r', 00H, 00H, 00H ; `string'
CONST	ENDS
;	COMDAT ??_C@_0GH@FKAHJGEE@c?3?2program?5files?5?$CIx86?$CJ?2microsof@
CONST	SEGMENT
??_C@_0GH@FKAHJGEE@c?3?2program?5files?5?$CIx86?$CJ?2microsof@ DB 'c:\pro'
	DB	'gram files (x86)\microsoft visual studio\2017\community\vc\to'
	DB	'ols\msvc\14.16.27023\include\vector', 00H	; `string'
CONST	ENDS
;	COMDAT ??_C@_0BO@PFKOHNJC@vector?5subscript?5out?5of?5range@
CONST	SEGMENT
??_C@_0BO@PFKOHNJC@vector?5subscript?5out?5of?5range@ DB 'vector subscrip'
	DB	't out of range', 00H			; `string'
CONST	ENDS
;	COMDAT ??_C@_0BD@MAHCLMLC@Denver?5Base?5Device@
CONST	SEGMENT
??_C@_0BD@MAHCLMLC@Denver?5Base?5Device@ DB 'Denver Base Device', 00H ; `string'
CONST	ENDS
;	COMDAT ??_C@_0BH@GDKDGNOP@Denver?5Base?5I?1O?5Device@
CONST	SEGMENT
??_C@_0BH@GDKDGNOP@Denver?5Base?5I?1O?5Device@ DB 'Denver Base I/O Device'
	DB	00H						; `string'
CONST	ENDS
;	COMDAT ??_C@_0BO@HBKBAGAM@full?5bus?5emulation?5required?$DP?5@
CONST	SEGMENT
??_C@_0BO@HBKBAGAM@full?5bus?5emulation?5required?$DP?5@ DB 'full bus emu'
	DB	'lation required? ', 00H			; `string'
CONST	ENDS
;	COMDAT ??_C@_02KAJCLHKP@no@
CONST	SEGMENT
??_C@_02KAJCLHKP@no@ DB 'no', 00H			; `string'
CONST	ENDS
;	COMDAT ??_C@_03ICICOMAL@yes@
CONST	SEGMENT
??_C@_03ICICOMAL@yes@ DB 'yes', 00H			; `string'
CONST	ENDS
;	COMDAT ??_C@_0BK@HECGDHBI@device?5reports?5size?5is?50x@
CONST	SEGMENT
??_C@_0BK@HECGDHBI@device?5reports?5size?5is?50x@ DB 'device reports size'
	DB	' is 0x', 00H				; `string'
CONST	ENDS
;	COMDAT ??_C@_06LCIDCBMH@?5bytes@
CONST	SEGMENT
??_C@_06LCIDCBMH@?5bytes@ DB ' bytes', 00H		; `string'
CONST	ENDS
;	COMDAT ??_C@_0BM@GMLPKDLM@device?5adressing?5mask?5is?50x@
CONST	SEGMENT
??_C@_0BM@GMLPKDLM@device?5adressing?5mask?5is?50x@ DB 'device adressing '
	DB	'mask is 0x', 00H				; `string'
CONST	ENDS
;	COMDAT ??_C@_0BO@KMHDIEBP@device?5operating?5range?5is?5?$FL0x@
CONST	SEGMENT
??_C@_0BO@KMHDIEBP@device?5operating?5range?5is?5?$FL0x@ DB 'device opera'
	DB	'ting range is [0x', 00H			; `string'
CONST	ENDS
;	COMDAT ??_C@_05BDHPAJIP@?5?9?50x@
CONST	SEGMENT
??_C@_05BDHPAJIP@?5?9?50x@ DB ' - 0x', 00H		; `string'
CONST	ENDS
;	COMDAT ??_C@_0FA@CLHJNGFJ@?9?9?9?9?9?9?9?9?9?9?9?9?9?9?9?9?9?9?9?9?9?9?9?9?9?9?9?9?9?9?9@
CONST	SEGMENT
??_C@_0FA@CLHJNGFJ@?9?9?9?9?9?9?9?9?9?9?9?9?9?9?9?9?9?9?9?9?9?9?9?9?9?9?9?9?9?9?9@ DB '-'
	DB	'-------------------------------------------------------------'
	DB	'-----------------', 00H			; `string'
CONST	ENDS
;	COMDAT ??_C@_0BE@IJMACPFN@registered?5device?5?$FL@
CONST	SEGMENT
??_C@_0BE@IJMACPFN@registered?5device?5?$FL@ DB 'registered device [', 00H ; `string'
CONST	ENDS
;	COMDAT ??_C@_01LBDDMOBJ@?$FN@
CONST	SEGMENT
??_C@_01LBDDMOBJ@?$FN@ DB ']', 00H			; `string'
CONST	ENDS
;	COMDAT ??_7bus_device@@6B@
CONST	SEGMENT
??_7bus_device@@6B@ DQ FLAT:??_R4bus_device@@6B@	; bus_device::`vftable'
	DQ	FLAT:?rundevice@device@@UEAAHH@Z
	DQ	FLAT:?dma@device@@UEAAXPEAE_N1@Z
	DQ	FLAT:??_Ebus_device@@UEAAPEAXI@Z
	DQ	FLAT:?write@bus_device@@UEAAXHHE@Z
	DQ	FLAT:?read@bus_device@@UEAAEHH@Z
CONST	ENDS
;	COMDAT ??_7device@@6B@
CONST	SEGMENT
??_7device@@6B@ DQ FLAT:??_R4device@@6B@		; device::`vftable'
	DQ	FLAT:?rundevice@device@@UEAAHH@Z
	DQ	FLAT:?dma@device@@UEAAXPEAE_N1@Z
CONST	ENDS
;	COMDAT ??_C@_1EK@NIFDJFDG@?$AAs?$AAt?$AAd?$AA?3?$AA?3?$AA_?$AAA?$AAd?$AAj?$AAu?$AAs?$AAt?$AA_?$AAm?$AAa@
CONST	SEGMENT
??_C@_1EK@NIFDJFDG@?$AAs?$AAt?$AAd?$AA?3?$AA?3?$AA_?$AAA?$AAd?$AAj?$AAu?$AAs?$AAt?$AA_?$AAm?$AAa@ DB 's'
	DB	00H, 't', 00H, 'd', 00H, ':', 00H, ':', 00H, '_', 00H, 'A', 00H
	DB	'd', 00H, 'j', 00H, 'u', 00H, 's', 00H, 't', 00H, '_', 00H, 'm'
	DB	00H, 'a', 00H, 'n', 00H, 'u', 00H, 'a', 00H, 'l', 00H, 'l', 00H
	DB	'y', 00H, '_', 00H, 'v', 00H, 'e', 00H, 'c', 00H, 't', 00H, 'o'
	DB	00H, 'r', 00H, '_', 00H, 'a', 00H, 'l', 00H, 'i', 00H, 'g', 00H
	DB	'n', 00H, 'e', 00H, 'd', 00H, 00H, 00H	; `string'
CONST	ENDS
;	COMDAT ??_C@_1NC@PIOGAKBO@?$AAc?$AA?3?$AA?2?$AAp?$AAr?$AAo?$AAg?$AAr?$AAa?$AAm?$AA?5?$AAf?$AAi?$AAl?$AAe@
CONST	SEGMENT
??_C@_1NC@PIOGAKBO@?$AAc?$AA?3?$AA?2?$AAp?$AAr?$AAo?$AAg?$AAr?$AAa?$AAm?$AA?5?$AAf?$AAi?$AAl?$AAe@ DB 'c'
	DB	00H, ':', 00H, '\', 00H, 'p', 00H, 'r', 00H, 'o', 00H, 'g', 00H
	DB	'r', 00H, 'a', 00H, 'm', 00H, ' ', 00H, 'f', 00H, 'i', 00H, 'l'
	DB	00H, 'e', 00H, 's', 00H, ' ', 00H, '(', 00H, 'x', 00H, '8', 00H
	DB	'6', 00H, ')', 00H, '\', 00H, 'm', 00H, 'i', 00H, 'c', 00H, 'r'
	DB	00H, 'o', 00H, 's', 00H, 'o', 00H, 'f', 00H, 't', 00H, ' ', 00H
	DB	'v', 00H, 'i', 00H, 's', 00H, 'u', 00H, 'a', 00H, 'l', 00H, ' '
	DB	00H, 's', 00H, 't', 00H, 'u', 00H, 'd', 00H, 'i', 00H, 'o', 00H
	DB	'\', 00H, '2', 00H, '0', 00H, '1', 00H, '7', 00H, '\', 00H, 'c'
	DB	00H, 'o', 00H, 'm', 00H, 'm', 00H, 'u', 00H, 'n', 00H, 'i', 00H
	DB	't', 00H, 'y', 00H, '\', 00H, 'v', 00H, 'c', 00H, '\', 00H, 't'
	DB	00H, 'o', 00H, 'o', 00H, 'l', 00H, 's', 00H, '\', 00H, 'm', 00H
	DB	's', 00H, 'v', 00H, 'c', 00H, '\', 00H, '1', 00H, '4', 00H, '.'
	DB	00H, '1', 00H, '6', 00H, '.', 00H, '2', 00H, '7', 00H, '0', 00H
	DB	'2', 00H, '3', 00H, '\', 00H, 'i', 00H, 'n', 00H, 'c', 00H, 'l'
	DB	00H, 'u', 00H, 'd', 00H, 'e', 00H, '\', 00H, 'x', 00H, 'm', 00H
	DB	'e', 00H, 'm', 00H, 'o', 00H, 'r', 00H, 'y', 00H, '0', 00H, 00H
	DB	00H						; `string'
CONST	ENDS
;	COMDAT ??_C@_0GJ@FFDBCFBF@c?3?2program?5files?5?$CIx86?$CJ?2microsof@
CONST	SEGMENT
??_C@_0GJ@FFDBCFBF@c?3?2program?5files?5?$CIx86?$CJ?2microsof@ DB 'c:\pro'
	DB	'gram files (x86)\microsoft visual studio\2017\community\vc\to'
	DB	'ols\msvc\14.16.27023\include\xmemory0', 00H	; `string'
CONST	ENDS
;	COMDAT ?__LINE__Var@?0??_Adjust_manually_vector_aligned@std@@YAXAEAPEAXAEA_K@Z@4JA
_DATA	SEGMENT
?__LINE__Var@?0??_Adjust_manually_vector_aligned@std@@YAXAEAPEAXAEA_K@Z@4JA DD 072H ; `std::_Adjust_manually_vector_aligned'::`1'::__LINE__Var
_DATA	ENDS
;	COMDAT ??_C@_1DG@PLBPCAEM@?$AA?$CC?$AAI?$AAT?$AAE?$AAR?$AAA?$AAT?$AAO?$AAR?$AA?5?$AAL?$AAI?$AAS?$AAT?$AA?5@
CONST	SEGMENT
??_C@_1DG@PLBPCAEM@?$AA?$CC?$AAI?$AAT?$AAE?$AAR?$AAA?$AAT?$AAO?$AAR?$AA?5?$AAL?$AAI?$AAS?$AAT?$AA?5@ DB '"'
	DB	00H, 'I', 00H, 'T', 00H, 'E', 00H, 'R', 00H, 'A', 00H, 'T', 00H
	DB	'O', 00H, 'R', 00H, ' ', 00H, 'L', 00H, 'I', 00H, 'S', 00H, 'T'
	DB	00H, ' ', 00H, 'C', 00H, 'O', 00H, 'R', 00H, 'R', 00H, 'U', 00H
	DB	'P', 00H, 'T', 00H, 'E', 00H, 'D', 00H, '!', 00H, '"', 00H, 00H
	DB	00H						; `string'
CONST	ENDS
;	COMDAT ??_C@_1EE@KLDMFDFL@?$AAs?$AAt?$AAd?$AA?3?$AA?3?$AA_?$AAI?$AAt?$AAe?$AAr?$AAa?$AAt?$AAo?$AAr?$AA_@
CONST	SEGMENT
??_C@_1EE@KLDMFDFL@?$AAs?$AAt?$AAd?$AA?3?$AA?3?$AA_?$AAI?$AAt?$AAe?$AAr?$AAa?$AAt?$AAo?$AAr?$AA_@ DB 's'
	DB	00H, 't', 00H, 'd', 00H, ':', 00H, ':', 00H, '_', 00H, 'I', 00H
	DB	't', 00H, 'e', 00H, 'r', 00H, 'a', 00H, 't', 00H, 'o', 00H, 'r'
	DB	00H, '_', 00H, 'b', 00H, 'a', 00H, 's', 00H, 'e', 00H, '1', 00H
	DB	'2', 00H, ':', 00H, ':', 00H, '_', 00H, 'O', 00H, 'r', 00H, 'p'
	DB	00H, 'h', 00H, 'a', 00H, 'n', 00H, '_', 00H, 'm', 00H, 'e', 00H
	DB	00H, 00H					; `string'
CONST	ENDS
;	COMDAT ??_C@_1NC@FANNPLN@?$AAc?$AA?3?$AA?2?$AAp?$AAr?$AAo?$AAg?$AAr?$AAa?$AAm?$AA?5?$AAf?$AAi?$AAl?$AAe@
CONST	SEGMENT
??_C@_1NC@FANNPLN@?$AAc?$AA?3?$AA?2?$AAp?$AAr?$AAo?$AAg?$AAr?$AAa?$AAm?$AA?5?$AAf?$AAi?$AAl?$AAe@ DB 'c'
	DB	00H, ':', 00H, '\', 00H, 'p', 00H, 'r', 00H, 'o', 00H, 'g', 00H
	DB	'r', 00H, 'a', 00H, 'm', 00H, ' ', 00H, 'f', 00H, 'i', 00H, 'l'
	DB	00H, 'e', 00H, 's', 00H, ' ', 00H, '(', 00H, 'x', 00H, '8', 00H
	DB	'6', 00H, ')', 00H, '\', 00H, 'm', 00H, 'i', 00H, 'c', 00H, 'r'
	DB	00H, 'o', 00H, 's', 00H, 'o', 00H, 'f', 00H, 't', 00H, ' ', 00H
	DB	'v', 00H, 'i', 00H, 's', 00H, 'u', 00H, 'a', 00H, 'l', 00H, ' '
	DB	00H, 's', 00H, 't', 00H, 'u', 00H, 'd', 00H, 'i', 00H, 'o', 00H
	DB	'\', 00H, '2', 00H, '0', 00H, '1', 00H, '7', 00H, '\', 00H, 'c'
	DB	00H, 'o', 00H, 'm', 00H, 'm', 00H, 'u', 00H, 'n', 00H, 'i', 00H
	DB	't', 00H, 'y', 00H, '\', 00H, 'v', 00H, 'c', 00H, '\', 00H, 't'
	DB	00H, 'o', 00H, 'o', 00H, 'l', 00H, 's', 00H, '\', 00H, 'm', 00H
	DB	's', 00H, 'v', 00H, 'c', 00H, '\', 00H, '1', 00H, '4', 00H, '.'
	DB	00H, '1', 00H, '6', 00H, '.', 00H, '2', 00H, '7', 00H, '0', 00H
	DB	'2', 00H, '3', 00H, '\', 00H, 'i', 00H, 'n', 00H, 'c', 00H, 'l'
	DB	00H, 'u', 00H, 'd', 00H, 'e', 00H, '\', 00H, 'x', 00H, 'u', 00H
	DB	't', 00H, 'i', 00H, 'l', 00H, 'i', 00H, 't', 00H, 'y', 00H, 00H
	DB	00H						; `string'
CONST	ENDS
;	COMDAT ??_C@_0GJ@EJIMBHLG@c?3?2program?5files?5?$CIx86?$CJ?2microsof@
CONST	SEGMENT
??_C@_0GJ@EJIMBHLG@c?3?2program?5files?5?$CIx86?$CJ?2microsof@ DB 'c:\pro'
	DB	'gram files (x86)\microsoft visual studio\2017\community\vc\to'
	DB	'ols\msvc\14.16.27023\include\xutility', 00H	; `string'
CONST	ENDS
;	COMDAT ??_C@_0BJ@LFDBABJJ@ITERATOR?5LIST?5CORRUPTED?$CB@
CONST	SEGMENT
??_C@_0BJ@LFDBABJJ@ITERATOR?5LIST?5CORRUPTED?$CB@ DB 'ITERATOR LIST CORRU'
	DB	'PTED!', 00H					; `string'
CONST	ENDS
;	COMDAT ??_C@_1CG@JNLFBNGN@?$AA?$CC?$AAi?$AAn?$AAv?$AAa?$AAl?$AAi?$AAd?$AA?5?$AAa?$AAr?$AAg?$AAu?$AAm?$AAe@
CONST	SEGMENT
??_C@_1CG@JNLFBNGN@?$AA?$CC?$AAi?$AAn?$AAv?$AAa?$AAl?$AAi?$AAd?$AA?5?$AAa?$AAr?$AAg?$AAu?$AAm?$AAe@ DB '"'
	DB	00H, 'i', 00H, 'n', 00H, 'v', 00H, 'a', 00H, 'l', 00H, 'i', 00H
	DB	'd', 00H, ' ', 00H, 'a', 00H, 'r', 00H, 'g', 00H, 'u', 00H, 'm'
	DB	00H, 'e', 00H, 'n', 00H, 't', 00H, '"', 00H, 00H, 00H ; `string'
CONST	ENDS
;	COMDAT ??_C@_02DKCKIIND@?$CFs@
CONST	SEGMENT
??_C@_02DKCKIIND@?$CFs@ DB '%s', 00H			; `string'
CONST	ENDS
;	COMDAT ??_C@_0BB@FCMFBGOM@invalid?5argument@
CONST	SEGMENT
??_C@_0BB@FCMFBGOM@invalid?5argument@ DB 'invalid argument', 00H ; `string'
CONST	ENDS
;	COMDAT xdata
xdata	SEGMENT
$unwind$??$_Seek_wrapped@PEAVbus_device@@@std@@YAXAEAPEAPEAVbus_device@@QEAPEAV1@@Z DD 025052f01H
	DD	01132318H
	DD	0700c001dH
	DD	0500bH
xdata	ENDS
;	COMDAT xdata
xdata	SEGMENT
$unwind$??$_Uninitialized_move_al_unchecked@PEAVbus_device@@PEAV1@V?$allocator@PEAVbus_device@@@std@@@std@@YAPEAPEAVbus_device@@QEAPEAV1@00AEAV?$allocator@PEAVbus_device@@@0@U_Really_trivial_ptr_iterator_tag@0@U?$integral_constant@_N$00@0@@Z DD 025053901H
	DD	011d2322H
	DD	07016001dH
	DD	05015H
xdata	ENDS
;	COMDAT xdata
xdata	SEGMENT
$unwind$??$_Get_unwrapped_n@PEAVbus_device@@_J$0A@@std@@YAPEAPEAVbus_device@@QEAPEAV1@_J@Z DD 025052f01H
	DD	01132318H
	DD	0700c001dH
	DD	0500bH
xdata	ENDS
;	COMDAT xdata
xdata	SEGMENT
$unwind$??$_Idl_distance1@PEAPEAVbus_device@@PEAPEAV1@@std@@YA_JAEBQEAPEAVbus_device@@0Urandom_access_iterator_tag@0@@Z DD 025053401H
	DD	0118231dH
	DD	07011001dH
	DD	05010H
xdata	ENDS
;	COMDAT xdata
xdata	SEGMENT
$unwind$??$_Idl_distance@PEAPEAVbus_device@@PEAPEAV1@@std@@YA@AEBQEAPEAVbus_device@@0@Z DD 025052f01H
	DD	01132318H
	DD	0700c0021H
	DD	0500bH
xdata	ENDS
;	COMDAT xdata
xdata	SEGMENT
$unwind$??$_Get_unwrapped@PEAVbus_device@@@std@@YAPEAPEAVbus_device@@QEAPEAV1@@Z DD 025052a01H
	DD	010e2313H
	DD	07007001dH
	DD	05006H
xdata	ENDS
;	COMDAT xdata
xdata	SEGMENT
$unwind$??$_Copy_memmove@PEAPEAVbus_device@@PEAPEAV1@@std@@YAPEAPEAVbus_device@@PEAPEAV1@00@Z DD 025053401H
	DD	0118231dH
	DD	07011002dH
	DD	05010H
xdata	ENDS
;	COMDAT xdata
xdata	SEGMENT
$unwind$??$_Get_size_of_n@$07@std@@YA_K_K@Z DD 025052a01H
	DD	010e2313H
	DD	070070025H
	DD	05006H
xdata	ENDS
;	COMDAT xdata
xdata	SEGMENT
$unwind$??$_Uninitialized_move@PEAPEAVbus_device@@PEAPEAV1@V?$allocator@PEAVbus_device@@@std@@@std@@YAPEAPEAVbus_device@@QEAPEAV1@0PEAPEAV1@AEAV?$allocator@PEAVbus_device@@@0@@Z DD 035054a19H
	DD	011d3322H
	DD	070160033H
	DD	05015H
	DD	imagerel __GSHandlerCheck
	DD	0188H
xdata	ENDS
;	COMDAT CONST
CONST	SEGMENT
??$_Uninitialized_move@PEAPEAVbus_device@@PEAPEAV1@V?$allocator@PEAVbus_device@@@std@@@std@@YAPEAPEAVbus_device@@QEAPEAV1@0PEAPEAV1@AEAV?$allocator@PEAVbus_device@@@0@@Z$rtcName$0 DB 05fH ; std::_Uninitialized_move<bus_device * *,bus_device * *,std::allocator<bus_device *> >
	DB	055H
	DB	046H
	DB	069H
	DB	072H
	DB	073H
	DB	074H
	DB	00H
??$_Uninitialized_move@PEAPEAVbus_device@@PEAPEAV1@V?$allocator@PEAVbus_device@@@std@@@std@@YAPEAPEAVbus_device@@QEAPEAV1@0PEAPEAV1@AEAV?$allocator@PEAVbus_device@@@0@@Z$rtcName$1 DB 05fH ; std::_Uninitialized_move<bus_device * *,bus_device * *,std::allocator<bus_device *> >
	DB	055H
	DB	04cH
	DB	061H
	DB	073H
	DB	074H
	DB	00H
	ORG $+1
??$_Uninitialized_move@PEAPEAVbus_device@@PEAPEAV1@V?$allocator@PEAVbus_device@@@std@@@std@@YAPEAPEAVbus_device@@QEAPEAV1@0PEAPEAV1@AEAV?$allocator@PEAVbus_device@@@0@@Z$rtcName$2 DB 05fH ; std::_Uninitialized_move<bus_device * *,bus_device * *,std::allocator<bus_device *> >
	DB	055H
	DB	044H
	DB	065H
	DB	073H
	DB	074H
	DB	00H
	ORG $+9
??$_Uninitialized_move@PEAPEAVbus_device@@PEAPEAV1@V?$allocator@PEAVbus_device@@@std@@@std@@YAPEAPEAVbus_device@@QEAPEAV1@0PEAPEAV1@AEAV?$allocator@PEAVbus_device@@@0@@Z$rtcVarDesc DD 078H ; std::_Uninitialized_move<bus_device * *,bus_device * *,std::allocator<bus_device *> >
	DD	08H
	DQ	FLAT:??$_Uninitialized_move@PEAPEAVbus_device@@PEAPEAV1@V?$allocator@PEAVbus_device@@@std@@@std@@YAPEAPEAVbus_device@@QEAPEAV1@0PEAPEAV1@AEAV?$allocator@PEAVbus_device@@@0@@Z$rtcName$2
	DD	058H
	DD	08H
	DQ	FLAT:??$_Uninitialized_move@PEAPEAVbus_device@@PEAPEAV1@V?$allocator@PEAVbus_device@@@std@@@std@@YAPEAPEAVbus_device@@QEAPEAV1@0PEAPEAV1@AEAV?$allocator@PEAVbus_device@@@0@@Z$rtcName$1
	DD	038H
	DD	08H
	DQ	FLAT:??$_Uninitialized_move@PEAPEAVbus_device@@PEAPEAV1@V?$allocator@PEAVbus_device@@@std@@@std@@YAPEAPEAVbus_device@@QEAPEAV1@0PEAPEAV1@AEAV?$allocator@PEAVbus_device@@@0@@Z$rtcName$0
	ORG $+144
??$_Uninitialized_move@PEAPEAVbus_device@@PEAPEAV1@V?$allocator@PEAVbus_device@@@std@@@std@@YAPEAPEAVbus_device@@QEAPEAV1@0PEAPEAV1@AEAV?$allocator@PEAVbus_device@@@0@@Z$rtcFrameData DD 03H ; std::_Uninitialized_move<bus_device * *,bus_device * *,std::allocator<bus_device *> >
	DD	00H
	DQ	FLAT:??$_Uninitialized_move@PEAPEAVbus_device@@PEAPEAV1@V?$allocator@PEAVbus_device@@@std@@@std@@YAPEAPEAVbus_device@@QEAPEAV1@0PEAPEAV1@AEAV?$allocator@PEAVbus_device@@@0@@Z$rtcVarDesc
CONST	ENDS
;	COMDAT xdata
xdata	SEGMENT
$unwind$??$_Destroy_range1@V?$allocator@PEAVbus_device@@@std@@@std@@YAXPEAPEAVbus_device@@0AEAV?$allocator@PEAVbus_device@@@0@U?$integral_constant@_N$00@0@@Z DD 025053901H
	DD	011d2322H
	DD	07016001dH
	DD	05015H
xdata	ENDS
;	COMDAT xdata
xdata	SEGMENT
$ip2state$??$forward@U_Container_proxy@std@@@std@@YA$$QEAU_Container_proxy@0@AEAU10@@Z DD imagerel ??$forward@U_Container_proxy@std@@@std@@YA$$QEAU_Container_proxy@0@AEAU10@@Z
	DD	0ffffffffH
xdata	ENDS
;	COMDAT CONST
CONST	SEGMENT
$cppxdata$??$forward@U_Container_proxy@std@@@std@@YA$$QEAU_Container_proxy@0@AEAU10@@Z DD 019930522H
	DD	00H
	DD	00H
	DD	00H
	DD	00H
	DD	01H
	DD	imagerel $ip2state$??$forward@U_Container_proxy@std@@@std@@YA$$QEAU_Container_proxy@0@AEAU10@@Z
	DD	0e8H
	DD	00H
	DD	05H
CONST	ENDS
;	COMDAT xdata
xdata	SEGMENT
$unwind$??$forward@U_Container_proxy@std@@@std@@YA$$QEAU_Container_proxy@0@AEAU10@@Z DD 025053519H
	DD	010e2313H
	DD	070070021H
	DD	05006H
	DD	imagerel __CxxFrameHandler3
	DD	imagerel $cppxdata$??$forward@U_Container_proxy@std@@@std@@YA$$QEAU_Container_proxy@0@AEAU10@@Z
xdata	ENDS
;	COMDAT xdata
xdata	SEGMENT
$unwind$??$_Allocate_manually_vector_aligned@U_Default_allocate_traits@std@@@std@@YAPEAX_K@Z DD 035052a01H
	DD	010e3313H
	DD	07007002bH
	DD	05006H
xdata	ENDS
;	COMDAT xdata
xdata	SEGMENT
$unwind$??$_Move_unchecked1@PEAPEAVbus_device@@PEAPEAV1@@std@@YAPEAPEAVbus_device@@PEAPEAV1@00U_Trivially_copyable_ptr_iterator_tag@0@@Z DD 025053901H
	DD	011d2322H
	DD	07016001dH
	DD	05015H
xdata	ENDS
;	COMDAT xdata
xdata	SEGMENT
$unwind$??$_Ptr_move_cat@PEAVbus_device@@PEAV1@@std@@YA?AU_Really_trivial_ptr_iterator_tag@0@AEBQEAPEAVbus_device@@0@Z DD 025053401H
	DD	0118231dH
	DD	07011001dH
	DD	05010H
xdata	ENDS
;	COMDAT xdata
xdata	SEGMENT
$unwind$??$_Get_size_of_n@$0BA@@std@@YA_K_K@Z DD 025052a01H
	DD	010e2313H
	DD	070070025H
	DD	05006H
xdata	ENDS
;	COMDAT xdata
xdata	SEGMENT
$unwind$??$_Destroy_range@V?$allocator@PEAVbus_device@@@std@@@std@@YAXPEAPEAVbus_device@@0AEAV?$allocator@PEAVbus_device@@@0@@Z DD 025053401H
	DD	0118231dH
	DD	070110021H
	DD	05010H
xdata	ENDS
;	COMDAT xdata
xdata	SEGMENT
$unwind$??$construct@U_Container_proxy@std@@U12@@?$_Default_allocator_traits@V?$allocator@U_Container_proxy@std@@@std@@@std@@SAXAEAV?$allocator@U_Container_proxy@std@@@1@QEAU_Container_proxy@1@$$QEAU31@@Z DD 025063501H
	DD	0119231eH
	DD	070120020H
	DD	050106011H
xdata	ENDS
;	COMDAT xdata
xdata	SEGMENT
$unwind$??$_Unfancy@U_Container_proxy@std@@@std@@YAPEAU_Container_proxy@0@PEAU10@@Z DD 025052a01H
	DD	010e2313H
	DD	07007001dH
	DD	05006H
xdata	ENDS
;	COMDAT xdata
xdata	SEGMENT
$unwind$??$_Deallocate_plain@V?$allocator@U_Container_proxy@std@@@std@@$0A@@std@@YAXAEAV?$allocator@U_Container_proxy@std@@@0@QEAU_Container_proxy@0@@Z DD 025052f01H
	DD	01132318H
	DD	0700c001dH
	DD	0500bH
xdata	ENDS
;	COMDAT xdata
xdata	SEGMENT
$unwind$??$destroy@U_Container_proxy@std@@@?$_Default_allocator_traits@V?$allocator@U_Container_proxy@std@@@std@@@std@@SAXAEAV?$allocator@U_Container_proxy@std@@@1@QEAU_Container_proxy@1@@Z DD 025052f01H
	DD	01132318H
	DD	0700c001dH
	DD	0500bH
xdata	ENDS
;	COMDAT xdata
xdata	SEGMENT
$unwind$?deallocate@?$_Default_allocator_traits@V?$allocator@U_Container_proxy@std@@@std@@@std@@SAXAEAV?$allocator@U_Container_proxy@std@@@2@QEAU_Container_proxy@2@_K@Z DD 025053401H
	DD	0118231dH
	DD	07011001dH
	DD	05010H
xdata	ENDS
;	COMDAT xdata
xdata	SEGMENT
$ip2state$??$?0PEAVbus_device@@@?$allocator@U_Container_proxy@std@@@std@@QEAA@AEBV?$allocator@PEAVbus_device@@@1@@Z DD imagerel ??$?0PEAVbus_device@@@?$allocator@U_Container_proxy@std@@@std@@QEAA@AEBV?$allocator@PEAVbus_device@@@1@@Z
	DD	0ffffffffH
xdata	ENDS
;	COMDAT CONST
CONST	SEGMENT
$cppxdata$??$?0PEAVbus_device@@@?$allocator@U_Container_proxy@std@@@std@@QEAA@AEBV?$allocator@PEAVbus_device@@@1@@Z DD 019930522H
	DD	00H
	DD	00H
	DD	00H
	DD	00H
	DD	01H
	DD	imagerel $ip2state$??$?0PEAVbus_device@@@?$allocator@U_Container_proxy@std@@@std@@QEAA@AEBV?$allocator@PEAVbus_device@@@1@@Z
	DD	0e8H
	DD	00H
	DD	05H
CONST	ENDS
;	COMDAT xdata
xdata	SEGMENT
$unwind$??$?0PEAVbus_device@@@?$allocator@U_Container_proxy@std@@@std@@QEAA@AEBV?$allocator@PEAVbus_device@@@1@@Z DD 025053a19H
	DD	01132318H
	DD	0700c0021H
	DD	0500bH
	DD	imagerel __CxxFrameHandler3
	DD	imagerel $cppxdata$??$?0PEAVbus_device@@@?$allocator@U_Container_proxy@std@@@std@@QEAA@AEBV?$allocator@PEAVbus_device@@@1@@Z
xdata	ENDS
;	COMDAT xdata
xdata	SEGMENT
$unwind$?allocate@?$allocator@U_Container_proxy@std@@@std@@QEAAPEAU_Container_proxy@2@_K@Z DD 025052f01H
	DD	01132318H
	DD	0700c001dH
	DD	0500bH
xdata	ENDS
;	COMDAT xdata
xdata	SEGMENT
$unwind$??$_Deallocate@$0BA@$0A@@std@@YAXPEAX_K@Z DD 025052f01H
	DD	01132318H
	DD	0700c001dH
	DD	0500bH
xdata	ENDS
;	COMDAT xdata
xdata	SEGMENT
$unwind$??$_Allocate@$0BA@U_Default_allocate_traits@std@@$0A@@std@@YAPEAX_K@Z DD 025052a01H
	DD	010e2313H
	DD	07007001dH
	DD	05006H
xdata	ENDS
;	COMDAT xdata
xdata	SEGMENT
$unwind$??$?0$$V@?$_Compressed_pair@V?$allocator@PEAVbus_device@@@std@@V?$_Vector_val@U?$_Simple_types@PEAVbus_device@@@std@@@2@$00@std@@QEAA@U_Zero_then_variadic_args_t@1@@Z DD 025052e01H
	DD	01122317H
	DD	0700b001dH
	DD	0500aH
xdata	ENDS
;	COMDAT xdata
xdata	SEGMENT
$unwind$??Bsentry@?$basic_ostream@DU?$char_traits@D@std@@@std@@QEBA_NXZ DD 025052a01H
	DD	010e2313H
	DD	07007001dH
	DD	05006H
xdata	ENDS
;	COMDAT xdata
xdata	SEGMENT
$ip2state$??1sentry@?$basic_ostream@DU?$char_traits@D@std@@@std@@QEAA@XZ DD imagerel ??1sentry@?$basic_ostream@DU?$char_traits@D@std@@@std@@QEAA@XZ
	DD	0ffffffffH
xdata	ENDS
;	COMDAT CONST
CONST	SEGMENT
$cppxdata$??1sentry@?$basic_ostream@DU?$char_traits@D@std@@@std@@QEAA@XZ DD 019930522H
	DD	00H
	DD	00H
	DD	00H
	DD	00H
	DD	01H
	DD	imagerel $ip2state$??1sentry@?$basic_ostream@DU?$char_traits@D@std@@@std@@QEAA@XZ
	DD	0e8H
	DD	00H
	DD	05H
CONST	ENDS
;	COMDAT xdata
xdata	SEGMENT
$unwind$??1sentry@?$basic_ostream@DU?$char_traits@D@std@@@std@@QEAA@XZ DD 025053519H
	DD	010e2313H
	DD	070070021H
	DD	05006H
	DD	imagerel __CxxFrameHandler3
	DD	imagerel $cppxdata$??1sentry@?$basic_ostream@DU?$char_traits@D@std@@@std@@QEAA@XZ
xdata	ENDS
;	COMDAT xdata
xdata	SEGMENT
$unwind$?dtor$0@?0???0sentry@?$basic_ostream@DU?$char_traits@D@std@@@std@@QEAA@AEAV12@@Z@4HA DD 031001H
	DD	0700c4210H
	DD	0500bH
xdata	ENDS
;	COMDAT xdata
xdata	SEGMENT
$ip2state$??0sentry@?$basic_ostream@DU?$char_traits@D@std@@@std@@QEAA@AEAV12@@Z DD imagerel ??0sentry@?$basic_ostream@DU?$char_traits@D@std@@@std@@QEAA@AEAV12@@Z
	DD	0ffffffffH
	DD	imagerel ??0sentry@?$basic_ostream@DU?$char_traits@D@std@@@std@@QEAA@AEAV12@@Z+90
	DD	00H
	DD	imagerel ??0sentry@?$basic_ostream@DU?$char_traits@D@std@@@std@@QEAA@AEAV12@@Z+314
	DD	0ffffffffH
xdata	ENDS
;	COMDAT xdata
xdata	SEGMENT
$stateUnwindMap$??0sentry@?$basic_ostream@DU?$char_traits@D@std@@@std@@QEAA@AEAV12@@Z DD 0ffffffffH
	DD	imagerel ?dtor$0@?0???0sentry@?$basic_ostream@DU?$char_traits@D@std@@@std@@QEAA@AEAV12@@Z@4HA
xdata	ENDS
;	COMDAT CONST
CONST	SEGMENT
$cppxdata$??0sentry@?$basic_ostream@DU?$char_traits@D@std@@@std@@QEAA@AEAV12@@Z DD 019930522H
	DD	01H
	DD	imagerel $stateUnwindMap$??0sentry@?$basic_ostream@DU?$char_traits@D@std@@@std@@QEAA@AEAV12@@Z
	DD	00H
	DD	00H
	DD	03H
	DD	imagerel $ip2state$??0sentry@?$basic_ostream@DU?$char_traits@D@std@@@std@@QEAA@AEAV12@@Z
	DD	0e8H
	DD	00H
	DD	01H
CONST	ENDS
;	COMDAT xdata
xdata	SEGMENT
$unwind$??0sentry@?$basic_ostream@DU?$char_traits@D@std@@@std@@QEAA@AEAV12@@Z DD 025053a11H
	DD	01132318H
	DD	0700c0021H
	DD	0500bH
	DD	imagerel __CxxFrameHandler3
	DD	imagerel $cppxdata$??0sentry@?$basic_ostream@DU?$char_traits@D@std@@@std@@QEAA@AEAV12@@Z
xdata	ENDS
;	COMDAT xdata
xdata	SEGMENT
$ip2state$??1_Sentry_base@?$basic_ostream@DU?$char_traits@D@std@@@std@@QEAA@XZ DD imagerel ??1_Sentry_base@?$basic_ostream@DU?$char_traits@D@std@@@std@@QEAA@XZ
	DD	0ffffffffH
xdata	ENDS
;	COMDAT CONST
CONST	SEGMENT
$cppxdata$??1_Sentry_base@?$basic_ostream@DU?$char_traits@D@std@@@std@@QEAA@XZ DD 019930522H
	DD	00H
	DD	00H
	DD	00H
	DD	00H
	DD	01H
	DD	imagerel $ip2state$??1_Sentry_base@?$basic_ostream@DU?$char_traits@D@std@@@std@@QEAA@XZ
	DD	0e8H
	DD	00H
	DD	05H
CONST	ENDS
;	COMDAT xdata
xdata	SEGMENT
$unwind$??1_Sentry_base@?$basic_ostream@DU?$char_traits@D@std@@@std@@QEAA@XZ DD 025053519H
	DD	010e2313H
	DD	070070023H
	DD	05006H
	DD	imagerel __CxxFrameHandler3
	DD	imagerel $cppxdata$??1_Sentry_base@?$basic_ostream@DU?$char_traits@D@std@@@std@@QEAA@XZ
xdata	ENDS
;	COMDAT xdata
xdata	SEGMENT
$unwind$??0_Sentry_base@?$basic_ostream@DU?$char_traits@D@std@@@std@@QEAA@AEAV12@@Z DD 025052f01H
	DD	01132318H
	DD	0700c001fH
	DD	0500bH
xdata	ENDS
;	COMDAT xdata
xdata	SEGMENT
$unwind$?catch$0@?0???$_Emplace_reallocate@AEBQEAVbus_device@@@?$vector@PEAVbus_device@@V?$allocator@PEAVbus_device@@@std@@@std@@QEAAPEAPEAVbus_device@@QEAPEAV2@AEBQEAV2@@Z@4HA DD 031019H
	DD	0700c4210H
	DD	0500bH
	DD	imagerel __CxxFrameHandler3
	DD	imagerel $cppxdata$??$_Emplace_reallocate@AEBQEAVbus_device@@@?$vector@PEAVbus_device@@V?$allocator@PEAVbus_device@@@std@@@std@@QEAAPEAPEAVbus_device@@QEAPEAV2@AEBQEAV2@@Z
xdata	ENDS
;	COMDAT xdata
xdata	SEGMENT
$ip2state$??$_Emplace_reallocate@AEBQEAVbus_device@@@?$vector@PEAVbus_device@@V?$allocator@PEAVbus_device@@@std@@@std@@QEAAPEAPEAVbus_device@@QEAPEAV2@AEBQEAV2@@Z DD imagerel ??$_Emplace_reallocate@AEBQEAVbus_device@@@?$vector@PEAVbus_device@@V?$allocator@PEAVbus_device@@@std@@@std@@QEAAPEAPEAVbus_device@@QEAPEAV2@AEBQEAV2@@Z
	DD	0ffffffffH
	DD	imagerel ??$_Emplace_reallocate@AEBQEAVbus_device@@@?$vector@PEAVbus_device@@V?$allocator@PEAVbus_device@@@std@@@std@@QEAAPEAPEAVbus_device@@QEAPEAV2@AEBQEAV2@@Z+260
	DD	00H
	DD	imagerel ??$_Emplace_reallocate@AEBQEAVbus_device@@@?$vector@PEAVbus_device@@V?$allocator@PEAVbus_device@@@std@@@std@@QEAAPEAPEAVbus_device@@QEAPEAV2@AEBQEAV2@@Z+555
	DD	0ffffffffH
	DD	imagerel ?catch$0@?0???$_Emplace_reallocate@AEBQEAVbus_device@@@?$vector@PEAVbus_device@@V?$allocator@PEAVbus_device@@@std@@@std@@QEAAPEAPEAVbus_device@@QEAPEAV2@AEBQEAV2@@Z@4HA
	DD	00H
	DD	imagerel ?catch$0@?0???$_Emplace_reallocate@AEBQEAVbus_device@@@?$vector@PEAVbus_device@@V?$allocator@PEAVbus_device@@@std@@@std@@QEAAPEAPEAVbus_device@@QEAPEAV2@AEBQEAV2@@Z@4HA+20
	DD	01H
	DD	imagerel ?catch$0@?0???$_Emplace_reallocate@AEBQEAVbus_device@@@?$vector@PEAVbus_device@@V?$allocator@PEAVbus_device@@@std@@@std@@QEAAPEAPEAVbus_device@@QEAPEAV2@AEBQEAV2@@Z@4HA+79
	DD	00H
xdata	ENDS
;	COMDAT xdata
xdata	SEGMENT
$handlerMap$0$??$_Emplace_reallocate@AEBQEAVbus_device@@@?$vector@PEAVbus_device@@V?$allocator@PEAVbus_device@@@std@@@std@@QEAAPEAPEAVbus_device@@QEAPEAV2@AEBQEAV2@@Z DD 040H
	DD	00H
	DD	00H
	DD	imagerel ?catch$0@?0???$_Emplace_reallocate@AEBQEAVbus_device@@@?$vector@PEAVbus_device@@V?$allocator@PEAVbus_device@@@std@@@std@@QEAAPEAPEAVbus_device@@QEAPEAV2@AEBQEAV2@@Z@4HA
	DD	048H
xdata	ENDS
;	COMDAT xdata
xdata	SEGMENT
$tryMap$??$_Emplace_reallocate@AEBQEAVbus_device@@@?$vector@PEAVbus_device@@V?$allocator@PEAVbus_device@@@std@@@std@@QEAAPEAPEAVbus_device@@QEAPEAV2@AEBQEAV2@@Z DD 00H
	DD	00H
	DD	01H
	DD	01H
	DD	imagerel $handlerMap$0$??$_Emplace_reallocate@AEBQEAVbus_device@@@?$vector@PEAVbus_device@@V?$allocator@PEAVbus_device@@@std@@@std@@QEAAPEAPEAVbus_device@@QEAPEAV2@AEBQEAV2@@Z
xdata	ENDS
;	COMDAT xdata
xdata	SEGMENT
$stateUnwindMap$??$_Emplace_reallocate@AEBQEAVbus_device@@@?$vector@PEAVbus_device@@V?$allocator@PEAVbus_device@@@std@@@std@@QEAAPEAPEAVbus_device@@QEAPEAV2@AEBQEAV2@@Z DD 0ffffffffH
	DD	00H
	DD	0ffffffffH
	DD	00H
xdata	ENDS
;	COMDAT CONST
CONST	SEGMENT
$cppxdata$??$_Emplace_reallocate@AEBQEAVbus_device@@@?$vector@PEAVbus_device@@V?$allocator@PEAVbus_device@@@std@@@std@@QEAAPEAPEAVbus_device@@QEAPEAV2@AEBQEAV2@@Z DD 019930522H
	DD	02H
	DD	imagerel $stateUnwindMap$??$_Emplace_reallocate@AEBQEAVbus_device@@@?$vector@PEAVbus_device@@V?$allocator@PEAVbus_device@@@std@@@std@@QEAAPEAPEAVbus_device@@QEAPEAV2@AEBQEAV2@@Z
	DD	01H
	DD	imagerel $tryMap$??$_Emplace_reallocate@AEBQEAVbus_device@@@?$vector@PEAVbus_device@@V?$allocator@PEAVbus_device@@@std@@@std@@QEAAPEAPEAVbus_device@@QEAPEAV2@AEBQEAV2@@Z
	DD	06H
	DD	imagerel $ip2state$??$_Emplace_reallocate@AEBQEAVbus_device@@@?$vector@PEAVbus_device@@V?$allocator@PEAVbus_device@@@std@@@std@@QEAAPEAPEAVbus_device@@QEAPEAV2@AEBQEAV2@@Z
	DD	01e8H
	DD	00H
	DD	01H
CONST	ENDS
;	COMDAT xdata
xdata	SEGMENT
$unwind$??$_Emplace_reallocate@AEBQEAVbus_device@@@?$vector@PEAVbus_device@@V?$allocator@PEAVbus_device@@@std@@@std@@QEAAPEAPEAVbus_device@@QEAPEAV2@AEBQEAV2@@Z DD 025053f19H
	DD	0118231dH
	DD	070110041H
	DD	05010H
	DD	imagerel __CxxFrameHandler3
	DD	imagerel $cppxdata$??$_Emplace_reallocate@AEBQEAVbus_device@@@?$vector@PEAVbus_device@@V?$allocator@PEAVbus_device@@@std@@@std@@QEAAPEAPEAVbus_device@@QEAPEAV2@AEBQEAV2@@Z
xdata	ENDS
;	COMDAT xdata
xdata	SEGMENT
$unwind$??$construct@PEAVbus_device@@AEBQEAV1@@?$_Default_allocator_traits@V?$allocator@PEAVbus_device@@@std@@@std@@SAXAEAV?$allocator@PEAVbus_device@@@1@QEAPEAVbus_device@@AEBQEAV3@@Z DD 025053401H
	DD	0118231dH
	DD	070110021H
	DD	05010H
xdata	ENDS
;	COMDAT xdata
xdata	SEGMENT
$unwind$??$_Emplace_back_with_unused_capacity@AEBQEAVbus_device@@@?$vector@PEAVbus_device@@V?$allocator@PEAVbus_device@@@std@@@std@@AEAA@AEBQEAVbus_device@@@Z DD 025052f01H
	DD	01132318H
	DD	0700c0023H
	DD	0500bH
xdata	ENDS
;	COMDAT xdata
xdata	SEGMENT
$ip2state$??$forward@AEBQEAVbus_device@@@std@@YAAEBQEAVbus_device@@AEBQEAV1@@Z DD imagerel ??$forward@AEBQEAVbus_device@@@std@@YAAEBQEAVbus_device@@AEBQEAV1@@Z
	DD	0ffffffffH
xdata	ENDS
;	COMDAT CONST
CONST	SEGMENT
$cppxdata$??$forward@AEBQEAVbus_device@@@std@@YAAEBQEAVbus_device@@AEBQEAV1@@Z DD 019930522H
	DD	00H
	DD	00H
	DD	00H
	DD	00H
	DD	01H
	DD	imagerel $ip2state$??$forward@AEBQEAVbus_device@@@std@@YAAEBQEAVbus_device@@AEBQEAV1@@Z
	DD	0e8H
	DD	00H
	DD	05H
CONST	ENDS
;	COMDAT xdata
xdata	SEGMENT
$unwind$??$forward@AEBQEAVbus_device@@@std@@YAAEBQEAVbus_device@@AEBQEAV1@@Z DD 025053519H
	DD	010e2313H
	DD	070070021H
	DD	05006H
	DD	imagerel __CxxFrameHandler3
	DD	imagerel $cppxdata$??$forward@AEBQEAVbus_device@@@std@@YAAEBQEAVbus_device@@AEBQEAV1@@Z
xdata	ENDS
;	COMDAT xdata
xdata	SEGMENT
$unwind$??$emplace_back@AEBQEAVbus_device@@@?$vector@PEAVbus_device@@V?$allocator@PEAVbus_device@@@std@@@std@@QEAA@AEBQEAVbus_device@@@Z DD 025052f01H
	DD	01132318H
	DD	0700c0021H
	DD	0500bH
xdata	ENDS
;	COMDAT xdata
xdata	SEGMENT
$unwind$??$destroy@PEAVbus_device@@@?$_Default_allocator_traits@V?$allocator@PEAVbus_device@@@std@@@std@@SAXAEAV?$allocator@PEAVbus_device@@@1@QEAPEAVbus_device@@@Z DD 025052f01H
	DD	01132318H
	DD	0700c001dH
	DD	0500bH
xdata	ENDS
;	COMDAT xdata
xdata	SEGMENT
$unwind$??$_Unfancy@PEAVbus_device@@@std@@YAPEAPEAVbus_device@@PEAPEAV1@@Z DD 025052a01H
	DD	010e2313H
	DD	07007001dH
	DD	05006H
xdata	ENDS
;	COMDAT xdata
xdata	SEGMENT
$unwind$??$_Move_unchecked@PEAPEAVbus_device@@PEAPEAV1@@std@@YAPEAPEAVbus_device@@PEAPEAV1@00@Z DD 025053401H
	DD	0118231dH
	DD	070110025H
	DD	05010H
xdata	ENDS
;	COMDAT xdata
xdata	SEGMENT
$ip2state$??$addressof@V?$_Vector_val@U?$_Simple_types@PEAVbus_device@@@std@@@std@@@std@@YAPEAV?$_Vector_val@U?$_Simple_types@PEAVbus_device@@@std@@@0@AEAV10@@Z DD imagerel ??$addressof@V?$_Vector_val@U?$_Simple_types@PEAVbus_device@@@std@@@std@@@std@@YAPEAV?$_Vector_val@U?$_Simple_types@PEAVbus_device@@@std@@@0@AEAV10@@Z
	DD	0ffffffffH
xdata	ENDS
;	COMDAT CONST
CONST	SEGMENT
$cppxdata$??$addressof@V?$_Vector_val@U?$_Simple_types@PEAVbus_device@@@std@@@std@@@std@@YAPEAV?$_Vector_val@U?$_Simple_types@PEAVbus_device@@@std@@@0@AEAV10@@Z DD 019930522H
	DD	00H
	DD	00H
	DD	00H
	DD	00H
	DD	01H
	DD	imagerel $ip2state$??$addressof@V?$_Vector_val@U?$_Simple_types@PEAVbus_device@@@std@@@std@@@std@@YAPEAV?$_Vector_val@U?$_Simple_types@PEAVbus_device@@@std@@@0@AEAV10@@Z
	DD	0e8H
	DD	00H
	DD	05H
CONST	ENDS
;	COMDAT xdata
xdata	SEGMENT
$unwind$??$addressof@V?$_Vector_val@U?$_Simple_types@PEAVbus_device@@@std@@@std@@@std@@YAPEAV?$_Vector_val@U?$_Simple_types@PEAVbus_device@@@std@@@0@AEAV10@@Z DD 025053519H
	DD	010e2313H
	DD	070070021H
	DD	05006H
	DD	imagerel __CxxFrameHandler3
	DD	imagerel $cppxdata$??$addressof@V?$_Vector_val@U?$_Simple_types@PEAVbus_device@@@std@@@std@@@std@@YAPEAV?$_Vector_val@U?$_Simple_types@PEAVbus_device@@@std@@@0@AEAV10@@Z
xdata	ENDS
;	COMDAT xdata
xdata	SEGMENT
$unwind$??$endl@DU?$char_traits@D@std@@@std@@YAAEAV?$basic_ostream@DU?$char_traits@D@std@@@0@AEAV10@@Z DD 025052a01H
	DD	010e2313H
	DD	07007001dH
	DD	05006H
xdata	ENDS
;	COMDAT xdata
xdata	SEGMENT
$unwind$?catch$1@?0???$?6U?$char_traits@D@std@@@std@@YAAEAV?$basic_ostream@DU?$char_traits@D@std@@@0@AEAV10@PEBD@Z@4HA DD 031019H
	DD	0700c4210H
	DD	0500bH
	DD	imagerel __CxxFrameHandler3
	DD	imagerel $cppxdata$??$?6U?$char_traits@D@std@@@std@@YAAEAV?$basic_ostream@DU?$char_traits@D@std@@@0@AEAV10@PEBD@Z
xdata	ENDS
;	COMDAT xdata
xdata	SEGMENT
$unwind$?dtor$0@?0???$?6U?$char_traits@D@std@@@std@@YAAEAV?$basic_ostream@DU?$char_traits@D@std@@@0@AEAV10@PEBD@Z@4HA DD 031001H
	DD	0700c4210H
	DD	0500bH
xdata	ENDS
;	COMDAT xdata
xdata	SEGMENT
$ip2state$??$?6U?$char_traits@D@std@@@std@@YAAEAV?$basic_ostream@DU?$char_traits@D@std@@@0@AEAV10@PEBD@Z DD imagerel ??$?6U?$char_traits@D@std@@@std@@YAAEAV?$basic_ostream@DU?$char_traits@D@std@@@0@AEAV10@PEBD@Z
	DD	0ffffffffH
	DD	imagerel ??$?6U?$char_traits@D@std@@@std@@YAAEAV?$basic_ostream@DU?$char_traits@D@std@@@0@AEAV10@PEBD@Z+281
	DD	00H
	DD	imagerel ??$?6U?$char_traits@D@std@@@std@@YAAEAV?$basic_ostream@DU?$char_traits@D@std@@@0@AEAV10@PEBD@Z+311
	DD	01H
	DD	imagerel ??$?6U?$char_traits@D@std@@@std@@YAAEAV?$basic_ostream@DU?$char_traits@D@std@@@0@AEAV10@PEBD@Z+924
	DD	00H
	DD	imagerel ??$?6U?$char_traits@D@std@@@std@@YAAEAV?$basic_ostream@DU?$char_traits@D@std@@@0@AEAV10@PEBD@Z+982
	DD	0ffffffffH
	DD	imagerel ?catch$1@?0???$?6U?$char_traits@D@std@@@std@@YAAEAV?$basic_ostream@DU?$char_traits@D@std@@@0@AEAV10@PEBD@Z@4HA
	DD	00H
	DD	imagerel ?catch$1@?0???$?6U?$char_traits@D@std@@@std@@YAAEAV?$basic_ostream@DU?$char_traits@D@std@@@0@AEAV10@PEBD@Z@4HA+20
	DD	02H
	DD	imagerel ?catch$1@?0???$?6U?$char_traits@D@std@@@std@@YAAEAV?$basic_ostream@DU?$char_traits@D@std@@@0@AEAV10@PEBD@Z@4HA+65
	DD	00H
xdata	ENDS
;	COMDAT xdata
xdata	SEGMENT
$handlerMap$0$??$?6U?$char_traits@D@std@@@std@@YAAEAV?$basic_ostream@DU?$char_traits@D@std@@@0@AEAV10@PEBD@Z DD 040H
	DD	00H
	DD	00H
	DD	imagerel ?catch$1@?0???$?6U?$char_traits@D@std@@@std@@YAAEAV?$basic_ostream@DU?$char_traits@D@std@@@0@AEAV10@PEBD@Z@4HA
	DD	048H
xdata	ENDS
;	COMDAT xdata
xdata	SEGMENT
$tryMap$??$?6U?$char_traits@D@std@@@std@@YAAEAV?$basic_ostream@DU?$char_traits@D@std@@@0@AEAV10@PEBD@Z DD 01H
	DD	01H
	DD	02H
	DD	01H
	DD	imagerel $handlerMap$0$??$?6U?$char_traits@D@std@@@std@@YAAEAV?$basic_ostream@DU?$char_traits@D@std@@@0@AEAV10@PEBD@Z
xdata	ENDS
;	COMDAT xdata
xdata	SEGMENT
$stateUnwindMap$??$?6U?$char_traits@D@std@@@std@@YAAEAV?$basic_ostream@DU?$char_traits@D@std@@@0@AEAV10@PEBD@Z DD 0ffffffffH
	DD	imagerel ?dtor$0@?0???$?6U?$char_traits@D@std@@@std@@YAAEAV?$basic_ostream@DU?$char_traits@D@std@@@0@AEAV10@PEBD@Z@4HA
	DD	00H
	DD	00H
	DD	00H
	DD	00H
xdata	ENDS
;	COMDAT xdata
xdata	SEGMENT
$unwind$??$?6U?$char_traits@D@std@@@std@@YAAEAV?$basic_ostream@DU?$char_traits@D@std@@@0@AEAV10@PEBD@Z DD 025054b19H
	DD	01132318H
	DD	0700c0049H
	DD	0500bH
	DD	imagerel __GSHandlerCheck_EH
	DD	imagerel $cppxdata$??$?6U?$char_traits@D@std@@@std@@YAAEAV?$basic_ostream@DU?$char_traits@D@std@@@0@AEAV10@PEBD@Z
	DD	023bH
xdata	ENDS
;	COMDAT CONST
CONST	SEGMENT
??$?6U?$char_traits@D@std@@@std@@YAAEAV?$basic_ostream@DU?$char_traits@D@std@@@0@AEAV10@PEBD@Z$rtcName$0 DB 05fH ; std::operator<<<std::char_traits<char> >
	DB	04fH
	DB	06bH
	DB	00H
	ORG $+12
??$?6U?$char_traits@D@std@@@std@@YAAEAV?$basic_ostream@DU?$char_traits@D@std@@@0@AEAV10@PEBD@Z$rtcVarDesc DD 088H ; std::operator<<<std::char_traits<char> >
	DD	010H
	DQ	FLAT:??$?6U?$char_traits@D@std@@@std@@YAAEAV?$basic_ostream@DU?$char_traits@D@std@@@0@AEAV10@PEBD@Z$rtcName$0
	ORG $+48
??$?6U?$char_traits@D@std@@@std@@YAAEAV?$basic_ostream@DU?$char_traits@D@std@@@0@AEAV10@PEBD@Z$rtcFrameData DD 01H ; std::operator<<<std::char_traits<char> >
	DD	00H
	DQ	FLAT:??$?6U?$char_traits@D@std@@@std@@YAAEAV?$basic_ostream@DU?$char_traits@D@std@@@0@AEAV10@PEBD@Z$rtcVarDesc
$cppxdata$??$?6U?$char_traits@D@std@@@std@@YAAEAV?$basic_ostream@DU?$char_traits@D@std@@@0@AEAV10@PEBD@Z DD 019930522H
	DD	03H
	DD	imagerel $stateUnwindMap$??$?6U?$char_traits@D@std@@@std@@YAAEAV?$basic_ostream@DU?$char_traits@D@std@@@0@AEAV10@PEBD@Z
	DD	01H
	DD	imagerel $tryMap$??$?6U?$char_traits@D@std@@@std@@YAAEAV?$basic_ostream@DU?$char_traits@D@std@@@0@AEAV10@PEBD@Z
	DD	08H
	DD	imagerel $ip2state$??$?6U?$char_traits@D@std@@@std@@YAAEAV?$basic_ostream@DU?$char_traits@D@std@@@0@AEAV10@PEBD@Z
	DD	0218H
	DD	00H
	DD	01H
CONST	ENDS
;	COMDAT xdata
xdata	SEGMENT
$unwind$?__autoclassinit2@?$_Vector_iterator@V?$_Vector_val@U?$_Simple_types@PEAVbus_device@@@std@@@std@@@std@@QEAAX_K@Z DD 05052d01H
	DD	01130316H
	DD	0700c0019H
	DD	0500bH
xdata	ENDS
;	COMDAT xdata
xdata	SEGMENT
$unwind$??0?$_Vector_iterator@V?$_Vector_val@U?$_Simple_types@PEAVbus_device@@@std@@@std@@@std@@QEAA@AEBV01@@Z DD 025052f01H
	DD	01132318H
	DD	0700c001dH
	DD	0500bH
xdata	ENDS
;	COMDAT xdata
xdata	SEGMENT
$unwind$??1?$_Vector_iterator@V?$_Vector_val@U?$_Simple_types@PEAVbus_device@@@std@@@std@@@std@@QEAA@XZ DD 025052a01H
	DD	010e2313H
	DD	07007001dH
	DD	05006H
xdata	ENDS
;	COMDAT xdata
xdata	SEGMENT
$unwind$?dtor$0@?0???H?$_Vector_iterator@V?$_Vector_val@U?$_Simple_types@PEAVbus_device@@@std@@@std@@@std@@QEBA?AV01@_J@Z@4HA DD 031001H
	DD	0700c4210H
	DD	0500bH
xdata	ENDS
;	COMDAT xdata
xdata	SEGMENT
$ip2state$??H?$_Vector_iterator@V?$_Vector_val@U?$_Simple_types@PEAVbus_device@@@std@@@std@@@std@@QEBA?AV01@_J@Z DD imagerel ??H?$_Vector_iterator@V?$_Vector_val@U?$_Simple_types@PEAVbus_device@@@std@@@std@@@std@@QEBA?AV01@_J@Z
	DD	0ffffffffH
	DD	imagerel ??H?$_Vector_iterator@V?$_Vector_val@U?$_Simple_types@PEAVbus_device@@@std@@@std@@@std@@QEBA?AV01@_J@Z+133
	DD	00H
	DD	imagerel ??H?$_Vector_iterator@V?$_Vector_val@U?$_Simple_types@PEAVbus_device@@@std@@@std@@@std@@QEBA?AV01@_J@Z+179
	DD	0ffffffffH
xdata	ENDS
;	COMDAT xdata
xdata	SEGMENT
$stateUnwindMap$??H?$_Vector_iterator@V?$_Vector_val@U?$_Simple_types@PEAVbus_device@@@std@@@std@@@std@@QEBA?AV01@_J@Z DD 0ffffffffH
	DD	imagerel ?dtor$0@?0???H?$_Vector_iterator@V?$_Vector_val@U?$_Simple_types@PEAVbus_device@@@std@@@std@@@std@@QEBA?AV01@_J@Z@4HA
xdata	ENDS
;	COMDAT xdata
xdata	SEGMENT
$unwind$??H?$_Vector_iterator@V?$_Vector_val@U?$_Simple_types@PEAVbus_device@@@std@@@std@@@std@@QEBA?AV01@_J@Z DD 025055019H
	DD	0118231dH
	DD	07011002bH
	DD	05010H
	DD	imagerel __GSHandlerCheck_EH
	DD	imagerel $cppxdata$??H?$_Vector_iterator@V?$_Vector_val@U?$_Simple_types@PEAVbus_device@@@std@@@std@@@std@@QEBA?AV01@_J@Z
	DD	014aH
xdata	ENDS
;	COMDAT CONST
CONST	SEGMENT
??H?$_Vector_iterator@V?$_Vector_val@U?$_Simple_types@PEAVbus_device@@@std@@@std@@@std@@QEBA?AV01@_J@Z$rtcName$0 DB 05fH ; std::_Vector_iterator<std::_Vector_val<std::_Simple_types<bus_device *> > >::operator+
	DB	054H
	DB	06dH
	DB	070H
	DB	00H
	ORG $+11
??H?$_Vector_iterator@V?$_Vector_val@U?$_Simple_types@PEAVbus_device@@@std@@@std@@@std@@QEBA?AV01@_J@Z$rtcVarDesc DD 028H ; std::_Vector_iterator<std::_Vector_val<std::_Simple_types<bus_device *> > >::operator+
	DD	018H
	DQ	FLAT:??H?$_Vector_iterator@V?$_Vector_val@U?$_Simple_types@PEAVbus_device@@@std@@@std@@@std@@QEBA?AV01@_J@Z$rtcName$0
	ORG $+48
??H?$_Vector_iterator@V?$_Vector_val@U?$_Simple_types@PEAVbus_device@@@std@@@std@@@std@@QEBA?AV01@_J@Z$rtcFrameData DD 01H ; std::_Vector_iterator<std::_Vector_val<std::_Simple_types<bus_device *> > >::operator+
	DD	00H
	DQ	FLAT:??H?$_Vector_iterator@V?$_Vector_val@U?$_Simple_types@PEAVbus_device@@@std@@@std@@@std@@QEBA?AV01@_J@Z$rtcVarDesc
$cppxdata$??H?$_Vector_iterator@V?$_Vector_val@U?$_Simple_types@PEAVbus_device@@@std@@@std@@@std@@QEBA?AV01@_J@Z DD 019930522H
	DD	01H
	DD	imagerel $stateUnwindMap$??H?$_Vector_iterator@V?$_Vector_val@U?$_Simple_types@PEAVbus_device@@@std@@@std@@@std@@QEBA?AV01@_J@Z
	DD	00H
	DD	00H
	DD	03H
	DD	imagerel $ip2state$??H?$_Vector_iterator@V?$_Vector_val@U?$_Simple_types@PEAVbus_device@@@std@@@std@@@std@@QEBA?AV01@_J@Z
	DD	0138H
	DD	00H
	DD	01H
CONST	ENDS
;	COMDAT xdata
xdata	SEGMENT
$unwind$??Y?$_Vector_iterator@V?$_Vector_val@U?$_Simple_types@PEAVbus_device@@@std@@@std@@@std@@QEAAAEAV01@_J@Z DD 025052f01H
	DD	01132318H
	DD	0700c001dH
	DD	0500bH
xdata	ENDS
;	COMDAT xdata
xdata	SEGMENT
$unwind$??0?$_Vector_iterator@V?$_Vector_val@U?$_Simple_types@PEAVbus_device@@@std@@@std@@@std@@QEAA@PEAPEAVbus_device@@PEBU_Container_base12@1@@Z DD 025053401H
	DD	0118231dH
	DD	07011001dH
	DD	05010H
xdata	ENDS
;	COMDAT xdata
xdata	SEGMENT
$unwind$??0?$_Vector_const_iterator@V?$_Vector_val@U?$_Simple_types@PEAVbus_device@@@std@@@std@@@std@@QEAA@$$QEAV01@@Z DD 025052f01H
	DD	01132318H
	DD	0700c001dH
	DD	0500bH
xdata	ENDS
;	COMDAT xdata
xdata	SEGMENT
$unwind$??0?$_Vector_const_iterator@V?$_Vector_val@U?$_Simple_types@PEAVbus_device@@@std@@@std@@@std@@QEAA@AEBV01@@Z DD 025052f01H
	DD	01132318H
	DD	0700c001dH
	DD	0500bH
xdata	ENDS
;	COMDAT xdata
xdata	SEGMENT
$unwind$??1?$_Vector_const_iterator@V?$_Vector_val@U?$_Simple_types@PEAVbus_device@@@std@@@std@@@std@@QEAA@XZ DD 025052a01H
	DD	010e2313H
	DD	07007001dH
	DD	05006H
xdata	ENDS
;	COMDAT xdata
xdata	SEGMENT
$unwind$??Y?$_Vector_const_iterator@V?$_Vector_val@U?$_Simple_types@PEAVbus_device@@@std@@@std@@@std@@QEAAAEAV01@_J@Z DD 025052f01H
	DD	01132318H
	DD	0700c001dH
	DD	0500bH
xdata	ENDS
;	COMDAT xdata
xdata	SEGMENT
$unwind$?_Verify_offset@?$_Vector_const_iterator@V?$_Vector_val@U?$_Simple_types@PEAVbus_device@@@std@@@std@@@std@@QEBAX_J@Z DD 035052f01H
	DD	01133318H
	DD	0700c0023H
	DD	0500bH
xdata	ENDS
;	COMDAT xdata
xdata	SEGMENT
$unwind$??0?$_Vector_const_iterator@V?$_Vector_val@U?$_Simple_types@PEAVbus_device@@@std@@@std@@@std@@QEAA@PEAPEAVbus_device@@PEBU_Container_base12@1@@Z DD 025053401H
	DD	0118231dH
	DD	07011001dH
	DD	05010H
xdata	ENDS
;	COMDAT xdata
xdata	SEGMENT
$unwind$?hex@std@@YAAEAVios_base@1@AEAV21@@Z DD 025052a01H
	DD	010e2313H
	DD	07007001dH
	DD	05006H
xdata	ENDS
;	COMDAT xdata
xdata	SEGMENT
$unwind$?emulate_bus_conflicts@bus@@QEAAX_N@Z DD 025052e01H
	DD	01122317H
	DD	0700b001dH
	DD	0500aH
xdata	ENDS
;	COMDAT xdata
xdata	SEGMENT
$unwind$?reportdevices@bus@@QEAAXXZ DD 025052a01H
	DD	010e2313H
	DD	07007002dH
	DD	05006H
xdata	ENDS
;	COMDAT xdata
xdata	SEGMENT
$unwind$?dtor$1@?0??removedevice_select_base@bus@@QEAAXH@Z@4HA DD 031001H
	DD	0700c4210H
	DD	0500bH
xdata	ENDS
;	COMDAT xdata
xdata	SEGMENT
$unwind$?dtor$0@?0??removedevice_select_base@bus@@QEAAXH@Z@4HA DD 031001H
	DD	0700c4210H
	DD	0500bH
xdata	ENDS
;	COMDAT xdata
xdata	SEGMENT
$ip2state$?removedevice_select_base@bus@@QEAAXH@Z DD imagerel ?removedevice_select_base@bus@@QEAAXH@Z
	DD	0ffffffffH
	DD	imagerel ?removedevice_select_base@bus@@QEAAXH@Z+221
	DD	00H
	DD	imagerel ?removedevice_select_base@bus@@QEAAXH@Z+265
	DD	01H
	DD	imagerel ?removedevice_select_base@bus@@QEAAXH@Z+337
	DD	00H
	DD	imagerel ?removedevice_select_base@bus@@QEAAXH@Z+350
	DD	0ffffffffH
xdata	ENDS
;	COMDAT xdata
xdata	SEGMENT
$stateUnwindMap$?removedevice_select_base@bus@@QEAAXH@Z DD 0ffffffffH
	DD	imagerel ?dtor$0@?0??removedevice_select_base@bus@@QEAAXH@Z@4HA
	DD	00H
	DD	imagerel ?dtor$1@?0??removedevice_select_base@bus@@QEAAXH@Z@4HA
xdata	ENDS
;	COMDAT CONST
CONST	SEGMENT
$cppxdata$?removedevice_select_base@bus@@QEAAXH@Z DD 019930522H
	DD	02H
	DD	imagerel $stateUnwindMap$?removedevice_select_base@bus@@QEAAXH@Z
	DD	00H
	DD	00H
	DD	05H
	DD	imagerel $ip2state$?removedevice_select_base@bus@@QEAAXH@Z
	DD	01e8H
	DD	00H
	DD	01H
CONST	ENDS
;	COMDAT xdata
xdata	SEGMENT
$unwind$?removedevice_select_base@bus@@QEAAXH@Z DD 025053911H
	DD	01122317H
	DD	0700b0045H
	DD	0500aH
	DD	imagerel __CxxFrameHandler3
	DD	imagerel $cppxdata$?removedevice_select_base@bus@@QEAAXH@Z
xdata	ENDS
;	COMDAT xdata
xdata	SEGMENT
$unwind$?registerdevice@bus@@QEAAXPEAVbus_device@@@Z DD 025052f01H
	DD	01132318H
	DD	0700c001dH
	DD	0500bH
xdata	ENDS
;	COMDAT xdata
xdata	SEGMENT
$unwind$?irq_pulled@bus@@QEAA_NXZ DD 025052a01H
	DD	010e2313H
	DD	07007002dH
	DD	05006H
xdata	ENDS
;	COMDAT xdata
xdata	SEGMENT
$unwind$?nmi_pulled@bus@@QEAA_NXZ DD 025052a01H
	DD	010e2313H
	DD	070070031H
	DD	05006H
xdata	ENDS
;	COMDAT xdata
xdata	SEGMENT
$unwind$?read@bus@@QEAAEXZ DD 025052a01H
	DD	010e2313H
	DD	070070035H
	DD	05006H
xdata	ENDS
;	COMDAT xdata
xdata	SEGMENT
$unwind$?write@bus@@QEAAXE@Z DD 025052e01H
	DD	01122317H
	DD	0700b0031H
	DD	0500aH
xdata	ENDS
;	COMDAT xdata
xdata	SEGMENT
$unwind$?readmemory_as_word_wrap@bus@@QEAAGH@Z DD 025052e01H
	DD	01122317H
	DD	0700b0021H
	DD	0500aH
xdata	ENDS
;	COMDAT xdata
xdata	SEGMENT
$unwind$?readmemory_as_word@bus@@QEAAGH@Z DD 025052e01H
	DD	01122317H
	DD	0700b0021H
	DD	0500aH
xdata	ENDS
;	COMDAT xdata
xdata	SEGMENT
$unwind$?readmemory@bus@@QEAAEH@Z DD 025052e01H
	DD	01122317H
	DD	0700b001dH
	DD	0500aH
xdata	ENDS
;	COMDAT xdata
xdata	SEGMENT
$unwind$?writememory@bus@@QEAAXHE@Z DD 025053301H
	DD	0117231cH
	DD	07010001dH
	DD	0500fH
xdata	ENDS
;	COMDAT xdata
xdata	SEGMENT
$ip2state$??1bus@@QEAA@XZ DD imagerel ??1bus@@QEAA@XZ
	DD	0ffffffffH
xdata	ENDS
;	COMDAT CONST
CONST	SEGMENT
$cppxdata$??1bus@@QEAA@XZ DD 019930522H
	DD	00H
	DD	00H
	DD	00H
	DD	00H
	DD	01H
	DD	imagerel $ip2state$??1bus@@QEAA@XZ
	DD	01a8H
	DD	00H
	DD	05H
CONST	ENDS
;	COMDAT xdata
xdata	SEGMENT
$unwind$??1bus@@QEAA@XZ DD 025053519H
	DD	010e2313H
	DD	070070039H
	DD	05006H
	DD	imagerel __CxxFrameHandler3
	DD	imagerel $cppxdata$??1bus@@QEAA@XZ
xdata	ENDS
;	COMDAT xdata
xdata	SEGMENT
$unwind$??0bus@@QEAA@XZ DD 025052a01H
	DD	010e2313H
	DD	07007001dH
	DD	05006H
xdata	ENDS
;	COMDAT xdata
xdata	SEGMENT
$unwind$?dtor$0@?0??_Orphan_range@?$vector@PEAVbus_device@@V?$allocator@PEAVbus_device@@@std@@@std@@AEBAXPEAPEAVbus_device@@0@Z@4HA DD 031001H
	DD	0700c4210H
	DD	0500bH
xdata	ENDS
;	COMDAT xdata
xdata	SEGMENT
$ip2state$?_Orphan_range@?$vector@PEAVbus_device@@V?$allocator@PEAVbus_device@@@std@@@std@@AEBAXPEAPEAVbus_device@@0@Z DD imagerel ?_Orphan_range@?$vector@PEAVbus_device@@V?$allocator@PEAVbus_device@@@std@@@std@@AEBAXPEAPEAVbus_device@@0@Z
	DD	0ffffffffH
	DD	imagerel ?_Orphan_range@?$vector@PEAVbus_device@@V?$allocator@PEAVbus_device@@@std@@@std@@AEBAXPEAPEAVbus_device@@0@Z+108
	DD	00H
	DD	imagerel ?_Orphan_range@?$vector@PEAVbus_device@@V?$allocator@PEAVbus_device@@@std@@@std@@AEBAXPEAPEAVbus_device@@0@Z+235
	DD	0ffffffffH
xdata	ENDS
;	COMDAT xdata
xdata	SEGMENT
$stateUnwindMap$?_Orphan_range@?$vector@PEAVbus_device@@V?$allocator@PEAVbus_device@@@std@@@std@@AEBAXPEAPEAVbus_device@@0@Z DD 0ffffffffH
	DD	imagerel ?dtor$0@?0??_Orphan_range@?$vector@PEAVbus_device@@V?$allocator@PEAVbus_device@@@std@@@std@@AEBAXPEAPEAVbus_device@@0@Z@4HA
xdata	ENDS
;	COMDAT xdata
xdata	SEGMENT
$unwind$?_Orphan_range@?$vector@PEAVbus_device@@V?$allocator@PEAVbus_device@@@std@@@std@@AEBAXPEAPEAVbus_device@@0@Z DD 025055019H
	DD	0118231dH
	DD	070110029H
	DD	05010H
	DD	imagerel __GSHandlerCheck_EH
	DD	imagerel $cppxdata$?_Orphan_range@?$vector@PEAVbus_device@@V?$allocator@PEAVbus_device@@@std@@@std@@AEBAXPEAPEAVbus_device@@0@Z
	DD	013aH
xdata	ENDS
;	COMDAT CONST
CONST	SEGMENT
?_Orphan_range@?$vector@PEAVbus_device@@V?$allocator@PEAVbus_device@@@std@@@std@@AEBAXPEAPEAVbus_device@@0@Z$rtcName$0 DB 05fH ; std::vector<bus_device *,std::allocator<bus_device *> >::_Orphan_range
	DB	04cH
	DB	06fH
	DB	063H
	DB	06bH
	DB	00H
	ORG $+10
?_Orphan_range@?$vector@PEAVbus_device@@V?$allocator@PEAVbus_device@@@std@@@std@@AEBAXPEAPEAVbus_device@@0@Z$rtcVarDesc DD 024H ; std::vector<bus_device *,std::allocator<bus_device *> >::_Orphan_range
	DD	04H
	DQ	FLAT:?_Orphan_range@?$vector@PEAVbus_device@@V?$allocator@PEAVbus_device@@@std@@@std@@AEBAXPEAPEAVbus_device@@0@Z$rtcName$0
	ORG $+48
?_Orphan_range@?$vector@PEAVbus_device@@V?$allocator@PEAVbus_device@@@std@@@std@@AEBAXPEAPEAVbus_device@@0@Z$rtcFrameData DD 01H ; std::vector<bus_device *,std::allocator<bus_device *> >::_Orphan_range
	DD	00H
	DQ	FLAT:?_Orphan_range@?$vector@PEAVbus_device@@V?$allocator@PEAVbus_device@@@std@@@std@@AEBAXPEAPEAVbus_device@@0@Z$rtcVarDesc
$cppxdata$?_Orphan_range@?$vector@PEAVbus_device@@V?$allocator@PEAVbus_device@@@std@@@std@@AEBAXPEAPEAVbus_device@@0@Z DD 019930522H
	DD	01H
	DD	imagerel $stateUnwindMap$?_Orphan_range@?$vector@PEAVbus_device@@V?$allocator@PEAVbus_device@@@std@@@std@@AEBAXPEAPEAVbus_device@@0@Z
	DD	00H
	DD	00H
	DD	03H
	DD	imagerel $ip2state$?_Orphan_range@?$vector@PEAVbus_device@@V?$allocator@PEAVbus_device@@@std@@@std@@AEBAXPEAPEAVbus_device@@0@Z
	DD	0128H
	DD	00H
	DD	01H
CONST	ENDS
;	COMDAT xdata
xdata	SEGMENT
$unwind$?_Xlength@?$vector@PEAVbus_device@@V?$allocator@PEAVbus_device@@@std@@@std@@CAXXZ DD 025051e01H
	DD	010a230fH
	DD	07003001dH
	DD	05002H
xdata	ENDS
;	COMDAT xdata
xdata	SEGMENT
$unwind$?_Tidy@?$vector@PEAVbus_device@@V?$allocator@PEAVbus_device@@@std@@@std@@AEAAXXZ DD 025052a01H
	DD	010e2313H
	DD	07007001fH
	DD	05006H
xdata	ENDS
;	COMDAT xdata
xdata	SEGMENT
$unwind$?_Change_array@?$vector@PEAVbus_device@@V?$allocator@PEAVbus_device@@@std@@@std@@AEAAXQEAPEAVbus_device@@_K1@Z DD 025053901H
	DD	011d2322H
	DD	07016001fH
	DD	05015H
xdata	ENDS
;	COMDAT xdata
xdata	SEGMENT
$unwind$?_Calculate_growth@?$vector@PEAVbus_device@@V?$allocator@PEAVbus_device@@@std@@@std@@AEBA_K_K@Z DD 025052f01H
	DD	01132318H
	DD	0700c0025H
	DD	0500bH
xdata	ENDS
;	COMDAT xdata
xdata	SEGMENT
$unwind$?_Destroy@?$vector@PEAVbus_device@@V?$allocator@PEAVbus_device@@@std@@@std@@AEAAXPEAPEAVbus_device@@0@Z DD 025053401H
	DD	0118231dH
	DD	07011001dH
	DD	05010H
xdata	ENDS
;	COMDAT xdata
xdata	SEGMENT
$unwind$?_Umove_if_noexcept@?$vector@PEAVbus_device@@V?$allocator@PEAVbus_device@@@std@@@std@@AEAAXPEAPEAVbus_device@@00@Z DD 035053901H
	DD	011d3322H
	DD	070160023H
	DD	05015H
xdata	ENDS
;	COMDAT xdata
xdata	SEGMENT
$unwind$?_Umove_if_noexcept1@?$vector@PEAVbus_device@@V?$allocator@PEAVbus_device@@@std@@@std@@AEAAXPEAPEAVbus_device@@00U?$integral_constant@_N$00@2@@Z DD 025053901H
	DD	011d2322H
	DD	07016001dH
	DD	05015H
xdata	ENDS
;	COMDAT xdata
xdata	SEGMENT
$unwind$?_Umove@?$vector@PEAVbus_device@@V?$allocator@PEAVbus_device@@@std@@@std@@AEAAPEAPEAVbus_device@@PEAPEAV3@00@Z DD 025053901H
	DD	011d2322H
	DD	07016001dH
	DD	05015H
xdata	ENDS
;	COMDAT xdata
xdata	SEGMENT
$unwind$??A?$vector@PEAVbus_device@@V?$allocator@PEAVbus_device@@@std@@@std@@QEAAAEAPEAVbus_device@@_K@Z DD 035052f01H
	DD	01133318H
	DD	0700c001fH
	DD	0500bH
xdata	ENDS
;	COMDAT xdata
xdata	SEGMENT
$ip2state$?_Has_unused_capacity@?$vector@PEAVbus_device@@V?$allocator@PEAVbus_device@@@std@@@std@@AEBA_NXZ DD imagerel ?_Has_unused_capacity@?$vector@PEAVbus_device@@V?$allocator@PEAVbus_device@@@std@@@std@@AEBA_NXZ
	DD	0ffffffffH
xdata	ENDS
;	COMDAT CONST
CONST	SEGMENT
$cppxdata$?_Has_unused_capacity@?$vector@PEAVbus_device@@V?$allocator@PEAVbus_device@@@std@@@std@@AEBA_NXZ DD 019930522H
	DD	00H
	DD	00H
	DD	00H
	DD	00H
	DD	01H
	DD	imagerel $ip2state$?_Has_unused_capacity@?$vector@PEAVbus_device@@V?$allocator@PEAVbus_device@@@std@@@std@@AEBA_NXZ
	DD	0e8H
	DD	00H
	DD	05H
CONST	ENDS
;	COMDAT xdata
xdata	SEGMENT
$unwind$?_Has_unused_capacity@?$vector@PEAVbus_device@@V?$allocator@PEAVbus_device@@@std@@@std@@AEBA_NXZ DD 025053519H
	DD	010e2313H
	DD	070070023H
	DD	05006H
	DD	imagerel __CxxFrameHandler3
	DD	imagerel $cppxdata$?_Has_unused_capacity@?$vector@PEAVbus_device@@V?$allocator@PEAVbus_device@@@std@@@std@@AEBA_NXZ
xdata	ENDS
;	COMDAT xdata
xdata	SEGMENT
$ip2state$?capacity@?$vector@PEAVbus_device@@V?$allocator@PEAVbus_device@@@std@@@std@@QEBA_KXZ DD imagerel ?capacity@?$vector@PEAVbus_device@@V?$allocator@PEAVbus_device@@@std@@@std@@QEBA_KXZ
	DD	0ffffffffH
xdata	ENDS
;	COMDAT CONST
CONST	SEGMENT
$cppxdata$?capacity@?$vector@PEAVbus_device@@V?$allocator@PEAVbus_device@@@std@@@std@@QEBA_KXZ DD 019930522H
	DD	00H
	DD	00H
	DD	00H
	DD	00H
	DD	01H
	DD	imagerel $ip2state$?capacity@?$vector@PEAVbus_device@@V?$allocator@PEAVbus_device@@@std@@@std@@QEBA_KXZ
	DD	0e8H
	DD	00H
	DD	05H
CONST	ENDS
;	COMDAT xdata
xdata	SEGMENT
$unwind$?capacity@?$vector@PEAVbus_device@@V?$allocator@PEAVbus_device@@@std@@@std@@QEBA_KXZ DD 025053519H
	DD	010e2313H
	DD	070070021H
	DD	05006H
	DD	imagerel __CxxFrameHandler3
	DD	imagerel $cppxdata$?capacity@?$vector@PEAVbus_device@@V?$allocator@PEAVbus_device@@@std@@@std@@QEBA_KXZ
xdata	ENDS
;	COMDAT xdata
xdata	SEGMENT
$ip2state$?max_size@?$vector@PEAVbus_device@@V?$allocator@PEAVbus_device@@@std@@@std@@QEBA_KXZ DD imagerel ?max_size@?$vector@PEAVbus_device@@V?$allocator@PEAVbus_device@@@std@@@std@@QEBA_KXZ
	DD	0ffffffffH
xdata	ENDS
;	COMDAT CONST
CONST	SEGMENT
$cppxdata$?max_size@?$vector@PEAVbus_device@@V?$allocator@PEAVbus_device@@@std@@@std@@QEBA_KXZ DD 019930522H
	DD	00H
	DD	00H
	DD	00H
	DD	00H
	DD	01H
	DD	imagerel $ip2state$?max_size@?$vector@PEAVbus_device@@V?$allocator@PEAVbus_device@@@std@@@std@@QEBA_KXZ
	DD	0128H
	DD	00H
	DD	05H
CONST	ENDS
;	COMDAT xdata
xdata	SEGMENT
$unwind$?max_size@?$vector@PEAVbus_device@@V?$allocator@PEAVbus_device@@@std@@@std@@QEBA_KXZ DD 025053519H
	DD	010e2313H
	DD	070070029H
	DD	05006H
	DD	imagerel __CxxFrameHandler3
	DD	imagerel $cppxdata$?max_size@?$vector@PEAVbus_device@@V?$allocator@PEAVbus_device@@@std@@@std@@QEBA_KXZ
xdata	ENDS
;	COMDAT xdata
xdata	SEGMENT
$ip2state$?size@?$vector@PEAVbus_device@@V?$allocator@PEAVbus_device@@@std@@@std@@QEBA_KXZ DD imagerel ?size@?$vector@PEAVbus_device@@V?$allocator@PEAVbus_device@@@std@@@std@@QEBA_KXZ
	DD	0ffffffffH
xdata	ENDS
;	COMDAT CONST
CONST	SEGMENT
$cppxdata$?size@?$vector@PEAVbus_device@@V?$allocator@PEAVbus_device@@@std@@@std@@QEBA_KXZ DD 019930522H
	DD	00H
	DD	00H
	DD	00H
	DD	00H
	DD	01H
	DD	imagerel $ip2state$?size@?$vector@PEAVbus_device@@V?$allocator@PEAVbus_device@@@std@@@std@@QEBA_KXZ
	DD	0e8H
	DD	00H
	DD	05H
CONST	ENDS
;	COMDAT xdata
xdata	SEGMENT
$unwind$?size@?$vector@PEAVbus_device@@V?$allocator@PEAVbus_device@@@std@@@std@@QEBA_KXZ DD 025053519H
	DD	010e2313H
	DD	070070021H
	DD	05006H
	DD	imagerel __CxxFrameHandler3
	DD	imagerel $cppxdata$?size@?$vector@PEAVbus_device@@V?$allocator@PEAVbus_device@@@std@@@std@@QEBA_KXZ
xdata	ENDS
;	COMDAT xdata
xdata	SEGMENT
$ip2state$?_Unchecked_end@?$vector@PEAVbus_device@@V?$allocator@PEAVbus_device@@@std@@@std@@QEAAPEAPEAVbus_device@@XZ DD imagerel ?_Unchecked_end@?$vector@PEAVbus_device@@V?$allocator@PEAVbus_device@@@std@@@std@@QEAAPEAPEAVbus_device@@XZ
	DD	0ffffffffH
xdata	ENDS
;	COMDAT CONST
CONST	SEGMENT
$cppxdata$?_Unchecked_end@?$vector@PEAVbus_device@@V?$allocator@PEAVbus_device@@@std@@@std@@QEAAPEAPEAVbus_device@@XZ DD 019930522H
	DD	00H
	DD	00H
	DD	00H
	DD	00H
	DD	01H
	DD	imagerel $ip2state$?_Unchecked_end@?$vector@PEAVbus_device@@V?$allocator@PEAVbus_device@@@std@@@std@@QEAAPEAPEAVbus_device@@XZ
	DD	0e8H
	DD	00H
	DD	05H
CONST	ENDS
;	COMDAT xdata
xdata	SEGMENT
$unwind$?_Unchecked_end@?$vector@PEAVbus_device@@V?$allocator@PEAVbus_device@@@std@@@std@@QEAAPEAPEAVbus_device@@XZ DD 025053519H
	DD	010e2313H
	DD	070070021H
	DD	05006H
	DD	imagerel __CxxFrameHandler3
	DD	imagerel $cppxdata$?_Unchecked_end@?$vector@PEAVbus_device@@V?$allocator@PEAVbus_device@@@std@@@std@@QEAAPEAPEAVbus_device@@XZ
xdata	ENDS
;	COMDAT xdata
xdata	SEGMENT
$ip2state$?_Unchecked_begin@?$vector@PEAVbus_device@@V?$allocator@PEAVbus_device@@@std@@@std@@QEAAPEAPEAVbus_device@@XZ DD imagerel ?_Unchecked_begin@?$vector@PEAVbus_device@@V?$allocator@PEAVbus_device@@@std@@@std@@QEAAPEAPEAVbus_device@@XZ
	DD	0ffffffffH
xdata	ENDS
;	COMDAT CONST
CONST	SEGMENT
$cppxdata$?_Unchecked_begin@?$vector@PEAVbus_device@@V?$allocator@PEAVbus_device@@@std@@@std@@QEAAPEAPEAVbus_device@@XZ DD 019930522H
	DD	00H
	DD	00H
	DD	00H
	DD	00H
	DD	01H
	DD	imagerel $ip2state$?_Unchecked_begin@?$vector@PEAVbus_device@@V?$allocator@PEAVbus_device@@@std@@@std@@QEAAPEAPEAVbus_device@@XZ
	DD	0e8H
	DD	00H
	DD	05H
CONST	ENDS
;	COMDAT xdata
xdata	SEGMENT
$unwind$?_Unchecked_begin@?$vector@PEAVbus_device@@V?$allocator@PEAVbus_device@@@std@@@std@@QEAAPEAPEAVbus_device@@XZ DD 025053519H
	DD	010e2313H
	DD	070070021H
	DD	05006H
	DD	imagerel __CxxFrameHandler3
	DD	imagerel $cppxdata$?_Unchecked_begin@?$vector@PEAVbus_device@@V?$allocator@PEAVbus_device@@@std@@@std@@QEAAPEAPEAVbus_device@@XZ
xdata	ENDS
;	COMDAT xdata
xdata	SEGMENT
$ip2state$?begin@?$vector@PEAVbus_device@@V?$allocator@PEAVbus_device@@@std@@@std@@QEAA?AV?$_Vector_iterator@V?$_Vector_val@U?$_Simple_types@PEAVbus_device@@@std@@@std@@@2@XZ DD imagerel ?begin@?$vector@PEAVbus_device@@V?$allocator@PEAVbus_device@@@std@@@std@@QEAA?AV?$_Vector_iterator@V?$_Vector_val@U?$_Simple_types@PEAVbus_device@@@std@@@std@@@2@XZ
	DD	0ffffffffH
xdata	ENDS
;	COMDAT CONST
CONST	SEGMENT
$cppxdata$?begin@?$vector@PEAVbus_device@@V?$allocator@PEAVbus_device@@@std@@@std@@QEAA?AV?$_Vector_iterator@V?$_Vector_val@U?$_Simple_types@PEAVbus_device@@@std@@@std@@@2@XZ DD 019930522H
	DD	00H
	DD	00H
	DD	00H
	DD	00H
	DD	01H
	DD	imagerel $ip2state$?begin@?$vector@PEAVbus_device@@V?$allocator@PEAVbus_device@@@std@@@std@@QEAA?AV?$_Vector_iterator@V?$_Vector_val@U?$_Simple_types@PEAVbus_device@@@std@@@std@@@2@XZ
	DD	0e8H
	DD	00H
	DD	05H
CONST	ENDS
;	COMDAT xdata
xdata	SEGMENT
$unwind$?begin@?$vector@PEAVbus_device@@V?$allocator@PEAVbus_device@@@std@@@std@@QEAA?AV?$_Vector_iterator@V?$_Vector_val@U?$_Simple_types@PEAVbus_device@@@std@@@std@@@2@XZ DD 025053a19H
	DD	01132318H
	DD	0700c0021H
	DD	0500bH
	DD	imagerel __CxxFrameHandler3
	DD	imagerel $cppxdata$?begin@?$vector@PEAVbus_device@@V?$allocator@PEAVbus_device@@@std@@@std@@QEAA?AV?$_Vector_iterator@V?$_Vector_val@U?$_Simple_types@PEAVbus_device@@@std@@@std@@@2@XZ
xdata	ENDS
;	COMDAT xdata
xdata	SEGMENT
$unwind$?dtor$0@?0??erase@?$vector@PEAVbus_device@@V?$allocator@PEAVbus_device@@@std@@@std@@QEAA?AV?$_Vector_iterator@V?$_Vector_val@U?$_Simple_types@PEAVbus_device@@@std@@@std@@@2@V?$_Vector_const_iterator@V?$_Vector_val@U?$_Simple_types@PEAVbus_device@@@std@@@std@@@2@@Z@4HA DD 031001H
	DD	0700c4210H
	DD	0500bH
xdata	ENDS
;	COMDAT xdata
xdata	SEGMENT
$ip2state$?erase@?$vector@PEAVbus_device@@V?$allocator@PEAVbus_device@@@std@@@std@@QEAA?AV?$_Vector_iterator@V?$_Vector_val@U?$_Simple_types@PEAVbus_device@@@std@@@std@@@2@V?$_Vector_const_iterator@V?$_Vector_val@U?$_Simple_types@PEAVbus_device@@@std@@@std@@@2@@Z DD imagerel ?erase@?$vector@PEAVbus_device@@V?$allocator@PEAVbus_device@@@std@@@std@@QEAA?AV?$_Vector_iterator@V?$_Vector_val@U?$_Simple_types@PEAVbus_device@@@std@@@std@@@2@V?$_Vector_const_iterator@V?$_Vector_val@U?$_Simple_types@PEAVbus_device@@@std@@@std@@@2@@Z
	DD	0ffffffffH
	DD	imagerel ?erase@?$vector@PEAVbus_device@@V?$allocator@PEAVbus_device@@@std@@@std@@QEAA?AV?$_Vector_iterator@V?$_Vector_val@U?$_Simple_types@PEAVbus_device@@@std@@@std@@@2@V?$_Vector_const_iterator@V?$_Vector_val@U?$_Simple_types@PEAVbus_device@@@std@@@std@@@2@@Z+73
	DD	00H
	DD	imagerel ?erase@?$vector@PEAVbus_device@@V?$allocator@PEAVbus_device@@@std@@@std@@QEAA?AV?$_Vector_iterator@V?$_Vector_val@U?$_Simple_types@PEAVbus_device@@@std@@@std@@@2@V?$_Vector_const_iterator@V?$_Vector_val@U?$_Simple_types@PEAVbus_device@@@std@@@std@@@2@@Z+563
	DD	0ffffffffH
xdata	ENDS
;	COMDAT xdata
xdata	SEGMENT
$stateUnwindMap$?erase@?$vector@PEAVbus_device@@V?$allocator@PEAVbus_device@@@std@@@std@@QEAA?AV?$_Vector_iterator@V?$_Vector_val@U?$_Simple_types@PEAVbus_device@@@std@@@std@@@2@V?$_Vector_const_iterator@V?$_Vector_val@U?$_Simple_types@PEAVbus_device@@@std@@@std@@@2@@Z DD 0ffffffffH
	DD	imagerel ?dtor$0@?0??erase@?$vector@PEAVbus_device@@V?$allocator@PEAVbus_device@@@std@@@std@@QEAA?AV?$_Vector_iterator@V?$_Vector_val@U?$_Simple_types@PEAVbus_device@@@std@@@std@@@2@V?$_Vector_const_iterator@V?$_Vector_val@U?$_Simple_types@PEAVbus_device@@@std@@@std@@@2@@Z@4HA
xdata	ENDS
;	COMDAT CONST
CONST	SEGMENT
$cppxdata$?erase@?$vector@PEAVbus_device@@V?$allocator@PEAVbus_device@@@std@@@std@@QEAA?AV?$_Vector_iterator@V?$_Vector_val@U?$_Simple_types@PEAVbus_device@@@std@@@std@@@2@V?$_Vector_const_iterator@V?$_Vector_val@U?$_Simple_types@PEAVbus_device@@@std@@@std@@@2@@Z DD 019930522H
	DD	01H
	DD	imagerel $stateUnwindMap$?erase@?$vector@PEAVbus_device@@V?$allocator@PEAVbus_device@@@std@@@std@@QEAA?AV?$_Vector_iterator@V?$_Vector_val@U?$_Simple_types@PEAVbus_device@@@std@@@std@@@2@V?$_Vector_const_iterator@V?$_Vector_val@U?$_Simple_types@PEAVbus_device@@@std@@@std@@@2@@Z
	DD	00H
	DD	00H
	DD	03H
	DD	imagerel $ip2state$?erase@?$vector@PEAVbus_device@@V?$allocator@PEAVbus_device@@@std@@@std@@QEAA?AV?$_Vector_iterator@V?$_Vector_val@U?$_Simple_types@PEAVbus_device@@@std@@@std@@@2@V?$_Vector_const_iterator@V?$_Vector_val@U?$_Simple_types@PEAVbus_device@@@std@@@std@@@2@@Z
	DD	0118H
	DD	00H
	DD	01H
CONST	ENDS
;	COMDAT xdata
xdata	SEGMENT
$unwind$?erase@?$vector@PEAVbus_device@@V?$allocator@PEAVbus_device@@@std@@@std@@QEAA?AV?$_Vector_iterator@V?$_Vector_val@U?$_Simple_types@PEAVbus_device@@@std@@@std@@@2@V?$_Vector_const_iterator@V?$_Vector_val@U?$_Simple_types@PEAVbus_device@@@std@@@std@@@2@@Z DD 035053f11H
	DD	0118331dH
	DD	070110027H
	DD	05010H
	DD	imagerel __CxxFrameHandler3
	DD	imagerel $cppxdata$?erase@?$vector@PEAVbus_device@@V?$allocator@PEAVbus_device@@@std@@@std@@QEAA?AV?$_Vector_iterator@V?$_Vector_val@U?$_Simple_types@PEAVbus_device@@@std@@@std@@@2@V?$_Vector_const_iterator@V?$_Vector_val@U?$_Simple_types@PEAVbus_device@@@std@@@std@@@2@@Z
xdata	ENDS
;	COMDAT xdata
xdata	SEGMENT
$unwind$?push_back@?$vector@PEAVbus_device@@V?$allocator@PEAVbus_device@@@std@@@std@@QEAAXAEBQEAVbus_device@@@Z DD 025052f01H
	DD	01132318H
	DD	0700c001dH
	DD	0500bH
xdata	ENDS
;	COMDAT xdata
xdata	SEGMENT
$ip2state$??1?$vector@PEAVbus_device@@V?$allocator@PEAVbus_device@@@std@@@std@@QEAA@XZ DD imagerel ??1?$vector@PEAVbus_device@@V?$allocator@PEAVbus_device@@@std@@@std@@QEAA@XZ
	DD	0ffffffffH
xdata	ENDS
;	COMDAT CONST
CONST	SEGMENT
$cppxdata$??1?$vector@PEAVbus_device@@V?$allocator@PEAVbus_device@@@std@@@std@@QEAA@XZ DD 019930522H
	DD	00H
	DD	00H
	DD	00H
	DD	00H
	DD	01H
	DD	imagerel $ip2state$??1?$vector@PEAVbus_device@@V?$allocator@PEAVbus_device@@@std@@@std@@QEAA@XZ
	DD	0e8H
	DD	00H
	DD	05H
CONST	ENDS
;	COMDAT xdata
xdata	SEGMENT
$unwind$??1?$vector@PEAVbus_device@@V?$allocator@PEAVbus_device@@@std@@@std@@QEAA@XZ DD 025053519H
	DD	010e2313H
	DD	070070021H
	DD	05006H
	DD	imagerel __CxxFrameHandler3
	DD	imagerel $cppxdata$??1?$vector@PEAVbus_device@@V?$allocator@PEAVbus_device@@@std@@@std@@QEAA@XZ
xdata	ENDS
;	COMDAT xdata
xdata	SEGMENT
$ip2state$??0?$vector@PEAVbus_device@@V?$allocator@PEAVbus_device@@@std@@@std@@QEAA@XZ DD imagerel ??0?$vector@PEAVbus_device@@V?$allocator@PEAVbus_device@@@std@@@std@@QEAA@XZ
	DD	0ffffffffH
xdata	ENDS
;	COMDAT CONST
CONST	SEGMENT
$cppxdata$??0?$vector@PEAVbus_device@@V?$allocator@PEAVbus_device@@@std@@@std@@QEAA@XZ DD 019930522H
	DD	00H
	DD	00H
	DD	00H
	DD	00H
	DD	01H
	DD	imagerel $ip2state$??0?$vector@PEAVbus_device@@V?$allocator@PEAVbus_device@@@std@@@std@@QEAA@XZ
	DD	0e8H
	DD	00H
	DD	05H
CONST	ENDS
;	COMDAT xdata
xdata	SEGMENT
$unwind$??0?$vector@PEAVbus_device@@V?$allocator@PEAVbus_device@@@std@@@std@@QEAA@XZ DD 025053519H
	DD	010e2313H
	DD	070070021H
	DD	05006H
	DD	imagerel __CxxFrameHandler3
	DD	imagerel $cppxdata$??0?$vector@PEAVbus_device@@V?$allocator@PEAVbus_device@@@std@@@std@@QEAA@XZ
xdata	ENDS
;	COMDAT xdata
xdata	SEGMENT
$ip2state$?_Get_second@?$_Compressed_pair@V?$allocator@PEAVbus_device@@@std@@V?$_Vector_val@U?$_Simple_types@PEAVbus_device@@@std@@@2@$00@std@@QEBAAEBV?$_Vector_val@U?$_Simple_types@PEAVbus_device@@@std@@@2@XZ DD imagerel ?_Get_second@?$_Compressed_pair@V?$allocator@PEAVbus_device@@@std@@V?$_Vector_val@U?$_Simple_types@PEAVbus_device@@@std@@@2@$00@std@@QEBAAEBV?$_Vector_val@U?$_Simple_types@PEAVbus_device@@@std@@@2@XZ
	DD	0ffffffffH
xdata	ENDS
;	COMDAT CONST
CONST	SEGMENT
$cppxdata$?_Get_second@?$_Compressed_pair@V?$allocator@PEAVbus_device@@@std@@V?$_Vector_val@U?$_Simple_types@PEAVbus_device@@@std@@@2@$00@std@@QEBAAEBV?$_Vector_val@U?$_Simple_types@PEAVbus_device@@@std@@@2@XZ DD 019930522H
	DD	00H
	DD	00H
	DD	00H
	DD	00H
	DD	01H
	DD	imagerel $ip2state$?_Get_second@?$_Compressed_pair@V?$allocator@PEAVbus_device@@@std@@V?$_Vector_val@U?$_Simple_types@PEAVbus_device@@@std@@@2@$00@std@@QEBAAEBV?$_Vector_val@U?$_Simple_types@PEAVbus_device@@@std@@@2@XZ
	DD	0e8H
	DD	00H
	DD	05H
CONST	ENDS
;	COMDAT xdata
xdata	SEGMENT
$unwind$?_Get_second@?$_Compressed_pair@V?$allocator@PEAVbus_device@@@std@@V?$_Vector_val@U?$_Simple_types@PEAVbus_device@@@std@@@2@$00@std@@QEBAAEBV?$_Vector_val@U?$_Simple_types@PEAVbus_device@@@std@@@2@XZ DD 025053519H
	DD	010e2313H
	DD	070070021H
	DD	05006H
	DD	imagerel __CxxFrameHandler3
	DD	imagerel $cppxdata$?_Get_second@?$_Compressed_pair@V?$allocator@PEAVbus_device@@@std@@V?$_Vector_val@U?$_Simple_types@PEAVbus_device@@@std@@@2@$00@std@@QEBAAEBV?$_Vector_val@U?$_Simple_types@PEAVbus_device@@@std@@@2@XZ
xdata	ENDS
;	COMDAT xdata
xdata	SEGMENT
$ip2state$?_Get_second@?$_Compressed_pair@V?$allocator@PEAVbus_device@@@std@@V?$_Vector_val@U?$_Simple_types@PEAVbus_device@@@std@@@2@$00@std@@QEAAAEAV?$_Vector_val@U?$_Simple_types@PEAVbus_device@@@std@@@2@XZ DD imagerel ?_Get_second@?$_Compressed_pair@V?$allocator@PEAVbus_device@@@std@@V?$_Vector_val@U?$_Simple_types@PEAVbus_device@@@std@@@2@$00@std@@QEAAAEAV?$_Vector_val@U?$_Simple_types@PEAVbus_device@@@std@@@2@XZ
	DD	0ffffffffH
xdata	ENDS
;	COMDAT CONST
CONST	SEGMENT
$cppxdata$?_Get_second@?$_Compressed_pair@V?$allocator@PEAVbus_device@@@std@@V?$_Vector_val@U?$_Simple_types@PEAVbus_device@@@std@@@2@$00@std@@QEAAAEAV?$_Vector_val@U?$_Simple_types@PEAVbus_device@@@std@@@2@XZ DD 019930522H
	DD	00H
	DD	00H
	DD	00H
	DD	00H
	DD	01H
	DD	imagerel $ip2state$?_Get_second@?$_Compressed_pair@V?$allocator@PEAVbus_device@@@std@@V?$_Vector_val@U?$_Simple_types@PEAVbus_device@@@std@@@2@$00@std@@QEAAAEAV?$_Vector_val@U?$_Simple_types@PEAVbus_device@@@std@@@2@XZ
	DD	0e8H
	DD	00H
	DD	05H
CONST	ENDS
;	COMDAT xdata
xdata	SEGMENT
$unwind$?_Get_second@?$_Compressed_pair@V?$allocator@PEAVbus_device@@@std@@V?$_Vector_val@U?$_Simple_types@PEAVbus_device@@@std@@@2@$00@std@@QEAAAEAV?$_Vector_val@U?$_Simple_types@PEAVbus_device@@@std@@@2@XZ DD 025053519H
	DD	010e2313H
	DD	070070021H
	DD	05006H
	DD	imagerel __CxxFrameHandler3
	DD	imagerel $cppxdata$?_Get_second@?$_Compressed_pair@V?$allocator@PEAVbus_device@@@std@@V?$_Vector_val@U?$_Simple_types@PEAVbus_device@@@std@@@2@$00@std@@QEAAAEAV?$_Vector_val@U?$_Simple_types@PEAVbus_device@@@std@@@2@XZ
xdata	ENDS
;	COMDAT xdata
xdata	SEGMENT
$ip2state$?_Get_first@?$_Compressed_pair@V?$allocator@PEAVbus_device@@@std@@V?$_Vector_val@U?$_Simple_types@PEAVbus_device@@@std@@@2@$00@std@@QEBAAEBV?$allocator@PEAVbus_device@@@2@XZ DD imagerel ?_Get_first@?$_Compressed_pair@V?$allocator@PEAVbus_device@@@std@@V?$_Vector_val@U?$_Simple_types@PEAVbus_device@@@std@@@2@$00@std@@QEBAAEBV?$allocator@PEAVbus_device@@@2@XZ
	DD	0ffffffffH
xdata	ENDS
;	COMDAT CONST
CONST	SEGMENT
$cppxdata$?_Get_first@?$_Compressed_pair@V?$allocator@PEAVbus_device@@@std@@V?$_Vector_val@U?$_Simple_types@PEAVbus_device@@@std@@@2@$00@std@@QEBAAEBV?$allocator@PEAVbus_device@@@2@XZ DD 019930522H
	DD	00H
	DD	00H
	DD	00H
	DD	00H
	DD	01H
	DD	imagerel $ip2state$?_Get_first@?$_Compressed_pair@V?$allocator@PEAVbus_device@@@std@@V?$_Vector_val@U?$_Simple_types@PEAVbus_device@@@std@@@2@$00@std@@QEBAAEBV?$allocator@PEAVbus_device@@@2@XZ
	DD	0e8H
	DD	00H
	DD	05H
CONST	ENDS
;	COMDAT xdata
xdata	SEGMENT
$unwind$?_Get_first@?$_Compressed_pair@V?$allocator@PEAVbus_device@@@std@@V?$_Vector_val@U?$_Simple_types@PEAVbus_device@@@std@@@2@$00@std@@QEBAAEBV?$allocator@PEAVbus_device@@@2@XZ DD 025053519H
	DD	010e2313H
	DD	070070021H
	DD	05006H
	DD	imagerel __CxxFrameHandler3
	DD	imagerel $cppxdata$?_Get_first@?$_Compressed_pair@V?$allocator@PEAVbus_device@@@std@@V?$_Vector_val@U?$_Simple_types@PEAVbus_device@@@std@@@2@$00@std@@QEBAAEBV?$allocator@PEAVbus_device@@@2@XZ
xdata	ENDS
;	COMDAT xdata
xdata	SEGMENT
$ip2state$?_Get_first@?$_Compressed_pair@V?$allocator@PEAVbus_device@@@std@@V?$_Vector_val@U?$_Simple_types@PEAVbus_device@@@std@@@2@$00@std@@QEAAAEAV?$allocator@PEAVbus_device@@@2@XZ DD imagerel ?_Get_first@?$_Compressed_pair@V?$allocator@PEAVbus_device@@@std@@V?$_Vector_val@U?$_Simple_types@PEAVbus_device@@@std@@@2@$00@std@@QEAAAEAV?$allocator@PEAVbus_device@@@2@XZ
	DD	0ffffffffH
xdata	ENDS
;	COMDAT CONST
CONST	SEGMENT
$cppxdata$?_Get_first@?$_Compressed_pair@V?$allocator@PEAVbus_device@@@std@@V?$_Vector_val@U?$_Simple_types@PEAVbus_device@@@std@@@2@$00@std@@QEAAAEAV?$allocator@PEAVbus_device@@@2@XZ DD 019930522H
	DD	00H
	DD	00H
	DD	00H
	DD	00H
	DD	01H
	DD	imagerel $ip2state$?_Get_first@?$_Compressed_pair@V?$allocator@PEAVbus_device@@@std@@V?$_Vector_val@U?$_Simple_types@PEAVbus_device@@@std@@@2@$00@std@@QEAAAEAV?$allocator@PEAVbus_device@@@2@XZ
	DD	0e8H
	DD	00H
	DD	05H
CONST	ENDS
;	COMDAT xdata
xdata	SEGMENT
$unwind$?_Get_first@?$_Compressed_pair@V?$allocator@PEAVbus_device@@@std@@V?$_Vector_val@U?$_Simple_types@PEAVbus_device@@@std@@@2@$00@std@@QEAAAEAV?$allocator@PEAVbus_device@@@2@XZ DD 025053519H
	DD	010e2313H
	DD	070070021H
	DD	05006H
	DD	imagerel __CxxFrameHandler3
	DD	imagerel $cppxdata$?_Get_first@?$_Compressed_pair@V?$allocator@PEAVbus_device@@@std@@V?$_Vector_val@U?$_Simple_types@PEAVbus_device@@@std@@@2@$00@std@@QEAAAEAV?$allocator@PEAVbus_device@@@2@XZ
xdata	ENDS
;	COMDAT xdata
xdata	SEGMENT
$unwind$??0?$_Vector_val@U?$_Simple_types@PEAVbus_device@@@std@@@std@@QEAA@XZ DD 025052a01H
	DD	010e2313H
	DD	07007001dH
	DD	05006H
xdata	ENDS
;	COMDAT xdata
xdata	SEGMENT
$ip2state$?_Myend@?$_Vector_alloc@U?$_Vec_base_types@PEAVbus_device@@V?$allocator@PEAVbus_device@@@std@@@std@@@std@@QEBAAEBQEAPEAVbus_device@@XZ DD imagerel ?_Myend@?$_Vector_alloc@U?$_Vec_base_types@PEAVbus_device@@V?$allocator@PEAVbus_device@@@std@@@std@@@std@@QEBAAEBQEAPEAVbus_device@@XZ
	DD	0ffffffffH
xdata	ENDS
;	COMDAT CONST
CONST	SEGMENT
$cppxdata$?_Myend@?$_Vector_alloc@U?$_Vec_base_types@PEAVbus_device@@V?$allocator@PEAVbus_device@@@std@@@std@@@std@@QEBAAEBQEAPEAVbus_device@@XZ DD 019930522H
	DD	00H
	DD	00H
	DD	00H
	DD	00H
	DD	01H
	DD	imagerel $ip2state$?_Myend@?$_Vector_alloc@U?$_Vec_base_types@PEAVbus_device@@V?$allocator@PEAVbus_device@@@std@@@std@@@std@@QEBAAEBQEAPEAVbus_device@@XZ
	DD	0e8H
	DD	00H
	DD	05H
CONST	ENDS
;	COMDAT xdata
xdata	SEGMENT
$unwind$?_Myend@?$_Vector_alloc@U?$_Vec_base_types@PEAVbus_device@@V?$allocator@PEAVbus_device@@@std@@@std@@@std@@QEBAAEBQEAPEAVbus_device@@XZ DD 025053519H
	DD	010e2313H
	DD	070070021H
	DD	05006H
	DD	imagerel __CxxFrameHandler3
	DD	imagerel $cppxdata$?_Myend@?$_Vector_alloc@U?$_Vec_base_types@PEAVbus_device@@V?$allocator@PEAVbus_device@@@std@@@std@@@std@@QEBAAEBQEAPEAVbus_device@@XZ
xdata	ENDS
;	COMDAT xdata
xdata	SEGMENT
$ip2state$?_Myend@?$_Vector_alloc@U?$_Vec_base_types@PEAVbus_device@@V?$allocator@PEAVbus_device@@@std@@@std@@@std@@QEAAAEAPEAPEAVbus_device@@XZ DD imagerel ?_Myend@?$_Vector_alloc@U?$_Vec_base_types@PEAVbus_device@@V?$allocator@PEAVbus_device@@@std@@@std@@@std@@QEAAAEAPEAPEAVbus_device@@XZ
	DD	0ffffffffH
xdata	ENDS
;	COMDAT CONST
CONST	SEGMENT
$cppxdata$?_Myend@?$_Vector_alloc@U?$_Vec_base_types@PEAVbus_device@@V?$allocator@PEAVbus_device@@@std@@@std@@@std@@QEAAAEAPEAPEAVbus_device@@XZ DD 019930522H
	DD	00H
	DD	00H
	DD	00H
	DD	00H
	DD	01H
	DD	imagerel $ip2state$?_Myend@?$_Vector_alloc@U?$_Vec_base_types@PEAVbus_device@@V?$allocator@PEAVbus_device@@@std@@@std@@@std@@QEAAAEAPEAPEAVbus_device@@XZ
	DD	0e8H
	DD	00H
	DD	05H
CONST	ENDS
;	COMDAT xdata
xdata	SEGMENT
$unwind$?_Myend@?$_Vector_alloc@U?$_Vec_base_types@PEAVbus_device@@V?$allocator@PEAVbus_device@@@std@@@std@@@std@@QEAAAEAPEAPEAVbus_device@@XZ DD 025053519H
	DD	010e2313H
	DD	070070021H
	DD	05006H
	DD	imagerel __CxxFrameHandler3
	DD	imagerel $cppxdata$?_Myend@?$_Vector_alloc@U?$_Vec_base_types@PEAVbus_device@@V?$allocator@PEAVbus_device@@@std@@@std@@@std@@QEAAAEAPEAPEAVbus_device@@XZ
xdata	ENDS
;	COMDAT xdata
xdata	SEGMENT
$ip2state$?_Mylast@?$_Vector_alloc@U?$_Vec_base_types@PEAVbus_device@@V?$allocator@PEAVbus_device@@@std@@@std@@@std@@QEBAAEBQEAPEAVbus_device@@XZ DD imagerel ?_Mylast@?$_Vector_alloc@U?$_Vec_base_types@PEAVbus_device@@V?$allocator@PEAVbus_device@@@std@@@std@@@std@@QEBAAEBQEAPEAVbus_device@@XZ
	DD	0ffffffffH
xdata	ENDS
;	COMDAT CONST
CONST	SEGMENT
$cppxdata$?_Mylast@?$_Vector_alloc@U?$_Vec_base_types@PEAVbus_device@@V?$allocator@PEAVbus_device@@@std@@@std@@@std@@QEBAAEBQEAPEAVbus_device@@XZ DD 019930522H
	DD	00H
	DD	00H
	DD	00H
	DD	00H
	DD	01H
	DD	imagerel $ip2state$?_Mylast@?$_Vector_alloc@U?$_Vec_base_types@PEAVbus_device@@V?$allocator@PEAVbus_device@@@std@@@std@@@std@@QEBAAEBQEAPEAVbus_device@@XZ
	DD	0e8H
	DD	00H
	DD	05H
CONST	ENDS
;	COMDAT xdata
xdata	SEGMENT
$unwind$?_Mylast@?$_Vector_alloc@U?$_Vec_base_types@PEAVbus_device@@V?$allocator@PEAVbus_device@@@std@@@std@@@std@@QEBAAEBQEAPEAVbus_device@@XZ DD 025053519H
	DD	010e2313H
	DD	070070021H
	DD	05006H
	DD	imagerel __CxxFrameHandler3
	DD	imagerel $cppxdata$?_Mylast@?$_Vector_alloc@U?$_Vec_base_types@PEAVbus_device@@V?$allocator@PEAVbus_device@@@std@@@std@@@std@@QEBAAEBQEAPEAVbus_device@@XZ
xdata	ENDS
;	COMDAT xdata
xdata	SEGMENT
$ip2state$?_Mylast@?$_Vector_alloc@U?$_Vec_base_types@PEAVbus_device@@V?$allocator@PEAVbus_device@@@std@@@std@@@std@@QEAAAEAPEAPEAVbus_device@@XZ DD imagerel ?_Mylast@?$_Vector_alloc@U?$_Vec_base_types@PEAVbus_device@@V?$allocator@PEAVbus_device@@@std@@@std@@@std@@QEAAAEAPEAPEAVbus_device@@XZ
	DD	0ffffffffH
xdata	ENDS
;	COMDAT CONST
CONST	SEGMENT
$cppxdata$?_Mylast@?$_Vector_alloc@U?$_Vec_base_types@PEAVbus_device@@V?$allocator@PEAVbus_device@@@std@@@std@@@std@@QEAAAEAPEAPEAVbus_device@@XZ DD 019930522H
	DD	00H
	DD	00H
	DD	00H
	DD	00H
	DD	01H
	DD	imagerel $ip2state$?_Mylast@?$_Vector_alloc@U?$_Vec_base_types@PEAVbus_device@@V?$allocator@PEAVbus_device@@@std@@@std@@@std@@QEAAAEAPEAPEAVbus_device@@XZ
	DD	0e8H
	DD	00H
	DD	05H
CONST	ENDS
;	COMDAT xdata
xdata	SEGMENT
$unwind$?_Mylast@?$_Vector_alloc@U?$_Vec_base_types@PEAVbus_device@@V?$allocator@PEAVbus_device@@@std@@@std@@@std@@QEAAAEAPEAPEAVbus_device@@XZ DD 025053519H
	DD	010e2313H
	DD	070070021H
	DD	05006H
	DD	imagerel __CxxFrameHandler3
	DD	imagerel $cppxdata$?_Mylast@?$_Vector_alloc@U?$_Vec_base_types@PEAVbus_device@@V?$allocator@PEAVbus_device@@@std@@@std@@@std@@QEAAAEAPEAPEAVbus_device@@XZ
xdata	ENDS
;	COMDAT xdata
xdata	SEGMENT
$ip2state$?_Myfirst@?$_Vector_alloc@U?$_Vec_base_types@PEAVbus_device@@V?$allocator@PEAVbus_device@@@std@@@std@@@std@@QEBAAEBQEAPEAVbus_device@@XZ DD imagerel ?_Myfirst@?$_Vector_alloc@U?$_Vec_base_types@PEAVbus_device@@V?$allocator@PEAVbus_device@@@std@@@std@@@std@@QEBAAEBQEAPEAVbus_device@@XZ
	DD	0ffffffffH
xdata	ENDS
;	COMDAT CONST
CONST	SEGMENT
$cppxdata$?_Myfirst@?$_Vector_alloc@U?$_Vec_base_types@PEAVbus_device@@V?$allocator@PEAVbus_device@@@std@@@std@@@std@@QEBAAEBQEAPEAVbus_device@@XZ DD 019930522H
	DD	00H
	DD	00H
	DD	00H
	DD	00H
	DD	01H
	DD	imagerel $ip2state$?_Myfirst@?$_Vector_alloc@U?$_Vec_base_types@PEAVbus_device@@V?$allocator@PEAVbus_device@@@std@@@std@@@std@@QEBAAEBQEAPEAVbus_device@@XZ
	DD	0e8H
	DD	00H
	DD	05H
CONST	ENDS
;	COMDAT xdata
xdata	SEGMENT
$unwind$?_Myfirst@?$_Vector_alloc@U?$_Vec_base_types@PEAVbus_device@@V?$allocator@PEAVbus_device@@@std@@@std@@@std@@QEBAAEBQEAPEAVbus_device@@XZ DD 025053519H
	DD	010e2313H
	DD	070070021H
	DD	05006H
	DD	imagerel __CxxFrameHandler3
	DD	imagerel $cppxdata$?_Myfirst@?$_Vector_alloc@U?$_Vec_base_types@PEAVbus_device@@V?$allocator@PEAVbus_device@@@std@@@std@@@std@@QEBAAEBQEAPEAVbus_device@@XZ
xdata	ENDS
;	COMDAT xdata
xdata	SEGMENT
$ip2state$?_Myfirst@?$_Vector_alloc@U?$_Vec_base_types@PEAVbus_device@@V?$allocator@PEAVbus_device@@@std@@@std@@@std@@QEAAAEAPEAPEAVbus_device@@XZ DD imagerel ?_Myfirst@?$_Vector_alloc@U?$_Vec_base_types@PEAVbus_device@@V?$allocator@PEAVbus_device@@@std@@@std@@@std@@QEAAAEAPEAPEAVbus_device@@XZ
	DD	0ffffffffH
xdata	ENDS
;	COMDAT CONST
CONST	SEGMENT
$cppxdata$?_Myfirst@?$_Vector_alloc@U?$_Vec_base_types@PEAVbus_device@@V?$allocator@PEAVbus_device@@@std@@@std@@@std@@QEAAAEAPEAPEAVbus_device@@XZ DD 019930522H
	DD	00H
	DD	00H
	DD	00H
	DD	00H
	DD	01H
	DD	imagerel $ip2state$?_Myfirst@?$_Vector_alloc@U?$_Vec_base_types@PEAVbus_device@@V?$allocator@PEAVbus_device@@@std@@@std@@@std@@QEAAAEAPEAPEAVbus_device@@XZ
	DD	0e8H
	DD	00H
	DD	05H
CONST	ENDS
;	COMDAT xdata
xdata	SEGMENT
$unwind$?_Myfirst@?$_Vector_alloc@U?$_Vec_base_types@PEAVbus_device@@V?$allocator@PEAVbus_device@@@std@@@std@@@std@@QEAAAEAPEAPEAVbus_device@@XZ DD 025053519H
	DD	010e2313H
	DD	070070021H
	DD	05006H
	DD	imagerel __CxxFrameHandler3
	DD	imagerel $cppxdata$?_Myfirst@?$_Vector_alloc@U?$_Vec_base_types@PEAVbus_device@@V?$allocator@PEAVbus_device@@@std@@@std@@@std@@QEAAAEAPEAPEAVbus_device@@XZ
xdata	ENDS
;	COMDAT xdata
xdata	SEGMENT
$ip2state$?_Get_data@?$_Vector_alloc@U?$_Vec_base_types@PEAVbus_device@@V?$allocator@PEAVbus_device@@@std@@@std@@@std@@QEBAAEBV?$_Vector_val@U?$_Simple_types@PEAVbus_device@@@std@@@2@XZ DD imagerel ?_Get_data@?$_Vector_alloc@U?$_Vec_base_types@PEAVbus_device@@V?$allocator@PEAVbus_device@@@std@@@std@@@std@@QEBAAEBV?$_Vector_val@U?$_Simple_types@PEAVbus_device@@@std@@@2@XZ
	DD	0ffffffffH
xdata	ENDS
;	COMDAT CONST
CONST	SEGMENT
$cppxdata$?_Get_data@?$_Vector_alloc@U?$_Vec_base_types@PEAVbus_device@@V?$allocator@PEAVbus_device@@@std@@@std@@@std@@QEBAAEBV?$_Vector_val@U?$_Simple_types@PEAVbus_device@@@std@@@2@XZ DD 019930522H
	DD	00H
	DD	00H
	DD	00H
	DD	00H
	DD	01H
	DD	imagerel $ip2state$?_Get_data@?$_Vector_alloc@U?$_Vec_base_types@PEAVbus_device@@V?$allocator@PEAVbus_device@@@std@@@std@@@std@@QEBAAEBV?$_Vector_val@U?$_Simple_types@PEAVbus_device@@@std@@@2@XZ
	DD	0e8H
	DD	00H
	DD	05H
CONST	ENDS
;	COMDAT xdata
xdata	SEGMENT
$unwind$?_Get_data@?$_Vector_alloc@U?$_Vec_base_types@PEAVbus_device@@V?$allocator@PEAVbus_device@@@std@@@std@@@std@@QEBAAEBV?$_Vector_val@U?$_Simple_types@PEAVbus_device@@@std@@@2@XZ DD 025053519H
	DD	010e2313H
	DD	070070021H
	DD	05006H
	DD	imagerel __CxxFrameHandler3
	DD	imagerel $cppxdata$?_Get_data@?$_Vector_alloc@U?$_Vec_base_types@PEAVbus_device@@V?$allocator@PEAVbus_device@@@std@@@std@@@std@@QEBAAEBV?$_Vector_val@U?$_Simple_types@PEAVbus_device@@@std@@@2@XZ
xdata	ENDS
;	COMDAT xdata
xdata	SEGMENT
$ip2state$?_Get_data@?$_Vector_alloc@U?$_Vec_base_types@PEAVbus_device@@V?$allocator@PEAVbus_device@@@std@@@std@@@std@@QEAAAEAV?$_Vector_val@U?$_Simple_types@PEAVbus_device@@@std@@@2@XZ DD imagerel ?_Get_data@?$_Vector_alloc@U?$_Vec_base_types@PEAVbus_device@@V?$allocator@PEAVbus_device@@@std@@@std@@@std@@QEAAAEAV?$_Vector_val@U?$_Simple_types@PEAVbus_device@@@std@@@2@XZ
	DD	0ffffffffH
xdata	ENDS
;	COMDAT CONST
CONST	SEGMENT
$cppxdata$?_Get_data@?$_Vector_alloc@U?$_Vec_base_types@PEAVbus_device@@V?$allocator@PEAVbus_device@@@std@@@std@@@std@@QEAAAEAV?$_Vector_val@U?$_Simple_types@PEAVbus_device@@@std@@@2@XZ DD 019930522H
	DD	00H
	DD	00H
	DD	00H
	DD	00H
	DD	01H
	DD	imagerel $ip2state$?_Get_data@?$_Vector_alloc@U?$_Vec_base_types@PEAVbus_device@@V?$allocator@PEAVbus_device@@@std@@@std@@@std@@QEAAAEAV?$_Vector_val@U?$_Simple_types@PEAVbus_device@@@std@@@2@XZ
	DD	0e8H
	DD	00H
	DD	05H
CONST	ENDS
;	COMDAT xdata
xdata	SEGMENT
$unwind$?_Get_data@?$_Vector_alloc@U?$_Vec_base_types@PEAVbus_device@@V?$allocator@PEAVbus_device@@@std@@@std@@@std@@QEAAAEAV?$_Vector_val@U?$_Simple_types@PEAVbus_device@@@std@@@2@XZ DD 025053519H
	DD	010e2313H
	DD	070070021H
	DD	05006H
	DD	imagerel __CxxFrameHandler3
	DD	imagerel $cppxdata$?_Get_data@?$_Vector_alloc@U?$_Vec_base_types@PEAVbus_device@@V?$allocator@PEAVbus_device@@@std@@@std@@@std@@QEAAAEAV?$_Vector_val@U?$_Simple_types@PEAVbus_device@@@std@@@2@XZ
xdata	ENDS
;	COMDAT xdata
xdata	SEGMENT
$ip2state$?_Getal@?$_Vector_alloc@U?$_Vec_base_types@PEAVbus_device@@V?$allocator@PEAVbus_device@@@std@@@std@@@std@@QEBAAEBV?$allocator@PEAVbus_device@@@2@XZ DD imagerel ?_Getal@?$_Vector_alloc@U?$_Vec_base_types@PEAVbus_device@@V?$allocator@PEAVbus_device@@@std@@@std@@@std@@QEBAAEBV?$allocator@PEAVbus_device@@@2@XZ
	DD	0ffffffffH
xdata	ENDS
;	COMDAT CONST
CONST	SEGMENT
$cppxdata$?_Getal@?$_Vector_alloc@U?$_Vec_base_types@PEAVbus_device@@V?$allocator@PEAVbus_device@@@std@@@std@@@std@@QEBAAEBV?$allocator@PEAVbus_device@@@2@XZ DD 019930522H
	DD	00H
	DD	00H
	DD	00H
	DD	00H
	DD	01H
	DD	imagerel $ip2state$?_Getal@?$_Vector_alloc@U?$_Vec_base_types@PEAVbus_device@@V?$allocator@PEAVbus_device@@@std@@@std@@@std@@QEBAAEBV?$allocator@PEAVbus_device@@@2@XZ
	DD	0e8H
	DD	00H
	DD	05H
CONST	ENDS
;	COMDAT xdata
xdata	SEGMENT
$unwind$?_Getal@?$_Vector_alloc@U?$_Vec_base_types@PEAVbus_device@@V?$allocator@PEAVbus_device@@@std@@@std@@@std@@QEBAAEBV?$allocator@PEAVbus_device@@@2@XZ DD 025053519H
	DD	010e2313H
	DD	070070021H
	DD	05006H
	DD	imagerel __CxxFrameHandler3
	DD	imagerel $cppxdata$?_Getal@?$_Vector_alloc@U?$_Vec_base_types@PEAVbus_device@@V?$allocator@PEAVbus_device@@@std@@@std@@@std@@QEBAAEBV?$allocator@PEAVbus_device@@@2@XZ
xdata	ENDS
;	COMDAT xdata
xdata	SEGMENT
$ip2state$?_Getal@?$_Vector_alloc@U?$_Vec_base_types@PEAVbus_device@@V?$allocator@PEAVbus_device@@@std@@@std@@@std@@QEAAAEAV?$allocator@PEAVbus_device@@@2@XZ DD imagerel ?_Getal@?$_Vector_alloc@U?$_Vec_base_types@PEAVbus_device@@V?$allocator@PEAVbus_device@@@std@@@std@@@std@@QEAAAEAV?$allocator@PEAVbus_device@@@2@XZ
	DD	0ffffffffH
xdata	ENDS
;	COMDAT CONST
CONST	SEGMENT
$cppxdata$?_Getal@?$_Vector_alloc@U?$_Vec_base_types@PEAVbus_device@@V?$allocator@PEAVbus_device@@@std@@@std@@@std@@QEAAAEAV?$allocator@PEAVbus_device@@@2@XZ DD 019930522H
	DD	00H
	DD	00H
	DD	00H
	DD	00H
	DD	01H
	DD	imagerel $ip2state$?_Getal@?$_Vector_alloc@U?$_Vec_base_types@PEAVbus_device@@V?$allocator@PEAVbus_device@@@std@@@std@@@std@@QEAAAEAV?$allocator@PEAVbus_device@@@2@XZ
	DD	0e8H
	DD	00H
	DD	05H
CONST	ENDS
;	COMDAT xdata
xdata	SEGMENT
$unwind$?_Getal@?$_Vector_alloc@U?$_Vec_base_types@PEAVbus_device@@V?$allocator@PEAVbus_device@@@std@@@std@@@std@@QEAAAEAV?$allocator@PEAVbus_device@@@2@XZ DD 025053519H
	DD	010e2313H
	DD	070070021H
	DD	05006H
	DD	imagerel __CxxFrameHandler3
	DD	imagerel $cppxdata$?_Getal@?$_Vector_alloc@U?$_Vec_base_types@PEAVbus_device@@V?$allocator@PEAVbus_device@@@std@@@std@@@std@@QEAAAEAV?$allocator@PEAVbus_device@@@2@XZ
xdata	ENDS
;	COMDAT xdata
xdata	SEGMENT
$unwind$?_Orphan_all@?$_Vector_alloc@U?$_Vec_base_types@PEAVbus_device@@V?$allocator@PEAVbus_device@@@std@@@std@@@std@@QEAAXXZ DD 025052a01H
	DD	010e2313H
	DD	07007001dH
	DD	05006H
xdata	ENDS
;	COMDAT xdata
xdata	SEGMENT
$ip2state$?_Myproxy@?$_Vector_alloc@U?$_Vec_base_types@PEAVbus_device@@V?$allocator@PEAVbus_device@@@std@@@std@@@std@@QEAAAEAPEAU_Container_proxy@2@XZ DD imagerel ?_Myproxy@?$_Vector_alloc@U?$_Vec_base_types@PEAVbus_device@@V?$allocator@PEAVbus_device@@@std@@@std@@@std@@QEAAAEAPEAU_Container_proxy@2@XZ
	DD	0ffffffffH
xdata	ENDS
;	COMDAT CONST
CONST	SEGMENT
$cppxdata$?_Myproxy@?$_Vector_alloc@U?$_Vec_base_types@PEAVbus_device@@V?$allocator@PEAVbus_device@@@std@@@std@@@std@@QEAAAEAPEAU_Container_proxy@2@XZ DD 019930522H
	DD	00H
	DD	00H
	DD	00H
	DD	00H
	DD	01H
	DD	imagerel $ip2state$?_Myproxy@?$_Vector_alloc@U?$_Vec_base_types@PEAVbus_device@@V?$allocator@PEAVbus_device@@@std@@@std@@@std@@QEAAAEAPEAU_Container_proxy@2@XZ
	DD	0e8H
	DD	00H
	DD	05H
CONST	ENDS
;	COMDAT xdata
xdata	SEGMENT
$unwind$?_Myproxy@?$_Vector_alloc@U?$_Vec_base_types@PEAVbus_device@@V?$allocator@PEAVbus_device@@@std@@@std@@@std@@QEAAAEAPEAU_Container_proxy@2@XZ DD 025053519H
	DD	010e2313H
	DD	070070021H
	DD	05006H
	DD	imagerel __CxxFrameHandler3
	DD	imagerel $cppxdata$?_Myproxy@?$_Vector_alloc@U?$_Vec_base_types@PEAVbus_device@@V?$allocator@PEAVbus_device@@@std@@@std@@@std@@QEAAAEAPEAU_Container_proxy@2@XZ
xdata	ENDS
;	COMDAT xdata
xdata	SEGMENT
$unwind$?_Getpfirst@?$_Vector_alloc@U?$_Vec_base_types@PEAVbus_device@@V?$allocator@PEAVbus_device@@@std@@@std@@@std@@QEBAPEAPEAU_Iterator_base12@2@XZ DD 025052a01H
	DD	010e2313H
	DD	07007001dH
	DD	05006H
xdata	ENDS
;	COMDAT xdata
xdata	SEGMENT
$unwind$?_Free_proxy@?$_Vector_alloc@U?$_Vec_base_types@PEAVbus_device@@V?$allocator@PEAVbus_device@@@std@@@std@@@std@@QEAAXXZ DD 025053b19H
	DD	010e2313H
	DD	070070021H
	DD	05006H
	DD	imagerel __GSHandlerCheck
	DD	0f8H
xdata	ENDS
;	COMDAT CONST
CONST	SEGMENT
?_Free_proxy@?$_Vector_alloc@U?$_Vec_base_types@PEAVbus_device@@V?$allocator@PEAVbus_device@@@std@@@std@@@std@@QEAAXXZ$rtcName$0 DB 05fH ; std::_Vector_alloc<std::_Vec_base_types<bus_device *,std::allocator<bus_device *> > >::_Free_proxy
	DB	050H
	DB	072H
	DB	06fH
	DB	078H
	DB	079H
	DB	05fH
	DB	061H
	DB	06cH
	DB	06cH
	DB	06fH
	DB	063H
	DB	061H
	DB	074H
	DB	06fH
	DB	072H
	DB	00H
	ORG $+15
?_Free_proxy@?$_Vector_alloc@U?$_Vec_base_types@PEAVbus_device@@V?$allocator@PEAVbus_device@@@std@@@std@@@std@@QEAAXXZ$rtcVarDesc DD 024H ; std::_Vector_alloc<std::_Vec_base_types<bus_device *,std::allocator<bus_device *> > >::_Free_proxy
	DD	01H
	DQ	FLAT:?_Free_proxy@?$_Vector_alloc@U?$_Vec_base_types@PEAVbus_device@@V?$allocator@PEAVbus_device@@@std@@@std@@@std@@QEAAXXZ$rtcName$0
	ORG $+48
?_Free_proxy@?$_Vector_alloc@U?$_Vec_base_types@PEAVbus_device@@V?$allocator@PEAVbus_device@@@std@@@std@@@std@@QEAAXXZ$rtcFrameData DD 01H ; std::_Vector_alloc<std::_Vec_base_types<bus_device *,std::allocator<bus_device *> > >::_Free_proxy
	DD	00H
	DQ	FLAT:?_Free_proxy@?$_Vector_alloc@U?$_Vec_base_types@PEAVbus_device@@V?$allocator@PEAVbus_device@@@std@@@std@@@std@@QEAAXXZ$rtcVarDesc
CONST	ENDS
;	COMDAT xdata
xdata	SEGMENT
$unwind$?_Alloc_proxy@?$_Vector_alloc@U?$_Vec_base_types@PEAVbus_device@@V?$allocator@PEAVbus_device@@@std@@@std@@@std@@QEAAXXZ DD 025053b19H
	DD	010e2313H
	DD	070070029H
	DD	05006H
	DD	imagerel __GSHandlerCheck
	DD	0130H
xdata	ENDS
;	COMDAT CONST
CONST	SEGMENT
?_Alloc_proxy@?$_Vector_alloc@U?$_Vec_base_types@PEAVbus_device@@V?$allocator@PEAVbus_device@@@std@@@std@@@std@@QEAAXXZ$rtcName$0 DB 05fH ; std::_Vector_alloc<std::_Vec_base_types<bus_device *,std::allocator<bus_device *> > >::_Alloc_proxy
	DB	050H
	DB	072H
	DB	06fH
	DB	078H
	DB	079H
	DB	05fH
	DB	061H
	DB	06cH
	DB	06cH
	DB	06fH
	DB	063H
	DB	061H
	DB	074H
	DB	06fH
	DB	072H
	DB	00H
	ORG $+15
?_Alloc_proxy@?$_Vector_alloc@U?$_Vec_base_types@PEAVbus_device@@V?$allocator@PEAVbus_device@@@std@@@std@@@std@@QEAAXXZ$rtcVarDesc DD 024H ; std::_Vector_alloc<std::_Vec_base_types<bus_device *,std::allocator<bus_device *> > >::_Alloc_proxy
	DD	01H
	DQ	FLAT:?_Alloc_proxy@?$_Vector_alloc@U?$_Vec_base_types@PEAVbus_device@@V?$allocator@PEAVbus_device@@@std@@@std@@@std@@QEAAXXZ$rtcName$0
	ORG $+48
?_Alloc_proxy@?$_Vector_alloc@U?$_Vec_base_types@PEAVbus_device@@V?$allocator@PEAVbus_device@@@std@@@std@@@std@@QEAAXXZ$rtcFrameData DD 01H ; std::_Vector_alloc<std::_Vec_base_types<bus_device *,std::allocator<bus_device *> > >::_Alloc_proxy
	DD	00H
	DQ	FLAT:?_Alloc_proxy@?$_Vector_alloc@U?$_Vec_base_types@PEAVbus_device@@V?$allocator@PEAVbus_device@@@std@@@std@@@std@@QEAAXXZ$rtcVarDesc
CONST	ENDS
;	COMDAT xdata
xdata	SEGMENT
$ip2state$??1?$_Vector_alloc@U?$_Vec_base_types@PEAVbus_device@@V?$allocator@PEAVbus_device@@@std@@@std@@@std@@QEAA@XZ DD imagerel ??1?$_Vector_alloc@U?$_Vec_base_types@PEAVbus_device@@V?$allocator@PEAVbus_device@@@std@@@std@@@std@@QEAA@XZ
	DD	0ffffffffH
xdata	ENDS
;	COMDAT CONST
CONST	SEGMENT
$cppxdata$??1?$_Vector_alloc@U?$_Vec_base_types@PEAVbus_device@@V?$allocator@PEAVbus_device@@@std@@@std@@@std@@QEAA@XZ DD 019930522H
	DD	00H
	DD	00H
	DD	00H
	DD	00H
	DD	01H
	DD	imagerel $ip2state$??1?$_Vector_alloc@U?$_Vec_base_types@PEAVbus_device@@V?$allocator@PEAVbus_device@@@std@@@std@@@std@@QEAA@XZ
	DD	0e8H
	DD	00H
	DD	05H
CONST	ENDS
;	COMDAT xdata
xdata	SEGMENT
$unwind$??1?$_Vector_alloc@U?$_Vec_base_types@PEAVbus_device@@V?$allocator@PEAVbus_device@@@std@@@std@@@std@@QEAA@XZ DD 025053519H
	DD	010e2313H
	DD	070070021H
	DD	05006H
	DD	imagerel __CxxFrameHandler3
	DD	imagerel $cppxdata$??1?$_Vector_alloc@U?$_Vec_base_types@PEAVbus_device@@V?$allocator@PEAVbus_device@@@std@@@std@@@std@@QEAA@XZ
xdata	ENDS
;	COMDAT xdata
xdata	SEGMENT
$unwind$??0?$_Vector_alloc@U?$_Vec_base_types@PEAVbus_device@@V?$allocator@PEAVbus_device@@@std@@@std@@@std@@QEAA@XZ DD 025052a01H
	DD	010e2313H
	DD	070070021H
	DD	05006H
xdata	ENDS
;	COMDAT xdata
xdata	SEGMENT
$ip2state$?max_size@?$_Default_allocator_traits@V?$allocator@PEAVbus_device@@@std@@@std@@SA_KAEBV?$allocator@PEAVbus_device@@@2@@Z DD imagerel ?max_size@?$_Default_allocator_traits@V?$allocator@PEAVbus_device@@@std@@@std@@SA_KAEBV?$allocator@PEAVbus_device@@@2@@Z
	DD	0ffffffffH
xdata	ENDS
;	COMDAT CONST
CONST	SEGMENT
$cppxdata$?max_size@?$_Default_allocator_traits@V?$allocator@PEAVbus_device@@@std@@@std@@SA_KAEBV?$allocator@PEAVbus_device@@@2@@Z DD 019930522H
	DD	00H
	DD	00H
	DD	00H
	DD	00H
	DD	01H
	DD	imagerel $ip2state$?max_size@?$_Default_allocator_traits@V?$allocator@PEAVbus_device@@@std@@@std@@SA_KAEBV?$allocator@PEAVbus_device@@@2@@Z
	DD	0e8H
	DD	00H
	DD	05H
CONST	ENDS
;	COMDAT xdata
xdata	SEGMENT
$unwind$?max_size@?$_Default_allocator_traits@V?$allocator@PEAVbus_device@@@std@@@std@@SA_KAEBV?$allocator@PEAVbus_device@@@2@@Z DD 025053519H
	DD	010e2313H
	DD	070070021H
	DD	05006H
	DD	imagerel __CxxFrameHandler3
	DD	imagerel $cppxdata$?max_size@?$_Default_allocator_traits@V?$allocator@PEAVbus_device@@@std@@@std@@SA_KAEBV?$allocator@PEAVbus_device@@@2@@Z
xdata	ENDS
;	COMDAT xdata
xdata	SEGMENT
$unwind$?allocate@?$allocator@PEAVbus_device@@@std@@QEAAPEAPEAVbus_device@@_K@Z DD 025052f01H
	DD	01132318H
	DD	0700c001dH
	DD	0500bH
xdata	ENDS
;	COMDAT xdata
xdata	SEGMENT
$unwind$?deallocate@?$allocator@PEAVbus_device@@@std@@QEAAXQEAPEAVbus_device@@_K@Z DD 025053401H
	DD	0118231dH
	DD	07011001dH
	DD	05010H
xdata	ENDS
;	COMDAT xdata
xdata	SEGMENT
$ip2state$??0?$allocator@PEAVbus_device@@@std@@QEAA@XZ DD imagerel ??0?$allocator@PEAVbus_device@@@std@@QEAA@XZ
	DD	0ffffffffH
xdata	ENDS
;	COMDAT CONST
CONST	SEGMENT
$cppxdata$??0?$allocator@PEAVbus_device@@@std@@QEAA@XZ DD 019930522H
	DD	00H
	DD	00H
	DD	00H
	DD	00H
	DD	01H
	DD	imagerel $ip2state$??0?$allocator@PEAVbus_device@@@std@@QEAA@XZ
	DD	0e8H
	DD	00H
	DD	05H
CONST	ENDS
;	COMDAT xdata
xdata	SEGMENT
$unwind$??0?$allocator@PEAVbus_device@@@std@@QEAA@XZ DD 025053519H
	DD	010e2313H
	DD	070070021H
	DD	05006H
	DD	imagerel __CxxFrameHandler3
	DD	imagerel $cppxdata$??0?$allocator@PEAVbus_device@@@std@@QEAA@XZ
xdata	ENDS
;	COMDAT xdata
xdata	SEGMENT
$unwind$??_Gbus_device@@UEAAPEAXI@Z DD 025052e01H
	DD	01122317H
	DD	0700b001dH
	DD	0500aH
xdata	ENDS
;	COMDAT xdata
xdata	SEGMENT
$unwind$?read@bus_device@@UEAAEHH@Z DD 025053301H
	DD	0117231cH
	DD	07010001dH
	DD	0500fH
xdata	ENDS
;	COMDAT xdata
xdata	SEGMENT
$unwind$?write@bus_device@@UEAAXHHE@Z DD 025053801H
	DD	011c2321H
	DD	07015001dH
	DD	05014H
xdata	ENDS
;	COMDAT xdata
xdata	SEGMENT
$unwind$?resetpins_to_default@bus_device@@QEAAXXZ DD 025052a01H
	DD	010e2313H
	DD	070070021H
	DD	05006H
xdata	ENDS
;	COMDAT xdata
xdata	SEGMENT
$unwind$?vccpin@bus_device@@QEAAXH@Z DD 025052e01H
	DD	01122317H
	DD	0700b001dH
	DD	0500aH
xdata	ENDS
;	COMDAT xdata
xdata	SEGMENT
$unwind$?groundpin@bus_device@@QEAAXH@Z DD 025052e01H
	DD	01122317H
	DD	0700b001dH
	DD	0500aH
xdata	ENDS
;	COMDAT xdata
xdata	SEGMENT
$unwind$?swappins@bus_device@@QEAAXHH@Z DD 025053301H
	DD	0117231cH
	DD	070100021H
	DD	0500fH
xdata	ENDS
;	COMDAT xdata
xdata	SEGMENT
$unwind$?compute_addr_from_layout@bus_device@@QEAAGG@Z DD 025052f01H
	DD	01132318H
	DD	0700c0025H
	DD	0500bH
xdata	ENDS
;	COMDAT xdata
xdata	SEGMENT
$ip2state$??1bus_device@@UEAA@XZ DD imagerel ??1bus_device@@UEAA@XZ
	DD	0ffffffffH
xdata	ENDS
;	COMDAT CONST
CONST	SEGMENT
$cppxdata$??1bus_device@@UEAA@XZ DD 019930522H
	DD	00H
	DD	00H
	DD	00H
	DD	00H
	DD	01H
	DD	imagerel $ip2state$??1bus_device@@UEAA@XZ
	DD	0e8H
	DD	00H
	DD	05H
CONST	ENDS
;	COMDAT xdata
xdata	SEGMENT
$unwind$??1bus_device@@UEAA@XZ DD 025053519H
	DD	010e2313H
	DD	070070021H
	DD	05006H
	DD	imagerel __CxxFrameHandler3
	DD	imagerel $cppxdata$??1bus_device@@UEAA@XZ
xdata	ENDS
;	COMDAT xdata
xdata	SEGMENT
$unwind$?dtor$0@?0???0bus_device@@QEAA@XZ@4HA DD 031001H
	DD	0700c4210H
	DD	0500bH
xdata	ENDS
;	COMDAT xdata
xdata	SEGMENT
$ip2state$??0bus_device@@QEAA@XZ DD imagerel ??0bus_device@@QEAA@XZ
	DD	0ffffffffH
	DD	imagerel ??0bus_device@@QEAA@XZ+78
	DD	00H
	DD	imagerel ??0bus_device@@QEAA@XZ+214
	DD	0ffffffffH
xdata	ENDS
;	COMDAT xdata
xdata	SEGMENT
$stateUnwindMap$??0bus_device@@QEAA@XZ DD 0ffffffffH
	DD	imagerel ?dtor$0@?0???0bus_device@@QEAA@XZ@4HA
xdata	ENDS
;	COMDAT CONST
CONST	SEGMENT
$cppxdata$??0bus_device@@QEAA@XZ DD 019930522H
	DD	01H
	DD	imagerel $stateUnwindMap$??0bus_device@@QEAA@XZ
	DD	00H
	DD	00H
	DD	03H
	DD	imagerel $ip2state$??0bus_device@@QEAA@XZ
	DD	0108H
	DD	00H
	DD	01H
CONST	ENDS
;	COMDAT xdata
xdata	SEGMENT
$unwind$??0bus_device@@QEAA@XZ DD 025053511H
	DD	010e2313H
	DD	070070025H
	DD	05006H
	DD	imagerel __CxxFrameHandler3
	DD	imagerel $cppxdata$??0bus_device@@QEAA@XZ
xdata	ENDS
;	COMDAT xdata
xdata	SEGMENT
$unwind$?dma@device@@UEAAXPEAE_N1@Z DD 025053901H
	DD	011d2322H
	DD	07016001dH
	DD	05015H
xdata	ENDS
;	COMDAT xdata
xdata	SEGMENT
$unwind$?get_device_descriptor@device@@QEAAPEADXZ DD 025052a01H
	DD	010e2313H
	DD	07007001dH
	DD	05006H
xdata	ENDS
;	COMDAT xdata
xdata	SEGMENT
$unwind$?rundevice@device@@UEAAHH@Z DD 025052e01H
	DD	01122317H
	DD	0700b001dH
	DD	0500aH
xdata	ENDS
;	COMDAT xdata
xdata	SEGMENT
$ip2state$??1device@@QEAA@XZ DD imagerel ??1device@@QEAA@XZ
	DD	0ffffffffH
xdata	ENDS
;	COMDAT CONST
CONST	SEGMENT
$cppxdata$??1device@@QEAA@XZ DD 019930522H
	DD	00H
	DD	00H
	DD	00H
	DD	00H
	DD	01H
	DD	imagerel $ip2state$??1device@@QEAA@XZ
	DD	0e8H
	DD	00H
	DD	05H
CONST	ENDS
;	COMDAT xdata
xdata	SEGMENT
$unwind$??1device@@QEAA@XZ DD 025053519H
	DD	010e2313H
	DD	070070021H
	DD	05006H
	DD	imagerel __CxxFrameHandler3
	DD	imagerel $cppxdata$??1device@@QEAA@XZ
xdata	ENDS
;	COMDAT xdata
xdata	SEGMENT
$unwind$??0device@@QEAA@XZ DD 025052a01H
	DD	010e2313H
	DD	07007001dH
	DD	05006H
xdata	ENDS
;	COMDAT xdata
xdata	SEGMENT
$ip2state$??$_Min_value@_K@std@@YAAEB_KAEB_K0@Z DD imagerel ??$_Min_value@_K@std@@YAAEB_KAEB_K0@Z
	DD	0ffffffffH
xdata	ENDS
;	COMDAT CONST
CONST	SEGMENT
$cppxdata$??$_Min_value@_K@std@@YAAEB_KAEB_K0@Z DD 019930522H
	DD	00H
	DD	00H
	DD	00H
	DD	00H
	DD	01H
	DD	imagerel $ip2state$??$_Min_value@_K@std@@YAAEB_KAEB_K0@Z
	DD	0108H
	DD	00H
	DD	05H
CONST	ENDS
;	COMDAT xdata
xdata	SEGMENT
$unwind$??$_Min_value@_K@std@@YAAEB_KAEB_K0@Z DD 025053a19H
	DD	01132318H
	DD	0700c0025H
	DD	0500bH
	DD	imagerel __CxxFrameHandler3
	DD	imagerel $cppxdata$??$_Min_value@_K@std@@YAAEB_KAEB_K0@Z
xdata	ENDS
;	COMDAT xdata
xdata	SEGMENT
$unwind$?_Adjust_manually_vector_aligned@std@@YAXAEAPEAXAEA_K@Z DD 035052f01H
	DD	01133318H
	DD	0700c002fH
	DD	0500bH
xdata	ENDS
;	COMDAT xdata
xdata	SEGMENT
$unwind$?_Allocate@_Default_allocate_traits@std@@SAPEAX_K@Z DD 025052a01H
	DD	010e2313H
	DD	07007001dH
	DD	05006H
xdata	ENDS
;	COMDAT xdata
xdata	SEGMENT
$ip2state$?_Orphan_me@_Iterator_base12@std@@QEAAXXZ DD imagerel ?_Orphan_me@_Iterator_base12@std@@QEAAXXZ
	DD	0ffffffffH
xdata	ENDS
;	COMDAT CONST
CONST	SEGMENT
$cppxdata$?_Orphan_me@_Iterator_base12@std@@QEAAXXZ DD 019930522H
	DD	00H
	DD	00H
	DD	00H
	DD	00H
	DD	01H
	DD	imagerel $ip2state$?_Orphan_me@_Iterator_base12@std@@QEAAXXZ
	DD	0118H
	DD	00H
	DD	05H
CONST	ENDS
;	COMDAT xdata
xdata	SEGMENT
$unwind$?_Orphan_me@_Iterator_base12@std@@QEAAXXZ DD 035053519H
	DD	010e3313H
	DD	070070027H
	DD	05006H
	DD	imagerel __CxxFrameHandler3
	DD	imagerel $cppxdata$?_Orphan_me@_Iterator_base12@std@@QEAAXXZ
xdata	ENDS
;	COMDAT xdata
xdata	SEGMENT
$ip2state$?_Getpnext@_Iterator_base12@std@@QEAAPEAPEAU12@XZ DD imagerel ?_Getpnext@_Iterator_base12@std@@QEAAPEAPEAU12@XZ
	DD	0ffffffffH
xdata	ENDS
;	COMDAT CONST
CONST	SEGMENT
$cppxdata$?_Getpnext@_Iterator_base12@std@@QEAAPEAPEAU12@XZ DD 019930522H
	DD	00H
	DD	00H
	DD	00H
	DD	00H
	DD	01H
	DD	imagerel $ip2state$?_Getpnext@_Iterator_base12@std@@QEAAPEAPEAU12@XZ
	DD	0e8H
	DD	00H
	DD	05H
CONST	ENDS
;	COMDAT xdata
xdata	SEGMENT
$unwind$?_Getpnext@_Iterator_base12@std@@QEAAPEAPEAU12@XZ DD 025053519H
	DD	010e2313H
	DD	070070021H
	DD	05006H
	DD	imagerel __CxxFrameHandler3
	DD	imagerel $cppxdata$?_Getpnext@_Iterator_base12@std@@QEAAPEAPEAU12@XZ
xdata	ENDS
;	COMDAT xdata
xdata	SEGMENT
$ip2state$?_Getcont@_Iterator_base12@std@@QEBAPEBU_Container_base12@2@XZ DD imagerel ?_Getcont@_Iterator_base12@std@@QEBAPEBU_Container_base12@2@XZ
	DD	0ffffffffH
xdata	ENDS
;	COMDAT CONST
CONST	SEGMENT
$cppxdata$?_Getcont@_Iterator_base12@std@@QEBAPEBU_Container_base12@2@XZ DD 019930522H
	DD	00H
	DD	00H
	DD	00H
	DD	00H
	DD	01H
	DD	imagerel $ip2state$?_Getcont@_Iterator_base12@std@@QEBAPEBU_Container_base12@2@XZ
	DD	0e8H
	DD	00H
	DD	05H
CONST	ENDS
;	COMDAT xdata
xdata	SEGMENT
$unwind$?_Getcont@_Iterator_base12@std@@QEBAPEBU_Container_base12@2@XZ DD 025053519H
	DD	010e2313H
	DD	070070021H
	DD	05006H
	DD	imagerel __CxxFrameHandler3
	DD	imagerel $cppxdata$?_Getcont@_Iterator_base12@std@@QEBAPEBU_Container_base12@2@XZ
xdata	ENDS
;	COMDAT xdata
xdata	SEGMENT
$ip2state$?_Clrcont@_Iterator_base12@std@@QEAAXXZ DD imagerel ?_Clrcont@_Iterator_base12@std@@QEAAXXZ
	DD	0ffffffffH
xdata	ENDS
;	COMDAT CONST
CONST	SEGMENT
$cppxdata$?_Clrcont@_Iterator_base12@std@@QEAAXXZ DD 019930522H
	DD	00H
	DD	00H
	DD	00H
	DD	00H
	DD	01H
	DD	imagerel $ip2state$?_Clrcont@_Iterator_base12@std@@QEAAXXZ
	DD	0e8H
	DD	00H
	DD	05H
CONST	ENDS
;	COMDAT xdata
xdata	SEGMENT
$unwind$?_Clrcont@_Iterator_base12@std@@QEAAXXZ DD 025053519H
	DD	010e2313H
	DD	070070021H
	DD	05006H
	DD	imagerel __CxxFrameHandler3
	DD	imagerel $cppxdata$?_Clrcont@_Iterator_base12@std@@QEAAXXZ
xdata	ENDS
;	COMDAT xdata
xdata	SEGMENT
$ip2state$?_Adopt@_Iterator_base12@std@@QEAAXPEBU_Container_base12@2@@Z DD imagerel ?_Adopt@_Iterator_base12@std@@QEAAXPEBU_Container_base12@2@@Z
	DD	0ffffffffH
xdata	ENDS
;	COMDAT xdata
xdata	SEGMENT
$unwind$?_Adopt@_Iterator_base12@std@@QEAAXPEBU_Container_base12@2@@Z DD 025054b19H
	DD	01132318H
	DD	0700c002dH
	DD	0500bH
	DD	imagerel __GSHandlerCheck_EH
	DD	imagerel $cppxdata$?_Adopt@_Iterator_base12@std@@QEAAXPEBU_Container_base12@2@@Z
	DD	015bH
xdata	ENDS
;	COMDAT CONST
CONST	SEGMENT
?_Adopt@_Iterator_base12@std@@QEAAXPEBU_Container_base12@2@@Z$rtcName$0 DB 05fH ; std::_Iterator_base12::_Adopt
	DB	04cH
	DB	06fH
	DB	063H
	DB	06bH
	DB	00H
	ORG $+2
?_Adopt@_Iterator_base12@std@@QEAAXPEBU_Container_base12@2@@Z$rtcName$1 DB 05fH ; std::_Iterator_base12::_Adopt
	DB	04cH
	DB	06fH
	DB	063H
	DB	06bH
	DB	00H
	ORG $+2
?_Adopt@_Iterator_base12@std@@QEAAXPEBU_Container_base12@2@@Z$rtcVarDesc DD 064H ; std::_Iterator_base12::_Adopt
	DD	04H
	DQ	FLAT:?_Adopt@_Iterator_base12@std@@QEAAXPEBU_Container_base12@2@@Z$rtcName$1
	DD	024H
	DD	04H
	DQ	FLAT:?_Adopt@_Iterator_base12@std@@QEAAXPEBU_Container_base12@2@@Z$rtcName$0
	ORG $+96
?_Adopt@_Iterator_base12@std@@QEAAXPEBU_Container_base12@2@@Z$rtcFrameData DD 02H ; std::_Iterator_base12::_Adopt
	DD	00H
	DQ	FLAT:?_Adopt@_Iterator_base12@std@@QEAAXPEBU_Container_base12@2@@Z$rtcVarDesc
$cppxdata$?_Adopt@_Iterator_base12@std@@QEAAXPEBU_Container_base12@2@@Z DD 019930522H
	DD	00H
	DD	00H
	DD	00H
	DD	00H
	DD	01H
	DD	imagerel $ip2state$?_Adopt@_Iterator_base12@std@@QEAAXPEBU_Container_base12@2@@Z
	DD	0148H
	DD	00H
	DD	05H
CONST	ENDS
;	COMDAT xdata
xdata	SEGMENT
$ip2state$??1_Iterator_base12@std@@QEAA@XZ DD imagerel ??1_Iterator_base12@std@@QEAA@XZ
	DD	0ffffffffH
xdata	ENDS
;	COMDAT xdata
xdata	SEGMENT
$unwind$??1_Iterator_base12@std@@QEAA@XZ DD 025054619H
	DD	010e2313H
	DD	070070025H
	DD	05006H
	DD	imagerel __GSHandlerCheck_EH
	DD	imagerel $cppxdata$??1_Iterator_base12@std@@QEAA@XZ
	DD	011bH
xdata	ENDS
;	COMDAT CONST
CONST	SEGMENT
??1_Iterator_base12@std@@QEAA@XZ$rtcName$0 DB 05fH	; std::_Iterator_base12::~_Iterator_base12
	DB	04cH
	DB	06fH
	DB	063H
	DB	06bH
	DB	00H
	ORG $+10
??1_Iterator_base12@std@@QEAA@XZ$rtcVarDesc DD 024H	; std::_Iterator_base12::~_Iterator_base12
	DD	04H
	DQ	FLAT:??1_Iterator_base12@std@@QEAA@XZ$rtcName$0
	ORG $+48
??1_Iterator_base12@std@@QEAA@XZ$rtcFrameData DD 01H	; std::_Iterator_base12::~_Iterator_base12
	DD	00H
	DQ	FLAT:??1_Iterator_base12@std@@QEAA@XZ$rtcVarDesc
$cppxdata$??1_Iterator_base12@std@@QEAA@XZ DD 019930522H
	DD	00H
	DD	00H
	DD	00H
	DD	00H
	DD	01H
	DD	imagerel $ip2state$??1_Iterator_base12@std@@QEAA@XZ
	DD	0108H
	DD	00H
	DD	05H
CONST	ENDS
;	COMDAT xdata
xdata	SEGMENT
$ip2state$??4_Iterator_base12@std@@QEAAAEAU01@AEBU01@@Z DD imagerel ??4_Iterator_base12@std@@QEAAAEAU01@AEBU01@@Z
	DD	0ffffffffH
xdata	ENDS
;	COMDAT xdata
xdata	SEGMENT
$unwind$??4_Iterator_base12@std@@QEAAAEAU01@AEBU01@@Z DD 025054b19H
	DD	01132318H
	DD	0700c0025H
	DD	0500bH
	DD	imagerel __GSHandlerCheck_EH
	DD	imagerel $cppxdata$??4_Iterator_base12@std@@QEAAAEAU01@AEBU01@@Z
	DD	011bH
xdata	ENDS
;	COMDAT CONST
CONST	SEGMENT
??4_Iterator_base12@std@@QEAAAEAU01@AEBU01@@Z$rtcName$0 DB 05fH ; std::_Iterator_base12::operator=
	DB	04cH
	DB	06fH
	DB	063H
	DB	06bH
	DB	00H
	ORG $+10
??4_Iterator_base12@std@@QEAAAEAU01@AEBU01@@Z$rtcVarDesc DD 024H ; std::_Iterator_base12::operator=
	DD	04H
	DQ	FLAT:??4_Iterator_base12@std@@QEAAAEAU01@AEBU01@@Z$rtcName$0
	ORG $+48
??4_Iterator_base12@std@@QEAAAEAU01@AEBU01@@Z$rtcFrameData DD 01H ; std::_Iterator_base12::operator=
	DD	00H
	DQ	FLAT:??4_Iterator_base12@std@@QEAAAEAU01@AEBU01@@Z$rtcVarDesc
$cppxdata$??4_Iterator_base12@std@@QEAAAEAU01@AEBU01@@Z DD 019930522H
	DD	00H
	DD	00H
	DD	00H
	DD	00H
	DD	01H
	DD	imagerel $ip2state$??4_Iterator_base12@std@@QEAAAEAU01@AEBU01@@Z
	DD	0108H
	DD	00H
	DD	05H
CONST	ENDS
;	COMDAT xdata
xdata	SEGMENT
$ip2state$??0_Iterator_base12@std@@QEAA@AEBU01@@Z DD imagerel ??0_Iterator_base12@std@@QEAA@AEBU01@@Z
	DD	0ffffffffH
xdata	ENDS
;	COMDAT CONST
CONST	SEGMENT
$cppxdata$??0_Iterator_base12@std@@QEAA@AEBU01@@Z DD 019930522H
	DD	00H
	DD	00H
	DD	00H
	DD	00H
	DD	01H
	DD	imagerel $ip2state$??0_Iterator_base12@std@@QEAA@AEBU01@@Z
	DD	0e8H
	DD	00H
	DD	05H
CONST	ENDS
;	COMDAT xdata
xdata	SEGMENT
$unwind$??0_Iterator_base12@std@@QEAA@AEBU01@@Z DD 025053a19H
	DD	01132318H
	DD	0700c0021H
	DD	0500bH
	DD	imagerel __CxxFrameHandler3
	DD	imagerel $cppxdata$??0_Iterator_base12@std@@QEAA@AEBU01@@Z
xdata	ENDS
;	COMDAT xdata
xdata	SEGMENT
$ip2state$??0_Iterator_base12@std@@QEAA@XZ DD imagerel ??0_Iterator_base12@std@@QEAA@XZ
	DD	0ffffffffH
xdata	ENDS
;	COMDAT CONST
CONST	SEGMENT
$cppxdata$??0_Iterator_base12@std@@QEAA@XZ DD 019930522H
	DD	00H
	DD	00H
	DD	00H
	DD	00H
	DD	01H
	DD	imagerel $ip2state$??0_Iterator_base12@std@@QEAA@XZ
	DD	0e8H
	DD	00H
	DD	05H
CONST	ENDS
;	COMDAT xdata
xdata	SEGMENT
$unwind$??0_Iterator_base12@std@@QEAA@XZ DD 025053519H
	DD	010e2313H
	DD	070070021H
	DD	05006H
	DD	imagerel __CxxFrameHandler3
	DD	imagerel $cppxdata$??0_Iterator_base12@std@@QEAA@XZ
xdata	ENDS
;	COMDAT xdata
xdata	SEGMENT
$ip2state$?_Orphan_all@_Container_base12@std@@QEAAXXZ DD imagerel ?_Orphan_all@_Container_base12@std@@QEAAXXZ
	DD	0ffffffffH
xdata	ENDS
;	COMDAT xdata
xdata	SEGMENT
$unwind$?_Orphan_all@_Container_base12@std@@QEAAXXZ DD 025054619H
	DD	010e2313H
	DD	070070029H
	DD	05006H
	DD	imagerel __GSHandlerCheck_EH
	DD	imagerel $cppxdata$?_Orphan_all@_Container_base12@std@@QEAAXXZ
	DD	013bH
xdata	ENDS
;	COMDAT CONST
CONST	SEGMENT
?_Orphan_all@_Container_base12@std@@QEAAXXZ$rtcName$0 DB 05fH ; std::_Container_base12::_Orphan_all
	DB	04cH
	DB	06fH
	DB	063H
	DB	06bH
	DB	00H
	ORG $+10
?_Orphan_all@_Container_base12@std@@QEAAXXZ$rtcVarDesc DD 024H ; std::_Container_base12::_Orphan_all
	DD	04H
	DQ	FLAT:?_Orphan_all@_Container_base12@std@@QEAAXXZ$rtcName$0
	ORG $+48
?_Orphan_all@_Container_base12@std@@QEAAXXZ$rtcFrameData DD 01H ; std::_Container_base12::_Orphan_all
	DD	00H
	DQ	FLAT:?_Orphan_all@_Container_base12@std@@QEAAXXZ$rtcVarDesc
$cppxdata$?_Orphan_all@_Container_base12@std@@QEAAXXZ DD 019930522H
	DD	00H
	DD	00H
	DD	00H
	DD	00H
	DD	01H
	DD	imagerel $ip2state$?_Orphan_all@_Container_base12@std@@QEAAXXZ
	DD	0128H
	DD	00H
	DD	05H
CONST	ENDS
;	COMDAT xdata
xdata	SEGMENT
$ip2state$?_Getpfirst@_Container_base12@std@@QEBAPEAPEAU_Iterator_base12@2@XZ DD imagerel ?_Getpfirst@_Container_base12@std@@QEBAPEAPEAU_Iterator_base12@2@XZ
	DD	0ffffffffH
xdata	ENDS
;	COMDAT CONST
CONST	SEGMENT
$cppxdata$?_Getpfirst@_Container_base12@std@@QEBAPEAPEAU_Iterator_base12@2@XZ DD 019930522H
	DD	00H
	DD	00H
	DD	00H
	DD	00H
	DD	01H
	DD	imagerel $ip2state$?_Getpfirst@_Container_base12@std@@QEBAPEAPEAU_Iterator_base12@2@XZ
	DD	0e8H
	DD	00H
	DD	05H
CONST	ENDS
;	COMDAT xdata
xdata	SEGMENT
$unwind$?_Getpfirst@_Container_base12@std@@QEBAPEAPEAU_Iterator_base12@2@XZ DD 025053519H
	DD	010e2313H
	DD	070070021H
	DD	05006H
	DD	imagerel __CxxFrameHandler3
	DD	imagerel $cppxdata$?_Getpfirst@_Container_base12@std@@QEBAPEAPEAU_Iterator_base12@2@XZ
xdata	ENDS
;	COMDAT xdata
xdata	SEGMENT
$unwind$??0_Container_base12@std@@QEAA@XZ DD 025052a01H
	DD	010e2313H
	DD	07007001dH
	DD	05006H
xdata	ENDS
;	COMDAT xdata
xdata	SEGMENT
$ip2state$??0_Container_proxy@std@@QEAA@XZ DD imagerel ??0_Container_proxy@std@@QEAA@XZ
	DD	0ffffffffH
xdata	ENDS
;	COMDAT CONST
CONST	SEGMENT
$cppxdata$??0_Container_proxy@std@@QEAA@XZ DD 019930522H
	DD	00H
	DD	00H
	DD	00H
	DD	00H
	DD	01H
	DD	imagerel $ip2state$??0_Container_proxy@std@@QEAA@XZ
	DD	0e8H
	DD	00H
	DD	05H
CONST	ENDS
;	COMDAT xdata
xdata	SEGMENT
$unwind$??0_Container_proxy@std@@QEAA@XZ DD 025053519H
	DD	010e2313H
	DD	070070021H
	DD	05006H
	DD	imagerel __CxxFrameHandler3
	DD	imagerel $cppxdata$??0_Container_proxy@std@@QEAA@XZ
xdata	ENDS
;	COMDAT xdata
xdata	SEGMENT
$ip2state$?eof@?$char_traits@D@std@@SAHXZ DD imagerel ?eof@?$char_traits@D@std@@SAHXZ
	DD	0ffffffffH
xdata	ENDS
;	COMDAT CONST
CONST	SEGMENT
$cppxdata$?eof@?$char_traits@D@std@@SAHXZ DD 019930522H
	DD	00H
	DD	00H
	DD	00H
	DD	00H
	DD	01H
	DD	imagerel $ip2state$?eof@?$char_traits@D@std@@SAHXZ
	DD	0e8H
	DD	00H
	DD	05H
CONST	ENDS
;	COMDAT xdata
xdata	SEGMENT
$unwind$?eof@?$char_traits@D@std@@SAHXZ DD 025052919H
	DD	010a230fH
	DD	070030021H
	DD	05002H
	DD	imagerel __CxxFrameHandler3
	DD	imagerel $cppxdata$?eof@?$char_traits@D@std@@SAHXZ
xdata	ENDS
;	COMDAT xdata
xdata	SEGMENT
$ip2state$?eq_int_type@?$char_traits@D@std@@SA_NAEBH0@Z DD imagerel ?eq_int_type@?$char_traits@D@std@@SA_NAEBH0@Z
	DD	0ffffffffH
xdata	ENDS
;	COMDAT CONST
CONST	SEGMENT
$cppxdata$?eq_int_type@?$char_traits@D@std@@SA_NAEBH0@Z DD 019930522H
	DD	00H
	DD	00H
	DD	00H
	DD	00H
	DD	01H
	DD	imagerel $ip2state$?eq_int_type@?$char_traits@D@std@@SA_NAEBH0@Z
	DD	0e8H
	DD	00H
	DD	05H
CONST	ENDS
;	COMDAT xdata
xdata	SEGMENT
$unwind$?eq_int_type@?$char_traits@D@std@@SA_NAEBH0@Z DD 025053a19H
	DD	01132318H
	DD	0700c0021H
	DD	0500bH
	DD	imagerel __CxxFrameHandler3
	DD	imagerel $cppxdata$?eq_int_type@?$char_traits@D@std@@SA_NAEBH0@Z
xdata	ENDS
;	COMDAT xdata
xdata	SEGMENT
$ip2state$?length@?$char_traits@D@std@@SA_KQEBD@Z DD imagerel ?length@?$char_traits@D@std@@SA_KQEBD@Z
	DD	0ffffffffH
xdata	ENDS
;	COMDAT CONST
CONST	SEGMENT
$cppxdata$?length@?$char_traits@D@std@@SA_KQEBD@Z DD 019930522H
	DD	00H
	DD	00H
	DD	00H
	DD	00H
	DD	01H
	DD	imagerel $ip2state$?length@?$char_traits@D@std@@SA_KQEBD@Z
	DD	0e8H
	DD	00H
	DD	05H
CONST	ENDS
;	COMDAT xdata
xdata	SEGMENT
$unwind$?length@?$char_traits@D@std@@SA_KQEBD@Z DD 025053519H
	DD	010e2313H
	DD	070070021H
	DD	05006H
	DD	imagerel __CxxFrameHandler3
	DD	imagerel $cppxdata$?length@?$char_traits@D@std@@SA_KQEBD@Z
xdata	ENDS
;	COMDAT xdata
xdata	SEGMENT
$ip2state$?max@?$numeric_limits@_J@std@@SA_JXZ DD imagerel ?max@?$numeric_limits@_J@std@@SA_JXZ
	DD	0ffffffffH
xdata	ENDS
;	COMDAT CONST
CONST	SEGMENT
$cppxdata$?max@?$numeric_limits@_J@std@@SA_JXZ DD 019930522H
	DD	00H
	DD	00H
	DD	00H
	DD	00H
	DD	01H
	DD	imagerel $ip2state$?max@?$numeric_limits@_J@std@@SA_JXZ
	DD	0e8H
	DD	00H
	DD	05H
CONST	ENDS
;	COMDAT xdata
xdata	SEGMENT
$unwind$?max@?$numeric_limits@_J@std@@SA_JXZ DD 025052919H
	DD	010a230fH
	DD	070030021H
	DD	05002H
	DD	imagerel __CxxFrameHandler3
	DD	imagerel $cppxdata$?max@?$numeric_limits@_J@std@@SA_JXZ
xdata	ENDS
;	COMDAT xdata
xdata	SEGMENT
$ip2state$??2@YAPEAX_KPEAX@Z DD imagerel ??2@YAPEAX_KPEAX@Z
	DD	0ffffffffH
xdata	ENDS
;	COMDAT CONST
CONST	SEGMENT
$cppxdata$??2@YAPEAX_KPEAX@Z DD 019930522H
	DD	00H
	DD	00H
	DD	00H
	DD	00H
	DD	01H
	DD	imagerel $ip2state$??2@YAPEAX_KPEAX@Z
	DD	0e8H
	DD	00H
	DD	05H
CONST	ENDS
;	COMDAT xdata
xdata	SEGMENT
$unwind$??2@YAPEAX_KPEAX@Z DD 025053a19H
	DD	01132318H
	DD	0700c0021H
	DD	0500bH
	DD	imagerel __CxxFrameHandler3
	DD	imagerel $cppxdata$??2@YAPEAX_KPEAX@Z
xdata	ENDS
;	COMDAT xdata
xdata	SEGMENT
$unwind$?__empty_global_delete@@YAXPEAX_K@Z DD 025052f01H
	DD	01132318H
	DD	0700c001dH
	DD	0500bH
xdata	ENDS
;	COMDAT xdata
xdata	SEGMENT
$unwind$?__empty_global_delete@@YAXPEAX@Z DD 025052a01H
	DD	010e2313H
	DD	07007001dH
	DD	05006H
xdata	ENDS
; Function compile flags: /Odt
;	COMDAT __JustMyCode_Default
_TEXT	SEGMENT
__JustMyCode_Default PROC				; COMDAT
	ret	0
__JustMyCode_Default ENDP
_TEXT	ENDS
; Function compile flags: /Odtp /RTCsu /ZI
; File c:\program files (x86)\microsoft visual studio\2017\community\vc\tools\msvc\14.16.27023\include\xutility
;	COMDAT ??$_Seek_wrapped@PEAVbus_device@@@std@@YAXAEAPEAPEAVbus_device@@QEAPEAV1@@Z
_TEXT	SEGMENT
_It$ = 224
_UIt$ = 232
??$_Seek_wrapped@PEAVbus_device@@@std@@YAXAEAPEAPEAVbus_device@@QEAPEAV1@@Z PROC ; std::_Seek_wrapped<bus_device *>, COMDAT

; 871  : 	{

$LN3:
	mov	QWORD PTR [rsp+16], rdx
	mov	QWORD PTR [rsp+8], rcx
	push	rbp
	push	rdi
	sub	rsp, 232				; 000000e8H
	lea	rbp, QWORD PTR [rsp+32]
	mov	rdi, rsp
	mov	ecx, 58					; 0000003aH
	mov	eax, -858993460				; ccccccccH
	rep stosd
	mov	rcx, QWORD PTR [rsp+264]
	lea	rcx, OFFSET FLAT:__CDB00636_xutility
	call	__CheckForDebuggerJustMyCode

; 872  : 	_It = _UIt;

	mov	rax, QWORD PTR _It$[rbp]
	mov	rcx, QWORD PTR _UIt$[rbp]
	mov	QWORD PTR [rax], rcx

; 873  : 	}

	lea	rsp, QWORD PTR [rbp+200]
	pop	rdi
	pop	rbp
	ret	0
??$_Seek_wrapped@PEAVbus_device@@@std@@YAXAEAPEAPEAVbus_device@@QEAPEAV1@@Z ENDP ; std::_Seek_wrapped<bus_device *>
_TEXT	ENDS
; Function compile flags: /Odtp /RTCsu /ZI
; File c:\program files (x86)\microsoft visual studio\2017\community\vc\tools\msvc\14.16.27023\include\xmemory
;	COMDAT ??$_Uninitialized_move_al_unchecked@PEAVbus_device@@PEAV1@V?$allocator@PEAVbus_device@@@std@@@std@@YAPEAPEAVbus_device@@QEAPEAV1@00AEAV?$allocator@PEAVbus_device@@@0@U_Really_trivial_ptr_iterator_tag@0@U?$integral_constant@_N$00@0@@Z
_TEXT	SEGMENT
_First$ = 224
_Last$ = 232
_Dest$ = 240
__formal$ = 248
__formal$ = 256
__formal$ = 264
??$_Uninitialized_move_al_unchecked@PEAVbus_device@@PEAV1@V?$allocator@PEAVbus_device@@@std@@@std@@YAPEAPEAVbus_device@@QEAPEAV1@00AEAV?$allocator@PEAVbus_device@@@0@U_Really_trivial_ptr_iterator_tag@0@U?$integral_constant@_N$00@0@@Z PROC ; std::_Uninitialized_move_al_unchecked<bus_device *,bus_device *,std::allocator<bus_device *> >, COMDAT

; 243  : 	{	// move [_First, _Last) to raw _Dest, using default _Alloc construct, memmove optimization

$LN3:
	mov	QWORD PTR [rsp+32], r9
	mov	QWORD PTR [rsp+24], r8
	mov	QWORD PTR [rsp+16], rdx
	mov	QWORD PTR [rsp+8], rcx
	push	rbp
	push	rdi
	sub	rsp, 232				; 000000e8H
	lea	rbp, QWORD PTR [rsp+32]
	mov	rdi, rsp
	mov	ecx, 58					; 0000003aH
	mov	eax, -858993460				; ccccccccH
	rep stosd
	mov	rcx, QWORD PTR [rsp+264]
	lea	rcx, OFFSET FLAT:__8FA60561_xmemory
	call	__CheckForDebuggerJustMyCode

; 244  : 	return (_Copy_memmove(_First, _Last, _Dest));

	mov	r8, QWORD PTR _Dest$[rbp]
	mov	rdx, QWORD PTR _Last$[rbp]
	mov	rcx, QWORD PTR _First$[rbp]
	call	??$_Copy_memmove@PEAPEAVbus_device@@PEAPEAV1@@std@@YAPEAPEAVbus_device@@PEAPEAV1@00@Z ; std::_Copy_memmove<bus_device * *,bus_device * *>

; 245  : 	}

	lea	rsp, QWORD PTR [rbp+200]
	pop	rdi
	pop	rbp
	ret	0
??$_Uninitialized_move_al_unchecked@PEAVbus_device@@PEAV1@V?$allocator@PEAVbus_device@@@std@@@std@@YAPEAPEAVbus_device@@QEAPEAV1@00AEAV?$allocator@PEAVbus_device@@@0@U_Really_trivial_ptr_iterator_tag@0@U?$integral_constant@_N$00@0@@Z ENDP ; std::_Uninitialized_move_al_unchecked<bus_device *,bus_device *,std::allocator<bus_device *> >
_TEXT	ENDS
; Function compile flags: /Odtp /RTCsu /ZI
; File c:\program files (x86)\microsoft visual studio\2017\community\vc\tools\msvc\14.16.27023\include\xutility
;	COMDAT ??$_Get_unwrapped_n@PEAVbus_device@@_J$0A@@std@@YAPEAPEAVbus_device@@QEAPEAV1@_J@Z
_TEXT	SEGMENT
_Src$ = 224
__formal$ = 232
??$_Get_unwrapped_n@PEAVbus_device@@_J$0A@@std@@YAPEAPEAVbus_device@@QEAPEAV1@_J@Z PROC ; std::_Get_unwrapped_n<bus_device *,__int64,0>, COMDAT

; 808  : 	{

$LN3:
	mov	QWORD PTR [rsp+16], rdx
	mov	QWORD PTR [rsp+8], rcx
	push	rbp
	push	rdi
	sub	rsp, 232				; 000000e8H
	lea	rbp, QWORD PTR [rsp+32]
	mov	rdi, rsp
	mov	ecx, 58					; 0000003aH
	mov	eax, -858993460				; ccccccccH
	rep stosd
	mov	rcx, QWORD PTR [rsp+264]
	lea	rcx, OFFSET FLAT:__CDB00636_xutility
	call	__CheckForDebuggerJustMyCode

; 809  : 	return (_Src);

	mov	rax, QWORD PTR _Src$[rbp]

; 810  : 	}

	lea	rsp, QWORD PTR [rbp+200]
	pop	rdi
	pop	rbp
	ret	0
??$_Get_unwrapped_n@PEAVbus_device@@_J$0A@@std@@YAPEAPEAVbus_device@@QEAPEAV1@_J@Z ENDP ; std::_Get_unwrapped_n<bus_device *,__int64,0>
_TEXT	ENDS
; Function compile flags: /Odtp /RTCsu /ZI
; File c:\program files (x86)\microsoft visual studio\2017\community\vc\tools\msvc\14.16.27023\include\xutility
;	COMDAT ??$_Idl_distance1@PEAPEAVbus_device@@PEAPEAV1@@std@@YA_JAEBQEAPEAVbus_device@@0Urandom_access_iterator_tag@0@@Z
_TEXT	SEGMENT
_First$ = 224
_Last$ = 232
__formal$ = 240
??$_Idl_distance1@PEAPEAVbus_device@@PEAPEAV1@@std@@YA_JAEBQEAPEAVbus_device@@0Urandom_access_iterator_tag@0@@Z PROC ; std::_Idl_distance1<bus_device * *,bus_device * *>, COMDAT

; 967  : 	{	// _Idl_distance for random-access iterators

$LN3:
	mov	BYTE PTR [rsp+24], r8b
	mov	QWORD PTR [rsp+16], rdx
	mov	QWORD PTR [rsp+8], rcx
	push	rbp
	push	rdi
	sub	rsp, 232				; 000000e8H
	lea	rbp, QWORD PTR [rsp+32]
	mov	rdi, rsp
	mov	ecx, 58					; 0000003aH
	mov	eax, -858993460				; ccccccccH
	rep stosd
	mov	rcx, QWORD PTR [rsp+264]
	lea	rcx, OFFSET FLAT:__CDB00636_xutility
	call	__CheckForDebuggerJustMyCode

; 968  : 	return (static_cast<_Iter_diff_t<_Checked>>(_Last - _First));

	mov	rax, QWORD PTR _Last$[rbp]
	mov	rcx, QWORD PTR _First$[rbp]
	mov	rcx, QWORD PTR [rcx]
	mov	rax, QWORD PTR [rax]
	sub	rax, rcx
	sar	rax, 3

; 969  : 	}

	lea	rsp, QWORD PTR [rbp+200]
	pop	rdi
	pop	rbp
	ret	0
??$_Idl_distance1@PEAPEAVbus_device@@PEAPEAV1@@std@@YA_JAEBQEAPEAVbus_device@@0Urandom_access_iterator_tag@0@@Z ENDP ; std::_Idl_distance1<bus_device * *,bus_device * *>
_TEXT	ENDS
; Function compile flags: /Odtp /RTCsu /ZI
; File c:\program files (x86)\microsoft visual studio\2017\community\vc\tools\msvc\14.16.27023\include\xutility
;	COMDAT ??$_Idl_distance@PEAPEAVbus_device@@PEAPEAV1@@std@@YA@AEBQEAPEAVbus_device@@0@Z
_TEXT	SEGMENT
$T1 = 196
_First$ = 256
_Last$ = 264
??$_Idl_distance@PEAPEAVbus_device@@PEAPEAV1@@std@@YA@AEBQEAPEAVbus_device@@0@Z PROC ; std::_Idl_distance<bus_device * *,bus_device * *>, COMDAT

; 974  : 	{	// tries to get the distance between _First and _Last if they are random-access iterators

$LN3:
	mov	QWORD PTR [rsp+16], rdx
	mov	QWORD PTR [rsp+8], rcx
	push	rbp
	push	rdi
	sub	rsp, 264				; 00000108H
	lea	rbp, QWORD PTR [rsp+32]
	mov	rdi, rsp
	mov	ecx, 66					; 00000042H
	mov	eax, -858993460				; ccccccccH
	rep stosd
	mov	rcx, QWORD PTR [rsp+296]
	lea	rcx, OFFSET FLAT:__CDB00636_xutility
	call	__CheckForDebuggerJustMyCode

; 975  : 	return (_Idl_distance1<_Checked>(_First, _Last, _Iter_cat_t<_Iter>()));

	movzx	r8d, BYTE PTR $T1[rbp]
	mov	rdx, QWORD PTR _Last$[rbp]
	mov	rcx, QWORD PTR _First$[rbp]
	call	??$_Idl_distance1@PEAPEAVbus_device@@PEAPEAV1@@std@@YA_JAEBQEAPEAVbus_device@@0Urandom_access_iterator_tag@0@@Z ; std::_Idl_distance1<bus_device * *,bus_device * *>

; 976  : 	}

	lea	rsp, QWORD PTR [rbp+232]
	pop	rdi
	pop	rbp
	ret	0
??$_Idl_distance@PEAPEAVbus_device@@PEAPEAV1@@std@@YA@AEBQEAPEAVbus_device@@0@Z ENDP ; std::_Idl_distance<bus_device * *,bus_device * *>
_TEXT	ENDS
; Function compile flags: /Odtp /RTCsu /ZI
; File c:\program files (x86)\microsoft visual studio\2017\community\vc\tools\msvc\14.16.27023\include\xutility
;	COMDAT ??$_Get_unwrapped@PEAVbus_device@@@std@@YAPEAPEAVbus_device@@QEAPEAV1@@Z
_TEXT	SEGMENT
_Ptr$ = 224
??$_Get_unwrapped@PEAVbus_device@@@std@@YAPEAPEAVbus_device@@QEAPEAV1@@Z PROC ; std::_Get_unwrapped<bus_device *>, COMDAT

; 662  : 	{	// special case already-unwrapped pointers

$LN3:
	mov	QWORD PTR [rsp+8], rcx
	push	rbp
	push	rdi
	sub	rsp, 232				; 000000e8H
	lea	rbp, QWORD PTR [rsp+32]
	mov	rdi, rsp
	mov	ecx, 58					; 0000003aH
	mov	eax, -858993460				; ccccccccH
	rep stosd
	mov	rcx, QWORD PTR [rsp+264]
	lea	rcx, OFFSET FLAT:__CDB00636_xutility
	call	__CheckForDebuggerJustMyCode

; 663  : 	return (_Ptr);

	mov	rax, QWORD PTR _Ptr$[rbp]

; 664  : 	}

	lea	rsp, QWORD PTR [rbp+200]
	pop	rdi
	pop	rbp
	ret	0
??$_Get_unwrapped@PEAVbus_device@@@std@@YAPEAPEAVbus_device@@QEAPEAV1@@Z ENDP ; std::_Get_unwrapped<bus_device *>
_TEXT	ENDS
; Function compile flags: /Odtp /RTCsu /ZI
; File c:\program files (x86)\microsoft visual studio\2017\community\vc\tools\msvc\14.16.27023\include\xutility
;	COMDAT ??$_Copy_memmove@PEAPEAVbus_device@@PEAPEAV1@@std@@YAPEAPEAVbus_device@@PEAPEAV1@00@Z
_TEXT	SEGMENT
_First_ch$ = 8
_Last_ch$ = 40
_Dest_ch$ = 72
_Count$ = 104
_First$ = 352
_Last$ = 360
_Dest$ = 368
??$_Copy_memmove@PEAPEAVbus_device@@PEAPEAV1@@std@@YAPEAPEAVbus_device@@PEAPEAV1@00@Z PROC ; std::_Copy_memmove<bus_device * *,bus_device * *>, COMDAT

; 2398 : 	{	// implement copy-like function as memmove

$LN3:
	mov	QWORD PTR [rsp+24], r8
	mov	QWORD PTR [rsp+16], rdx
	mov	QWORD PTR [rsp+8], rcx
	push	rbp
	push	rdi
	sub	rsp, 360				; 00000168H
	lea	rbp, QWORD PTR [rsp+32]
	mov	rdi, rsp
	mov	ecx, 90					; 0000005aH
	mov	eax, -858993460				; ccccccccH
	rep stosd
	mov	rcx, QWORD PTR [rsp+392]
	lea	rcx, OFFSET FLAT:__CDB00636_xutility
	call	__CheckForDebuggerJustMyCode

; 2399 : 	const char * const _First_ch = const_cast<const char *>(reinterpret_cast<const volatile char *>(_First));

	mov	rax, QWORD PTR _First$[rbp]
	mov	QWORD PTR _First_ch$[rbp], rax

; 2400 : 	const char * const _Last_ch = const_cast<const char *>(reinterpret_cast<const volatile char *>(_Last));

	mov	rax, QWORD PTR _Last$[rbp]
	mov	QWORD PTR _Last_ch$[rbp], rax

; 2401 : 	char * const _Dest_ch = const_cast<char *>(reinterpret_cast<volatile char *>(_Dest));

	mov	rax, QWORD PTR _Dest$[rbp]
	mov	QWORD PTR _Dest_ch$[rbp], rax

; 2402 : 	const auto _Count = static_cast<size_t>(_Last_ch - _First_ch);

	mov	rax, QWORD PTR _First_ch$[rbp]
	mov	rcx, QWORD PTR _Last_ch$[rbp]
	sub	rcx, rax
	mov	rax, rcx
	mov	QWORD PTR _Count$[rbp], rax

; 2403 : 	_CSTD memmove(_Dest_ch, _First_ch, _Count);

	mov	r8, QWORD PTR _Count$[rbp]
	mov	rdx, QWORD PTR _First_ch$[rbp]
	mov	rcx, QWORD PTR _Dest_ch$[rbp]
	call	memmove

; 2404 : 	return (reinterpret_cast<_OutIt>(_Dest_ch + _Count));

	mov	rax, QWORD PTR _Count$[rbp]
	mov	rcx, QWORD PTR _Dest_ch$[rbp]
	add	rcx, rax
	mov	rax, rcx

; 2405 : 	}

	lea	rsp, QWORD PTR [rbp+328]
	pop	rdi
	pop	rbp
	ret	0
??$_Copy_memmove@PEAPEAVbus_device@@PEAPEAV1@@std@@YAPEAPEAVbus_device@@PEAPEAV1@00@Z ENDP ; std::_Copy_memmove<bus_device * *,bus_device * *>
_TEXT	ENDS
; Function compile flags: /Odtp /RTCsu /ZI
; File c:\program files (x86)\microsoft visual studio\2017\community\vc\tools\msvc\14.16.27023\include\xmemory0
;	COMDAT ??$_Get_size_of_n@$07@std@@YA_K_K@Z
_TEXT	SEGMENT
_Max_possible$ = 8
_Result$ = 40
_Count$ = 288
??$_Get_size_of_n@$07@std@@YA_K_K@Z PROC		; std::_Get_size_of_n<8>, COMDAT

; 23   : 	{	// gets the size of _Count copies of a type sized _Ty_size

$LN4:
	mov	QWORD PTR [rsp+8], rcx
	push	rbp
	push	rdi
	sub	rsp, 296				; 00000128H
	lea	rbp, QWORD PTR [rsp+32]
	mov	rdi, rsp
	mov	ecx, 74					; 0000004aH
	mov	eax, -858993460				; ccccccccH
	rep stosd
	mov	rcx, QWORD PTR [rsp+328]
	lea	rcx, OFFSET FLAT:__1CE3C767_xmemory0
	call	__CheckForDebuggerJustMyCode

; 24   : 	constexpr size_t _Max_possible = static_cast<size_t>(-1) / _Ty_size;

	mov	rax, 2305843009213693951		; 1fffffffffffffffH
	mov	QWORD PTR _Max_possible$[rbp], rax

; 25   : 	size_t _Result = _Count * _Ty_size;

	mov	rax, QWORD PTR _Count$[rbp]
	shl	rax, 3
	mov	QWORD PTR _Result$[rbp], rax

; 26   : 	if (_Max_possible < _Count)

	mov	rax, 2305843009213693951		; 1fffffffffffffffH
	cmp	QWORD PTR _Count$[rbp], rax
	jbe	SHORT $LN2@Get_size_o

; 27   : 		{	// multiply overflow, try allocating all of memory and assume the
; 28   : 			// allocation function will throw bad_alloc
; 29   : 		_Result = static_cast<size_t>(-1);

	mov	QWORD PTR _Result$[rbp], -1
$LN2@Get_size_o:

; 30   : 		}
; 31   : 
; 32   : 	return (_Result);

	mov	rax, QWORD PTR _Result$[rbp]

; 33   : 	}

	lea	rsp, QWORD PTR [rbp+264]
	pop	rdi
	pop	rbp
	ret	0
??$_Get_size_of_n@$07@std@@YA_K_K@Z ENDP		; std::_Get_size_of_n<8>
_TEXT	ENDS
; Function compile flags: /Odtp /RTCsu /ZI
; File c:\program files (x86)\microsoft visual studio\2017\community\vc\tools\msvc\14.16.27023\include\xmemory
;	COMDAT ??$_Uninitialized_move@PEAPEAVbus_device@@PEAPEAV1@V?$allocator@PEAVbus_device@@@std@@@std@@YAPEAPEAVbus_device@@QEAPEAV1@0PEAPEAV1@AEAV?$allocator@PEAVbus_device@@@0@@Z
_TEXT	SEGMENT
_UFirst$ = 8
_ULast$ = 40
_UDest$ = 72
$T6 = 292
$T7 = 324
__$ArrayPad$ = 344
_First$ = 384
_Last$ = 392
_Dest$ = 400
_Al$ = 408
??$_Uninitialized_move@PEAPEAVbus_device@@PEAPEAV1@V?$allocator@PEAVbus_device@@@std@@@std@@YAPEAPEAVbus_device@@QEAPEAV1@0PEAPEAV1@AEAV?$allocator@PEAVbus_device@@@0@@Z PROC ; std::_Uninitialized_move<bus_device * *,bus_device * *,std::allocator<bus_device *> >, COMDAT

; 251  : 	{	// move [_First, _Last) to raw _Dest, using _Al

$LN3:
	mov	QWORD PTR [rsp+32], r9
	mov	QWORD PTR [rsp+24], r8
	mov	QWORD PTR [rsp+16], rdx
	mov	QWORD PTR [rsp+8], rcx
	push	rbp
	push	rdi
	sub	rsp, 408				; 00000198H
	lea	rbp, QWORD PTR [rsp+48]
	mov	rdi, rsp
	mov	ecx, 102				; 00000066H
	mov	eax, -858993460				; ccccccccH
	rep stosd
	mov	rcx, QWORD PTR [rsp+440]
	mov	rax, QWORD PTR __security_cookie
	xor	rax, rbp
	mov	QWORD PTR __$ArrayPad$[rbp], rax
	lea	rcx, OFFSET FLAT:__8FA60561_xmemory
	call	__CheckForDebuggerJustMyCode

; 252  : 		// note: only called internally from elsewhere in the STL
; 253  : 	const auto _UFirst = _Get_unwrapped(_First);

	mov	rcx, QWORD PTR _First$[rbp]
	call	??$_Get_unwrapped@PEAVbus_device@@@std@@YAPEAPEAVbus_device@@QEAPEAV1@@Z ; std::_Get_unwrapped<bus_device *>
	mov	QWORD PTR _UFirst$[rbp], rax

; 254  : 	const auto _ULast = _Get_unwrapped(_Last);

	mov	rcx, QWORD PTR _Last$[rbp]
	call	??$_Get_unwrapped@PEAVbus_device@@@std@@YAPEAPEAVbus_device@@QEAPEAV1@@Z ; std::_Get_unwrapped<bus_device *>
	mov	QWORD PTR _ULast$[rbp], rax

; 255  : 	const auto _UDest = _Get_unwrapped_n(_Dest, _Idl_distance<_InIt>(_UFirst, _ULast));

	lea	rdx, QWORD PTR _ULast$[rbp]
	lea	rcx, QWORD PTR _UFirst$[rbp]
	call	??$_Idl_distance@PEAPEAVbus_device@@PEAPEAV1@@std@@YA@AEBQEAPEAVbus_device@@0@Z ; std::_Idl_distance<bus_device * *,bus_device * *>
	mov	rdx, rax
	mov	rcx, QWORD PTR _Dest$[rbp]
	call	??$_Get_unwrapped_n@PEAVbus_device@@_J$0A@@std@@YAPEAPEAVbus_device@@QEAPEAV1@_J@Z ; std::_Get_unwrapped_n<bus_device *,__int64,0>
	mov	QWORD PTR _UDest$[rbp], rax

; 256  : 	_Seek_wrapped(_Dest,

	lea	r8, QWORD PTR _UDest$[rbp]
	lea	rdx, QWORD PTR _UFirst$[rbp]
	lea	rcx, QWORD PTR $T7[rbp]
	call	??$_Ptr_move_cat@PEAVbus_device@@PEAV1@@std@@YA?AU_Really_trivial_ptr_iterator_tag@0@AEBQEAPEAVbus_device@@0@Z ; std::_Ptr_move_cat<bus_device *,bus_device *>
	movzx	ecx, BYTE PTR $T6[rbp]
	mov	BYTE PTR [rsp+40], cl
	movzx	eax, BYTE PTR [rax]
	mov	BYTE PTR [rsp+32], al
	mov	r9, QWORD PTR _Al$[rbp]
	mov	r8, QWORD PTR _UDest$[rbp]
	mov	rdx, QWORD PTR _ULast$[rbp]
	mov	rcx, QWORD PTR _UFirst$[rbp]
	call	??$_Uninitialized_move_al_unchecked@PEAVbus_device@@PEAV1@V?$allocator@PEAVbus_device@@@std@@@std@@YAPEAPEAVbus_device@@QEAPEAV1@00AEAV?$allocator@PEAVbus_device@@@0@U_Really_trivial_ptr_iterator_tag@0@U?$integral_constant@_N$00@0@@Z ; std::_Uninitialized_move_al_unchecked<bus_device *,bus_device *,std::allocator<bus_device *> >
	mov	rdx, rax
	lea	rcx, QWORD PTR _Dest$[rbp]
	call	??$_Seek_wrapped@PEAVbus_device@@@std@@YAXAEAPEAPEAVbus_device@@QEAPEAV1@@Z ; std::_Seek_wrapped<bus_device *>

; 257  : 		_Uninitialized_move_al_unchecked(_UFirst, _ULast, _UDest, _Al,
; 258  : 			_Ptr_move_cat(_UFirst, _UDest),
; 259  : 			_Uses_default_construct_t<_Alloc, decltype(_Unfancy(_UDest)), decltype(_STD move(*_UFirst))>()));
; 260  : 	return (_Dest);

	mov	rax, QWORD PTR _Dest$[rbp]

; 261  : 	}

	mov	rdi, rax
	lea	rcx, QWORD PTR [rbp-48]
	lea	rdx, OFFSET FLAT:??$_Uninitialized_move@PEAPEAVbus_device@@PEAPEAV1@V?$allocator@PEAVbus_device@@@std@@@std@@YAPEAPEAVbus_device@@QEAPEAV1@0PEAPEAV1@AEAV?$allocator@PEAVbus_device@@@0@@Z$rtcFrameData
	call	_RTC_CheckStackVars
	mov	rax, rdi
	mov	rcx, QWORD PTR __$ArrayPad$[rbp]
	xor	rcx, rbp
	call	__security_check_cookie
	lea	rsp, QWORD PTR [rbp+360]
	pop	rdi
	pop	rbp
	ret	0
??$_Uninitialized_move@PEAPEAVbus_device@@PEAPEAV1@V?$allocator@PEAVbus_device@@@std@@@std@@YAPEAPEAVbus_device@@QEAPEAV1@0PEAPEAV1@AEAV?$allocator@PEAVbus_device@@@0@@Z ENDP ; std::_Uninitialized_move<bus_device * *,bus_device * *,std::allocator<bus_device *> >
_TEXT	ENDS
; Function compile flags: /Odtp /RTCsu /ZI
; File c:\program files (x86)\microsoft visual studio\2017\community\vc\tools\msvc\14.16.27023\include\xmemory0
;	COMDAT ??$_Destroy_range1@V?$allocator@PEAVbus_device@@@std@@@std@@YAXPEAPEAVbus_device@@0AEAV?$allocator@PEAVbus_device@@@0@U?$integral_constant@_N$00@0@@Z
_TEXT	SEGMENT
__formal$ = 224
__formal$ = 232
__formal$ = 240
__formal$ = 248
??$_Destroy_range1@V?$allocator@PEAVbus_device@@@std@@@std@@YAXPEAPEAVbus_device@@0AEAV?$allocator@PEAVbus_device@@@0@U?$integral_constant@_N$00@0@@Z PROC ; std::_Destroy_range1<std::allocator<bus_device *> >, COMDAT

; 1145 : 	{	// destroy [_First, _Last), trivially destructible and default destroy

$LN3:
	mov	BYTE PTR [rsp+32], r9b
	mov	QWORD PTR [rsp+24], r8
	mov	QWORD PTR [rsp+16], rdx
	mov	QWORD PTR [rsp+8], rcx
	push	rbp
	push	rdi
	sub	rsp, 232				; 000000e8H
	lea	rbp, QWORD PTR [rsp+32]
	mov	rdi, rsp
	mov	ecx, 58					; 0000003aH
	mov	eax, -858993460				; ccccccccH
	rep stosd
	mov	rcx, QWORD PTR [rsp+264]
	lea	rcx, OFFSET FLAT:__1CE3C767_xmemory0
	call	__CheckForDebuggerJustMyCode

; 1146 : 		// nothing to do
; 1147 : 	}

	lea	rsp, QWORD PTR [rbp+200]
	pop	rdi
	pop	rbp
	ret	0
??$_Destroy_range1@V?$allocator@PEAVbus_device@@@std@@@std@@YAXPEAPEAVbus_device@@0AEAV?$allocator@PEAVbus_device@@@0@U?$integral_constant@_N$00@0@@Z ENDP ; std::_Destroy_range1<std::allocator<bus_device *> >
_TEXT	ENDS
; Function compile flags: /Odtp /RTCsu /ZI
; File c:\program files (x86)\microsoft visual studio\2017\community\vc\tools\msvc\14.16.27023\include\type_traits
;	COMDAT ??$forward@U_Container_proxy@std@@@std@@YA$$QEAU_Container_proxy@0@AEAU10@@Z
_TEXT	SEGMENT
$T1 = 200
_Arg$ = 256
??$forward@U_Container_proxy@std@@@std@@YA$$QEAU_Container_proxy@0@AEAU10@@Z PROC ; std::forward<std::_Container_proxy>, COMDAT

; 1573 : 	{	// forward an lvalue as either an lvalue or an rvalue

$LN3:
	mov	QWORD PTR [rsp+8], rcx
	push	rbp
	push	rdi
	sub	rsp, 264				; 00000108H
	lea	rbp, QWORD PTR [rsp+32]
	mov	rdi, rsp
	mov	ecx, 66					; 00000042H
	mov	eax, -858993460				; ccccccccH
	rep stosd
	mov	rcx, QWORD PTR [rsp+296]
	mov	QWORD PTR $T1[rbp], -2
	lea	rcx, OFFSET FLAT:__5ECFF36E_type_traits
	call	__CheckForDebuggerJustMyCode
	npad	1

; 1574 : 	return (static_cast<_Ty&&>(_Arg));

	mov	rax, QWORD PTR _Arg$[rbp]

; 1575 : 	}

	lea	rsp, QWORD PTR [rbp+232]
	pop	rdi
	pop	rbp
	ret	0
??$forward@U_Container_proxy@std@@@std@@YA$$QEAU_Container_proxy@0@AEAU10@@Z ENDP ; std::forward<std::_Container_proxy>
_TEXT	ENDS
; Function compile flags: /Odtp /RTCsu /ZI
; File c:\program files (x86)\microsoft visual studio\2017\community\vc\tools\msvc\14.16.27023\include\xmemory0
;	COMDAT ??$_Allocate_manually_vector_aligned@U_Default_allocate_traits@std@@@std@@YAPEAX_K@Z
_TEXT	SEGMENT
_Block_size$ = 8
_Ptr_container$ = 40
_Ptr$ = 72
_Bytes$ = 320
??$_Allocate_manually_vector_aligned@U_Default_allocate_traits@std@@@std@@YAPEAX_K@Z PROC ; std::_Allocate_manually_vector_aligned<std::_Default_allocate_traits>, COMDAT

; 92   : 	{	// allocate _Bytes manually aligned to at least _Big_allocation_alignment

$LN13:
	mov	QWORD PTR [rsp+8], rcx
	push	rbp
	push	rdi
	sub	rsp, 344				; 00000158H
	lea	rbp, QWORD PTR [rsp+48]
	mov	rdi, rsp
	mov	ecx, 86					; 00000056H
	mov	eax, -858993460				; ccccccccH
	rep stosd
	mov	rcx, QWORD PTR [rsp+376]
	lea	rcx, OFFSET FLAT:__1CE3C767_xmemory0
	call	__CheckForDebuggerJustMyCode

; 93   : 	size_t _Block_size = _Non_user_size + _Bytes;

	mov	rax, QWORD PTR _Bytes$[rbp]
	add	rax, 47					; 0000002fH
	mov	QWORD PTR _Block_size$[rbp], rax

; 94   : 	if (_Block_size <= _Bytes)

	mov	rax, QWORD PTR _Bytes$[rbp]
	cmp	QWORD PTR _Block_size$[rbp], rax
	ja	SHORT $LN8@Allocate_m

; 95   : 		{	// add overflow, try allocating all of memory and assume the
; 96   : 			// allocation function will throw bad_alloc
; 97   : 		_Block_size = static_cast<size_t>(-1);

	mov	QWORD PTR _Block_size$[rbp], -1
$LN8@Allocate_m:

; 98   : 		}
; 99   : 
; 100  : 	const uintptr_t _Ptr_container = reinterpret_cast<uintptr_t>(_Traits::_Allocate(_Block_size));

	mov	rcx, QWORD PTR _Block_size$[rbp]
	call	?_Allocate@_Default_allocate_traits@std@@SAPEAX_K@Z ; std::_Default_allocate_traits::_Allocate
	mov	QWORD PTR _Ptr_container$[rbp], rax
$LN4@Allocate_m:

; 101  : 	_STL_VERIFY(_Ptr_container != 0, "invalid argument");	// validate even in release since we're doing p[-1]

	cmp	QWORD PTR _Ptr_container$[rbp], 0
	je	SHORT $LN9@Allocate_m
	jmp	SHORT $LN10@Allocate_m
$LN9@Allocate_m:
$LN7@Allocate_m:
	lea	rax, OFFSET FLAT:??_C@_0BB@FCMFBGOM@invalid?5argument@
	mov	QWORD PTR [rsp+40], rax
	lea	rax, OFFSET FLAT:??_C@_02DKCKIIND@?$CFs@
	mov	QWORD PTR [rsp+32], rax
	xor	r9d, r9d
	mov	r8d, 101				; 00000065H
	lea	rdx, OFFSET FLAT:??_C@_0GJ@FFDBCFBF@c?3?2program?5files?5?$CIx86?$CJ?2microsof@
	mov	ecx, 2
	call	QWORD PTR __imp__CrtDbgReport
	cmp	eax, 1
	jne	SHORT $LN12@Allocate_m
	int	3
	xor	eax, eax
$LN12@Allocate_m:
	mov	QWORD PTR [rsp+32], 0
	mov	r9d, 101				; 00000065H
	lea	r8, OFFSET FLAT:??_C@_1NC@PIOGAKBO@?$AAc?$AA?3?$AA?2?$AAp?$AAr?$AAo?$AAg?$AAr?$AAa?$AAm?$AA?5?$AAf?$AAi?$AAl?$AAe@
	lea	rdx, OFFSET FLAT:??_C@_1EO@GFNCMDLA@?$AAs?$AAt?$AAd?$AA?3?$AA?3?$AA_?$AAA?$AAl?$AAl?$AAo?$AAc?$AAa?$AAt?$AAe?$AA_@
	lea	rcx, OFFSET FLAT:??_C@_1CG@JNLFBNGN@?$AA?$CC?$AAi?$AAn?$AAv?$AAa?$AAl?$AAi?$AAd?$AA?5?$AAa?$AAr?$AAg?$AAu?$AAm?$AAe@
	call	QWORD PTR __imp__invalid_parameter
	xor	eax, eax
	test	eax, eax
	jne	SHORT $LN7@Allocate_m
$LN10@Allocate_m:
	xor	eax, eax
	test	eax, eax
	jne	SHORT $LN4@Allocate_m

; 102  : 	void * const _Ptr = reinterpret_cast<void *>((_Ptr_container + _Non_user_size)
; 103  : 		& ~(_Big_allocation_alignment - 1));

	mov	rax, QWORD PTR _Ptr_container$[rbp]
	add	rax, 47					; 0000002fH
	and	rax, -32				; ffffffffffffffe0H
	mov	QWORD PTR _Ptr$[rbp], rax

; 104  : 	static_cast<uintptr_t *>(_Ptr)[-1] = _Ptr_container;

	mov	eax, 8
	imul	rax, rax, -1
	mov	rcx, QWORD PTR _Ptr$[rbp]
	mov	rdx, QWORD PTR _Ptr_container$[rbp]
	mov	QWORD PTR [rcx+rax], rdx

; 105  : 
; 106  :   #ifdef _DEBUG
; 107  : 	static_cast<uintptr_t *>(_Ptr)[-2] = _Big_allocation_sentinel;

	mov	eax, 8
	imul	rax, rax, -2
	mov	rcx, QWORD PTR _Ptr$[rbp]
	mov	rdx, -361700864190383366		; fafafafafafafafaH
	mov	QWORD PTR [rcx+rax], rdx

; 108  :   #endif /* _DEBUG */
; 109  : 	return (_Ptr);

	mov	rax, QWORD PTR _Ptr$[rbp]

; 110  : 	}

	lea	rsp, QWORD PTR [rbp+296]
	pop	rdi
	pop	rbp
	ret	0
??$_Allocate_manually_vector_aligned@U_Default_allocate_traits@std@@@std@@YAPEAX_K@Z ENDP ; std::_Allocate_manually_vector_aligned<std::_Default_allocate_traits>
_TEXT	ENDS
; Function compile flags: /Odtp /RTCsu /ZI
; File c:\program files (x86)\microsoft visual studio\2017\community\vc\tools\msvc\14.16.27023\include\xutility
;	COMDAT ??$_Move_unchecked1@PEAPEAVbus_device@@PEAPEAV1@@std@@YAPEAPEAVbus_device@@PEAPEAV1@00U_Trivially_copyable_ptr_iterator_tag@0@@Z
_TEXT	SEGMENT
_First$ = 224
_Last$ = 232
_Dest$ = 240
__formal$ = 248
??$_Move_unchecked1@PEAPEAVbus_device@@PEAPEAV1@@std@@YAPEAPEAVbus_device@@PEAPEAV1@00U_Trivially_copyable_ptr_iterator_tag@0@@Z PROC ; std::_Move_unchecked1<bus_device * *,bus_device * *>, COMDAT

; 2726 : 	{	// move [_First, _Last) to [_Dest, ...), memmove optimization

$LN3:
	mov	BYTE PTR [rsp+32], r9b
	mov	QWORD PTR [rsp+24], r8
	mov	QWORD PTR [rsp+16], rdx
	mov	QWORD PTR [rsp+8], rcx
	push	rbp
	push	rdi
	sub	rsp, 232				; 000000e8H
	lea	rbp, QWORD PTR [rsp+32]
	mov	rdi, rsp
	mov	ecx, 58					; 0000003aH
	mov	eax, -858993460				; ccccccccH
	rep stosd
	mov	rcx, QWORD PTR [rsp+264]
	lea	rcx, OFFSET FLAT:__CDB00636_xutility
	call	__CheckForDebuggerJustMyCode

; 2727 : 	return (_Copy_memmove(_First, _Last, _Dest));

	mov	r8, QWORD PTR _Dest$[rbp]
	mov	rdx, QWORD PTR _Last$[rbp]
	mov	rcx, QWORD PTR _First$[rbp]
	call	??$_Copy_memmove@PEAPEAVbus_device@@PEAPEAV1@@std@@YAPEAPEAVbus_device@@PEAPEAV1@00@Z ; std::_Copy_memmove<bus_device * *,bus_device * *>

; 2728 : 	}

	lea	rsp, QWORD PTR [rbp+200]
	pop	rdi
	pop	rbp
	ret	0
??$_Move_unchecked1@PEAPEAVbus_device@@PEAPEAV1@@std@@YAPEAPEAVbus_device@@PEAPEAV1@00U_Trivially_copyable_ptr_iterator_tag@0@@Z ENDP ; std::_Move_unchecked1<bus_device * *,bus_device * *>
_TEXT	ENDS
; Function compile flags: /Odtp /RTCsu /ZI
; File c:\program files (x86)\microsoft visual studio\2017\community\vc\tools\msvc\14.16.27023\include\xutility
;	COMDAT ??$_Ptr_move_cat@PEAVbus_device@@PEAV1@@std@@YA?AU_Really_trivial_ptr_iterator_tag@0@AEBQEAPEAVbus_device@@0@Z
_TEXT	SEGMENT
__$ReturnUdt$ = 224
__formal$ = 232
__formal$ = 240
??$_Ptr_move_cat@PEAVbus_device@@PEAV1@@std@@YA?AU_Really_trivial_ptr_iterator_tag@0@AEBQEAPEAVbus_device@@0@Z PROC ; std::_Ptr_move_cat<bus_device *,bus_device *>, COMDAT

; 1086 : 	{	// return pointer move optimization category for pointers

$LN3:
	mov	QWORD PTR [rsp+24], r8
	mov	QWORD PTR [rsp+16], rdx
	mov	QWORD PTR [rsp+8], rcx
	push	rbp
	push	rdi
	sub	rsp, 232				; 000000e8H
	lea	rbp, QWORD PTR [rsp+32]
	mov	rdi, rsp
	mov	ecx, 58					; 0000003aH
	mov	eax, -858993460				; ccccccccH
	rep stosd
	mov	rcx, QWORD PTR [rsp+264]
	lea	rcx, OFFSET FLAT:__CDB00636_xutility
	call	__CheckForDebuggerJustMyCode

; 1087 : 	return {};

	mov	rax, QWORD PTR __$ReturnUdt$[rbp]

; 1088 : 	}

	lea	rsp, QWORD PTR [rbp+200]
	pop	rdi
	pop	rbp
	ret	0
??$_Ptr_move_cat@PEAVbus_device@@PEAV1@@std@@YA?AU_Really_trivial_ptr_iterator_tag@0@AEBQEAPEAVbus_device@@0@Z ENDP ; std::_Ptr_move_cat<bus_device *,bus_device *>
_TEXT	ENDS
; Function compile flags: /Odtp /RTCsu /ZI
; File c:\program files (x86)\microsoft visual studio\2017\community\vc\tools\msvc\14.16.27023\include\xmemory0
;	COMDAT ??$_Get_size_of_n@$0BA@@std@@YA_K_K@Z
_TEXT	SEGMENT
_Max_possible$ = 8
_Result$ = 40
_Count$ = 288
??$_Get_size_of_n@$0BA@@std@@YA_K_K@Z PROC		; std::_Get_size_of_n<16>, COMDAT

; 23   : 	{	// gets the size of _Count copies of a type sized _Ty_size

$LN4:
	mov	QWORD PTR [rsp+8], rcx
	push	rbp
	push	rdi
	sub	rsp, 296				; 00000128H
	lea	rbp, QWORD PTR [rsp+32]
	mov	rdi, rsp
	mov	ecx, 74					; 0000004aH
	mov	eax, -858993460				; ccccccccH
	rep stosd
	mov	rcx, QWORD PTR [rsp+328]
	lea	rcx, OFFSET FLAT:__1CE3C767_xmemory0
	call	__CheckForDebuggerJustMyCode

; 24   : 	constexpr size_t _Max_possible = static_cast<size_t>(-1) / _Ty_size;

	mov	rax, 1152921504606846975		; 0fffffffffffffffH
	mov	QWORD PTR _Max_possible$[rbp], rax

; 25   : 	size_t _Result = _Count * _Ty_size;

	imul	rax, QWORD PTR _Count$[rbp], 16
	mov	QWORD PTR _Result$[rbp], rax

; 26   : 	if (_Max_possible < _Count)

	mov	rax, 1152921504606846975		; 0fffffffffffffffH
	cmp	QWORD PTR _Count$[rbp], rax
	jbe	SHORT $LN2@Get_size_o

; 27   : 		{	// multiply overflow, try allocating all of memory and assume the
; 28   : 			// allocation function will throw bad_alloc
; 29   : 		_Result = static_cast<size_t>(-1);

	mov	QWORD PTR _Result$[rbp], -1
$LN2@Get_size_o:

; 30   : 		}
; 31   : 
; 32   : 	return (_Result);

	mov	rax, QWORD PTR _Result$[rbp]

; 33   : 	}

	lea	rsp, QWORD PTR [rbp+264]
	pop	rdi
	pop	rbp
	ret	0
??$_Get_size_of_n@$0BA@@std@@YA_K_K@Z ENDP		; std::_Get_size_of_n<16>
_TEXT	ENDS
; Function compile flags: /Odtp /RTCsu /ZI
; File c:\program files (x86)\microsoft visual studio\2017\community\vc\tools\msvc\14.16.27023\include\xmemory0
;	COMDAT ??$_Destroy_range@V?$allocator@PEAVbus_device@@@std@@@std@@YAXPEAPEAVbus_device@@0AEAV?$allocator@PEAVbus_device@@@0@@Z
_TEXT	SEGMENT
$T1 = 196
_First$ = 256
_Last$ = 264
_Al$ = 272
??$_Destroy_range@V?$allocator@PEAVbus_device@@@std@@@std@@YAXPEAPEAVbus_device@@0AEAV?$allocator@PEAVbus_device@@@0@@Z PROC ; std::_Destroy_range<std::allocator<bus_device *> >, COMDAT

; 1154 : 	{	// destroy [_First, _Last), choose optimization

$LN3:
	mov	QWORD PTR [rsp+24], r8
	mov	QWORD PTR [rsp+16], rdx
	mov	QWORD PTR [rsp+8], rcx
	push	rbp
	push	rdi
	sub	rsp, 264				; 00000108H
	lea	rbp, QWORD PTR [rsp+32]
	mov	rdi, rsp
	mov	ecx, 66					; 00000042H
	mov	eax, -858993460				; ccccccccH
	rep stosd
	mov	rcx, QWORD PTR [rsp+296]
	lea	rcx, OFFSET FLAT:__1CE3C767_xmemory0
	call	__CheckForDebuggerJustMyCode

; 1155 : 		// note that this is an optimization for debug mode codegen;
; 1156 : 		// in release mode the BE removes all of this
; 1157 : 	using _Val = typename _Alloc::value_type;
; 1158 : 	_Destroy_range1(_First, _Last, _Al, bool_constant<conjunction_v<

	lea	rax, QWORD PTR $T1[rbp]
	mov	rdi, rax
	xor	eax, eax
	mov	ecx, 1
	rep stosb
	movzx	r9d, BYTE PTR $T1[rbp]
	mov	r8, QWORD PTR _Al$[rbp]
	mov	rdx, QWORD PTR _Last$[rbp]
	mov	rcx, QWORD PTR _First$[rbp]
	call	??$_Destroy_range1@V?$allocator@PEAVbus_device@@@std@@@std@@YAXPEAPEAVbus_device@@0AEAV?$allocator@PEAVbus_device@@@0@U?$integral_constant@_N$00@0@@Z ; std::_Destroy_range1<std::allocator<bus_device *> >

; 1159 : 		is_trivially_destructible<_Val>,
; 1160 : 		_Uses_default_destroy<_Alloc, _Val *>>>{});
; 1161 : 	}

	lea	rsp, QWORD PTR [rbp+232]
	pop	rdi
	pop	rbp
	ret	0
??$_Destroy_range@V?$allocator@PEAVbus_device@@@std@@@std@@YAXPEAPEAVbus_device@@0AEAV?$allocator@PEAVbus_device@@@0@@Z ENDP ; std::_Destroy_range<std::allocator<bus_device *> >
_TEXT	ENDS
; Function compile flags: /Odtp /RTCsu /ZI
; File c:\program files (x86)\microsoft visual studio\2017\community\vc\tools\msvc\14.16.27023\include\xmemory0
;	COMDAT ??$construct@U_Container_proxy@std@@U12@@?$_Default_allocator_traits@V?$allocator@U_Container_proxy@std@@@std@@@std@@SAXAEAV?$allocator@U_Container_proxy@std@@@1@QEAU_Container_proxy@1@$$QEAU31@@Z
_TEXT	SEGMENT
$T1 = 200
__formal$ = 256
_Ptr$ = 264
<_Args_0>$ = 272
??$construct@U_Container_proxy@std@@U12@@?$_Default_allocator_traits@V?$allocator@U_Container_proxy@std@@@std@@@std@@SAXAEAV?$allocator@U_Container_proxy@std@@@1@QEAU_Container_proxy@1@$$QEAU31@@Z PROC ; std::_Default_allocator_traits<std::allocator<std::_Container_proxy> >::construct<std::_Container_proxy,std::_Container_proxy>, COMDAT

; 879  : 		{	// construct _Objty(_Types...) at _Ptr

$LN3:
	mov	QWORD PTR [rsp+24], r8
	mov	QWORD PTR [rsp+16], rdx
	mov	QWORD PTR [rsp+8], rcx
	push	rbp
	push	rsi
	push	rdi
	sub	rsp, 256				; 00000100H
	lea	rbp, QWORD PTR [rsp+32]
	mov	rdi, rsp
	mov	ecx, 64					; 00000040H
	mov	eax, -858993460				; ccccccccH
	rep stosd
	mov	rcx, QWORD PTR [rsp+296]
	lea	rcx, OFFSET FLAT:__1CE3C767_xmemory0
	call	__CheckForDebuggerJustMyCode
	mov	rdx, QWORD PTR _Ptr$[rbp]
	mov	ecx, 16
	call	??2@YAPEAX_KPEAX@Z			; operator new
	mov	QWORD PTR $T1[rbp], rax
	mov	rcx, QWORD PTR <_Args_0>$[rbp]
	call	??$forward@U_Container_proxy@std@@@std@@YA$$QEAU_Container_proxy@0@AEAU10@@Z ; std::forward<std::_Container_proxy>
	mov	rdi, QWORD PTR $T1[rbp]
	mov	rsi, rax
	mov	ecx, 16
	rep movsb

; 880  : 		::new (const_cast<void *>(static_cast<const volatile void *>(_Ptr)))
; 881  : 			_Objty(_STD forward<_Types>(_Args)...);
; 882  : 		}

	lea	rsp, QWORD PTR [rbp+224]
	pop	rdi
	pop	rsi
	pop	rbp
	ret	0
??$construct@U_Container_proxy@std@@U12@@?$_Default_allocator_traits@V?$allocator@U_Container_proxy@std@@@std@@@std@@SAXAEAV?$allocator@U_Container_proxy@std@@@1@QEAU_Container_proxy@1@$$QEAU31@@Z ENDP ; std::_Default_allocator_traits<std::allocator<std::_Container_proxy> >::construct<std::_Container_proxy,std::_Container_proxy>
_TEXT	ENDS
; Function compile flags: /Odtp /RTCsu /ZI
; File c:\program files (x86)\microsoft visual studio\2017\community\vc\tools\msvc\14.16.27023\include\xstddef
;	COMDAT ??$_Unfancy@U_Container_proxy@std@@@std@@YAPEAU_Container_proxy@0@PEAU10@@Z
_TEXT	SEGMENT
_Ptr$ = 224
??$_Unfancy@U_Container_proxy@std@@@std@@YAPEAU_Container_proxy@0@PEAU10@@Z PROC ; std::_Unfancy<std::_Container_proxy>, COMDAT

; 345  : 	{	// do nothing for plain pointers

$LN3:
	mov	QWORD PTR [rsp+8], rcx
	push	rbp
	push	rdi
	sub	rsp, 232				; 000000e8H
	lea	rbp, QWORD PTR [rsp+32]
	mov	rdi, rsp
	mov	ecx, 58					; 0000003aH
	mov	eax, -858993460				; ccccccccH
	rep stosd
	mov	rcx, QWORD PTR [rsp+264]
	lea	rcx, OFFSET FLAT:__122CF1B0_xstddef
	call	__CheckForDebuggerJustMyCode

; 346  : 	return (_Ptr);

	mov	rax, QWORD PTR _Ptr$[rbp]

; 347  : 	}

	lea	rsp, QWORD PTR [rbp+200]
	pop	rdi
	pop	rbp
	ret	0
??$_Unfancy@U_Container_proxy@std@@@std@@YAPEAU_Container_proxy@0@PEAU10@@Z ENDP ; std::_Unfancy<std::_Container_proxy>
_TEXT	ENDS
; Function compile flags: /Odtp /RTCsu /ZI
; File c:\program files (x86)\microsoft visual studio\2017\community\vc\tools\msvc\14.16.27023\include\xmemory0
;	COMDAT ??$_Deallocate_plain@V?$allocator@U_Container_proxy@std@@@std@@$0A@@std@@YAXAEAV?$allocator@U_Container_proxy@std@@@0@QEAU_Container_proxy@0@@Z
_TEXT	SEGMENT
_Al$ = 224
_Ptr$ = 232
??$_Deallocate_plain@V?$allocator@U_Container_proxy@std@@@std@@$0A@@std@@YAXAEAV?$allocator@U_Container_proxy@std@@@0@QEAU_Container_proxy@0@@Z PROC ; std::_Deallocate_plain<std::allocator<std::_Container_proxy>,0>, COMDAT

; 1212 : 	{	// deallocate a plain pointer using an allocator, non-fancy pointers special case

$LN3:
	mov	QWORD PTR [rsp+16], rdx
	mov	QWORD PTR [rsp+8], rcx
	push	rbp
	push	rdi
	sub	rsp, 232				; 000000e8H
	lea	rbp, QWORD PTR [rsp+32]
	mov	rdi, rsp
	mov	ecx, 58					; 0000003aH
	mov	eax, -858993460				; ccccccccH
	rep stosd
	mov	rcx, QWORD PTR [rsp+264]
	lea	rcx, OFFSET FLAT:__1CE3C767_xmemory0
	call	__CheckForDebuggerJustMyCode

; 1213 : 	allocator_traits<_Alloc>::deallocate(_Al, _Ptr, 1);

	mov	r8d, 1
	mov	rdx, QWORD PTR _Ptr$[rbp]
	mov	rcx, QWORD PTR _Al$[rbp]
	call	?deallocate@?$_Default_allocator_traits@V?$allocator@U_Container_proxy@std@@@std@@@std@@SAXAEAV?$allocator@U_Container_proxy@std@@@2@QEAU_Container_proxy@2@_K@Z ; std::_Default_allocator_traits<std::allocator<std::_Container_proxy> >::deallocate

; 1214 : 	}

	lea	rsp, QWORD PTR [rbp+200]
	pop	rdi
	pop	rbp
	ret	0
??$_Deallocate_plain@V?$allocator@U_Container_proxy@std@@@std@@$0A@@std@@YAXAEAV?$allocator@U_Container_proxy@std@@@0@QEAU_Container_proxy@0@@Z ENDP ; std::_Deallocate_plain<std::allocator<std::_Container_proxy>,0>
_TEXT	ENDS
; Function compile flags: /Odtp /RTCsu /ZI
; File c:\program files (x86)\microsoft visual studio\2017\community\vc\tools\msvc\14.16.27023\include\xmemory0
;	COMDAT ??$destroy@U_Container_proxy@std@@@?$_Default_allocator_traits@V?$allocator@U_Container_proxy@std@@@std@@@std@@SAXAEAV?$allocator@U_Container_proxy@std@@@1@QEAU_Container_proxy@1@@Z
_TEXT	SEGMENT
__formal$ = 224
_Ptr$ = 232
??$destroy@U_Container_proxy@std@@@?$_Default_allocator_traits@V?$allocator@U_Container_proxy@std@@@std@@@std@@SAXAEAV?$allocator@U_Container_proxy@std@@@1@QEAU_Container_proxy@1@@Z PROC ; std::_Default_allocator_traits<std::allocator<std::_Container_proxy> >::destroy<std::_Container_proxy>, COMDAT

; 886  : 		{	// destroy object at _Ptr

$LN3:
	mov	QWORD PTR [rsp+16], rdx
	mov	QWORD PTR [rsp+8], rcx
	push	rbp
	push	rdi
	sub	rsp, 232				; 000000e8H
	lea	rbp, QWORD PTR [rsp+32]
	mov	rdi, rsp
	mov	ecx, 58					; 0000003aH
	mov	eax, -858993460				; ccccccccH
	rep stosd
	mov	rcx, QWORD PTR [rsp+264]
	lea	rcx, OFFSET FLAT:__1CE3C767_xmemory0
	call	__CheckForDebuggerJustMyCode

; 887  : 		_Ptr->~_Uty();
; 888  : 		}

	lea	rsp, QWORD PTR [rbp+200]
	pop	rdi
	pop	rbp
	ret	0
??$destroy@U_Container_proxy@std@@@?$_Default_allocator_traits@V?$allocator@U_Container_proxy@std@@@std@@@std@@SAXAEAV?$allocator@U_Container_proxy@std@@@1@QEAU_Container_proxy@1@@Z ENDP ; std::_Default_allocator_traits<std::allocator<std::_Container_proxy> >::destroy<std::_Container_proxy>
_TEXT	ENDS
; Function compile flags: /Odtp /RTCsu /ZI
; File c:\program files (x86)\microsoft visual studio\2017\community\vc\tools\msvc\14.16.27023\include\xmemory0
;	COMDAT ?deallocate@?$_Default_allocator_traits@V?$allocator@U_Container_proxy@std@@@std@@@std@@SAXAEAV?$allocator@U_Container_proxy@std@@@2@QEAU_Container_proxy@2@_K@Z
_TEXT	SEGMENT
__formal$ = 224
_Ptr$ = 232
_Count$ = 240
?deallocate@?$_Default_allocator_traits@V?$allocator@U_Container_proxy@std@@@std@@@std@@SAXAEAV?$allocator@U_Container_proxy@std@@@2@QEAU_Container_proxy@2@_K@Z PROC ; std::_Default_allocator_traits<std::allocator<std::_Container_proxy> >::deallocate, COMDAT

; 871  : 		{	// deallocate _Count elements at _Ptr

$LN3:
	mov	QWORD PTR [rsp+24], r8
	mov	QWORD PTR [rsp+16], rdx
	mov	QWORD PTR [rsp+8], rcx
	push	rbp
	push	rdi
	sub	rsp, 232				; 000000e8H
	lea	rbp, QWORD PTR [rsp+32]
	mov	rdi, rsp
	mov	ecx, 58					; 0000003aH
	mov	eax, -858993460				; ccccccccH
	rep stosd
	mov	rcx, QWORD PTR [rsp+264]
	lea	rcx, OFFSET FLAT:__1CE3C767_xmemory0
	call	__CheckForDebuggerJustMyCode

; 872  : 		// no overflow check on the following multiply; we assume _Allocate did that check
; 873  : 		_Deallocate<_New_alignof<value_type>>(_Ptr, sizeof(value_type) * _Count);

	imul	rax, QWORD PTR _Count$[rbp], 16
	mov	rdx, rax
	mov	rcx, QWORD PTR _Ptr$[rbp]
	call	??$_Deallocate@$0BA@$0A@@std@@YAXPEAX_K@Z ; std::_Deallocate<16,0>

; 874  : 		}

	lea	rsp, QWORD PTR [rbp+200]
	pop	rdi
	pop	rbp
	ret	0
?deallocate@?$_Default_allocator_traits@V?$allocator@U_Container_proxy@std@@@std@@@std@@SAXAEAV?$allocator@U_Container_proxy@std@@@2@QEAU_Container_proxy@2@_K@Z ENDP ; std::_Default_allocator_traits<std::allocator<std::_Container_proxy> >::deallocate
_TEXT	ENDS
; Function compile flags: /Odtp /RTCsu /ZI
; File c:\program files (x86)\microsoft visual studio\2017\community\vc\tools\msvc\14.16.27023\include\xmemory0
;	COMDAT ??$?0PEAVbus_device@@@?$allocator@U_Container_proxy@std@@@std@@QEAA@AEBV?$allocator@PEAVbus_device@@@1@@Z
_TEXT	SEGMENT
$T1 = 200
this$ = 256
__formal$ = 264
??$?0PEAVbus_device@@@?$allocator@U_Container_proxy@std@@@std@@QEAA@AEBV?$allocator@PEAVbus_device@@@1@@Z PROC ; std::allocator<std::_Container_proxy>::allocator<std::_Container_proxy><bus_device *>, COMDAT

; 986  : 		{	// construct from a related allocator (do nothing)

$LN3:
	mov	QWORD PTR [rsp+16], rdx
	mov	QWORD PTR [rsp+8], rcx
	push	rbp
	push	rdi
	sub	rsp, 264				; 00000108H
	lea	rbp, QWORD PTR [rsp+32]
	mov	rdi, rsp
	mov	ecx, 66					; 00000042H
	mov	eax, -858993460				; ccccccccH
	rep stosd
	mov	rcx, QWORD PTR [rsp+296]
	mov	QWORD PTR $T1[rbp], -2
	lea	rcx, OFFSET FLAT:__1CE3C767_xmemory0
	call	__CheckForDebuggerJustMyCode
	npad	1

; 987  : 		}

	mov	rax, QWORD PTR this$[rbp]
	lea	rsp, QWORD PTR [rbp+232]
	pop	rdi
	pop	rbp
	ret	0
??$?0PEAVbus_device@@@?$allocator@U_Container_proxy@std@@@std@@QEAA@AEBV?$allocator@PEAVbus_device@@@1@@Z ENDP ; std::allocator<std::_Container_proxy>::allocator<std::_Container_proxy><bus_device *>
_TEXT	ENDS
; Function compile flags: /Odtp /RTCsu /ZI
; File c:\program files (x86)\microsoft visual studio\2017\community\vc\tools\msvc\14.16.27023\include\xmemory0
;	COMDAT ?allocate@?$allocator@U_Container_proxy@std@@@std@@QEAAPEAU_Container_proxy@2@_K@Z
_TEXT	SEGMENT
this$ = 224
_Count$ = 232
?allocate@?$allocator@U_Container_proxy@std@@@std@@QEAAPEAU_Container_proxy@2@_K@Z PROC ; std::allocator<std::_Container_proxy>::allocate, COMDAT

; 996  : 		{	// allocate array of _Count elements

$LN3:
	mov	QWORD PTR [rsp+16], rdx
	mov	QWORD PTR [rsp+8], rcx
	push	rbp
	push	rdi
	sub	rsp, 232				; 000000e8H
	lea	rbp, QWORD PTR [rsp+32]
	mov	rdi, rsp
	mov	ecx, 58					; 0000003aH
	mov	eax, -858993460				; ccccccccH
	rep stosd
	mov	rcx, QWORD PTR [rsp+264]
	lea	rcx, OFFSET FLAT:__1CE3C767_xmemory0
	call	__CheckForDebuggerJustMyCode

; 997  : 		return (static_cast<_Ty *>(_Allocate<_New_alignof<_Ty>>(_Get_size_of_n<sizeof(_Ty)>(_Count))));

	mov	rcx, QWORD PTR _Count$[rbp]
	call	??$_Get_size_of_n@$0BA@@std@@YA_K_K@Z	; std::_Get_size_of_n<16>
	mov	rcx, rax
	call	??$_Allocate@$0BA@U_Default_allocate_traits@std@@$0A@@std@@YAPEAX_K@Z ; std::_Allocate<16,std::_Default_allocate_traits,0>

; 998  : 		}

	lea	rsp, QWORD PTR [rbp+200]
	pop	rdi
	pop	rbp
	ret	0
?allocate@?$allocator@U_Container_proxy@std@@@std@@QEAAPEAU_Container_proxy@2@_K@Z ENDP ; std::allocator<std::_Container_proxy>::allocate
_TEXT	ENDS
; Function compile flags: /Odtp /RTCsu /ZI
; File c:\program files (x86)\microsoft visual studio\2017\community\vc\tools\msvc\14.16.27023\include\xmemory0
;	COMDAT ??$_Deallocate@$0BA@$0A@@std@@YAXPEAX_K@Z
_TEXT	SEGMENT
_Ptr$ = 224
_Bytes$ = 232
??$_Deallocate@$0BA@$0A@@std@@YAXPEAX_K@Z PROC		; std::_Deallocate<16,0>, COMDAT

; 199  : 	{	// deallocate storage allocated by _Allocate when !_HAS_ALIGNED_NEW || _Align <= __STDCPP_DEFAULT_NEW_ALIGNMENT__

$LN4:
	mov	QWORD PTR [rsp+16], rdx
	mov	QWORD PTR [rsp+8], rcx
	push	rbp
	push	rdi
	sub	rsp, 232				; 000000e8H
	lea	rbp, QWORD PTR [rsp+32]
	mov	rdi, rsp
	mov	ecx, 58					; 0000003aH
	mov	eax, -858993460				; ccccccccH
	rep stosd
	mov	rcx, QWORD PTR [rsp+264]
	lea	rcx, OFFSET FLAT:__1CE3C767_xmemory0
	call	__CheckForDebuggerJustMyCode

; 200  :  #if defined(_M_IX86) || defined(_M_X64)
; 201  : 	if (_Bytes >= _Big_allocation_threshold)

	cmp	QWORD PTR _Bytes$[rbp], 4096		; 00001000H
	jb	SHORT $LN2@Deallocate

; 202  : 		{	// boost the alignment of big allocations to help autovectorization
; 203  : 		_Adjust_manually_vector_aligned(_Ptr, _Bytes);

	lea	rdx, QWORD PTR _Bytes$[rbp]
	lea	rcx, QWORD PTR _Ptr$[rbp]
	call	?_Adjust_manually_vector_aligned@std@@YAXAEAPEAXAEA_K@Z ; std::_Adjust_manually_vector_aligned
$LN2@Deallocate:

; 204  : 		}
; 205  :  #endif /* defined(_M_IX86) || defined(_M_X64) */
; 206  : 
; 207  : 	::operator delete(_Ptr, _Bytes);

	mov	rdx, QWORD PTR _Bytes$[rbp]
	mov	rcx, QWORD PTR _Ptr$[rbp]
	call	??3@YAXPEAX_K@Z				; operator delete

; 208  : 	}

	lea	rsp, QWORD PTR [rbp+200]
	pop	rdi
	pop	rbp
	ret	0
??$_Deallocate@$0BA@$0A@@std@@YAXPEAX_K@Z ENDP		; std::_Deallocate<16,0>
_TEXT	ENDS
; Function compile flags: /Odtp /RTCsu /ZI
; File c:\program files (x86)\microsoft visual studio\2017\community\vc\tools\msvc\14.16.27023\include\xmemory0
;	COMDAT ??$_Allocate@$0BA@U_Default_allocate_traits@std@@$0A@@std@@YAPEAX_K@Z
_TEXT	SEGMENT
_Bytes$ = 224
??$_Allocate@$0BA@U_Default_allocate_traits@std@@$0A@@std@@YAPEAX_K@Z PROC ; std::_Allocate<16,std::_Default_allocate_traits,0>, COMDAT

; 180  : 	{	// allocate _Bytes when !_HAS_ALIGNED_NEW || _Align <= __STDCPP_DEFAULT_NEW_ALIGNMENT__

$LN5:
	mov	QWORD PTR [rsp+8], rcx
	push	rbp
	push	rdi
	sub	rsp, 232				; 000000e8H
	lea	rbp, QWORD PTR [rsp+32]
	mov	rdi, rsp
	mov	ecx, 58					; 0000003aH
	mov	eax, -858993460				; ccccccccH
	rep stosd
	mov	rcx, QWORD PTR [rsp+264]
	lea	rcx, OFFSET FLAT:__1CE3C767_xmemory0
	call	__CheckForDebuggerJustMyCode

; 181  :  #if defined(_M_IX86) || defined(_M_X64)
; 182  : 	if (_Bytes >= _Big_allocation_threshold)

	cmp	QWORD PTR _Bytes$[rbp], 4096		; 00001000H
	jb	SHORT $LN2@Allocate

; 183  : 		{	// boost the alignment of big allocations to help autovectorization
; 184  : 		return (_Allocate_manually_vector_aligned<_Traits>(_Bytes));

	mov	rcx, QWORD PTR _Bytes$[rbp]
	call	??$_Allocate_manually_vector_aligned@U_Default_allocate_traits@std@@@std@@YAPEAX_K@Z ; std::_Allocate_manually_vector_aligned<std::_Default_allocate_traits>
	jmp	SHORT $LN1@Allocate
$LN2@Allocate:

; 185  : 		}
; 186  :  #endif /* defined(_M_IX86) || defined(_M_X64) */
; 187  : 
; 188  : 	if (_Bytes != 0)

	cmp	QWORD PTR _Bytes$[rbp], 0
	je	SHORT $LN3@Allocate

; 189  : 		{
; 190  : 		return (_Traits::_Allocate(_Bytes));

	mov	rcx, QWORD PTR _Bytes$[rbp]
	call	?_Allocate@_Default_allocate_traits@std@@SAPEAX_K@Z ; std::_Default_allocate_traits::_Allocate
	jmp	SHORT $LN1@Allocate
$LN3@Allocate:

; 191  : 		}
; 192  : 
; 193  : 	return (nullptr);

	xor	eax, eax
$LN1@Allocate:

; 194  : 	}

	lea	rsp, QWORD PTR [rbp+200]
	pop	rdi
	pop	rbp
	ret	0
??$_Allocate@$0BA@U_Default_allocate_traits@std@@$0A@@std@@YAPEAX_K@Z ENDP ; std::_Allocate<16,std::_Default_allocate_traits,0>
_TEXT	ENDS
; Function compile flags: /Odtp /RTCsu /ZI
; File c:\program files (x86)\microsoft visual studio\2017\community\vc\tools\msvc\14.16.27023\include\xutility
;	COMDAT ??$?0$$V@?$_Compressed_pair@V?$allocator@PEAVbus_device@@@std@@V?$_Vector_val@U?$_Simple_types@PEAVbus_device@@@std@@@2@$00@std@@QEAA@U_Zero_then_variadic_args_t@1@@Z
_TEXT	SEGMENT
this$ = 224
__formal$ = 232
??$?0$$V@?$_Compressed_pair@V?$allocator@PEAVbus_device@@@std@@V?$_Vector_val@U?$_Simple_types@PEAVbus_device@@@std@@@2@$00@std@@QEAA@U_Zero_then_variadic_args_t@1@@Z PROC ; std::_Compressed_pair<std::allocator<bus_device *>,std::_Vector_val<std::_Simple_types<bus_device *> >,1>::_Compressed_pair<std::allocator<bus_device *>,std::_Vector_val<std::_Simple_types<bus_device *> >,1><>, COMDAT

; 277  : 		: _Ty1(), _Myval2(_STD forward<_Other2>(_Val2)...)

$LN3:
	mov	BYTE PTR [rsp+16], dl
	mov	QWORD PTR [rsp+8], rcx
	push	rbp
	push	rdi
	sub	rsp, 232				; 000000e8H
	lea	rbp, QWORD PTR [rsp+32]
	mov	rdi, rsp
	mov	ecx, 58					; 0000003aH
	mov	eax, -858993460				; ccccccccH
	rep stosd
	mov	rcx, QWORD PTR [rsp+264]
	lea	rcx, OFFSET FLAT:__CDB00636_xutility
	call	__CheckForDebuggerJustMyCode
	mov	rcx, QWORD PTR this$[rbp]
	call	??0?$allocator@PEAVbus_device@@@std@@QEAA@XZ ; std::allocator<bus_device *>::allocator<bus_device *>
	mov	rax, QWORD PTR this$[rbp]
	mov	rcx, rax
	call	??0?$_Vector_val@U?$_Simple_types@PEAVbus_device@@@std@@@std@@QEAA@XZ ; std::_Vector_val<std::_Simple_types<bus_device *> >::_Vector_val<std::_Simple_types<bus_device *> >

; 278  : 		{	// construct from forwarded values
; 279  : 		}

	mov	rax, QWORD PTR this$[rbp]
	lea	rsp, QWORD PTR [rbp+200]
	pop	rdi
	pop	rbp
	ret	0
??$?0$$V@?$_Compressed_pair@V?$allocator@PEAVbus_device@@@std@@V?$_Vector_val@U?$_Simple_types@PEAVbus_device@@@std@@@2@$00@std@@QEAA@U_Zero_then_variadic_args_t@1@@Z ENDP ; std::_Compressed_pair<std::allocator<bus_device *>,std::_Vector_val<std::_Simple_types<bus_device *> >,1>::_Compressed_pair<std::allocator<bus_device *>,std::_Vector_val<std::_Simple_types<bus_device *> >,1><>
_TEXT	ENDS
; Function compile flags: /Odtp /RTCsu /ZI
; File c:\program files (x86)\microsoft visual studio\2017\community\vc\tools\msvc\14.16.27023\include\ostream
;	COMDAT ??Bsentry@?$basic_ostream@DU?$char_traits@D@std@@@std@@QEBA_NXZ
_TEXT	SEGMENT
this$ = 224
??Bsentry@?$basic_ostream@DU?$char_traits@D@std@@@std@@QEBA_NXZ PROC ; std::basic_ostream<char,std::char_traits<char> >::sentry::operator bool, COMDAT

; 152  : 			{	// test if stream state okay

$LN3:
	mov	QWORD PTR [rsp+8], rcx
	push	rbp
	push	rdi
	sub	rsp, 232				; 000000e8H
	lea	rbp, QWORD PTR [rsp+32]
	mov	rdi, rsp
	mov	ecx, 58					; 0000003aH
	mov	eax, -858993460				; ccccccccH
	rep stosd
	mov	rcx, QWORD PTR [rsp+264]
	lea	rcx, OFFSET FLAT:__375B2D08_ostream
	call	__CheckForDebuggerJustMyCode

; 153  : 			return (_Ok);

	mov	rax, QWORD PTR this$[rbp]
	movzx	eax, BYTE PTR [rax+8]

; 154  : 			}

	lea	rsp, QWORD PTR [rbp+200]
	pop	rdi
	pop	rbp
	ret	0
??Bsentry@?$basic_ostream@DU?$char_traits@D@std@@@std@@QEBA_NXZ ENDP ; std::basic_ostream<char,std::char_traits<char> >::sentry::operator bool
_TEXT	ENDS
; Function compile flags: /Odtp /RTCsu /ZI
; File c:\program files (x86)\microsoft visual studio\2017\community\vc\tools\msvc\14.16.27023\include\ostream
;	COMDAT ??1sentry@?$basic_ostream@DU?$char_traits@D@std@@@std@@QEAA@XZ
_TEXT	SEGMENT
$T1 = 200
this$ = 256
??1sentry@?$basic_ostream@DU?$char_traits@D@std@@@std@@QEAA@XZ PROC ; std::basic_ostream<char,std::char_traits<char> >::sentry::~sentry, COMDAT

; 135  : 			{	// destroy the object

$LN4:
	mov	QWORD PTR [rsp+8], rcx
	push	rbp
	push	rdi
	sub	rsp, 264				; 00000108H
	lea	rbp, QWORD PTR [rsp+32]
	mov	rdi, rsp
	mov	ecx, 66					; 00000042H
	mov	eax, -858993460				; ccccccccH
	rep stosd
	mov	rcx, QWORD PTR [rsp+296]
	mov	QWORD PTR $T1[rbp], -2
	lea	rcx, OFFSET FLAT:__375B2D08_ostream
	call	__CheckForDebuggerJustMyCode
	npad	1

; 136  :  #if _HAS_EXCEPTIONS
; 137  : 			if (!_STD uncaught_exception())	// TRANSITION, OS#15518458

	call	?uncaught_exception@std@@YA_NXZ		; std::uncaught_exception
	npad	1
	movzx	eax, al
	test	eax, eax
	jne	SHORT $LN2@sentry

; 138  : 				{
; 139  : 				this->_Myostr._Osfx();

	mov	rax, QWORD PTR this$[rbp]
	mov	rcx, QWORD PTR [rax]
	call	QWORD PTR __imp_?_Osfx@?$basic_ostream@DU?$char_traits@D@std@@@std@@QEAAXXZ
	npad	1
$LN2@sentry:

; 140  : 				}
; 141  :  #else /* _HAS_EXCEPTIONS */
; 142  : 			this->_Myostr._Osfx();
; 143  :  #endif /* _HAS_EXCEPTIONS */
; 144  : 			}

	mov	rcx, QWORD PTR this$[rbp]
	call	??1_Sentry_base@?$basic_ostream@DU?$char_traits@D@std@@@std@@QEAA@XZ ; std::basic_ostream<char,std::char_traits<char> >::_Sentry_base::~_Sentry_base
	npad	1
	lea	rsp, QWORD PTR [rbp+232]
	pop	rdi
	pop	rbp
	ret	0
??1sentry@?$basic_ostream@DU?$char_traits@D@std@@@std@@QEAA@XZ ENDP ; std::basic_ostream<char,std::char_traits<char> >::sentry::~sentry
_TEXT	ENDS
; Function compile flags: /Odtp /RTCsu /ZI
; File c:\program files (x86)\microsoft visual studio\2017\community\vc\tools\msvc\14.16.27023\include\ostream
;	COMDAT ??0sentry@?$basic_ostream@DU?$char_traits@D@std@@@std@@QEAA@AEAV12@@Z
_TEXT	SEGMENT
$T1 = 200
this$ = 256
_Ostr$ = 264
??0sentry@?$basic_ostream@DU?$char_traits@D@std@@@std@@QEAA@AEAV12@@Z PROC ; std::basic_ostream<char,std::char_traits<char> >::sentry::sentry, COMDAT

; 121  : 			{	// construct locking and testing stream

$LN5:
	mov	QWORD PTR [rsp+16], rdx
	mov	QWORD PTR [rsp+8], rcx
	push	rbp
	push	rdi
	sub	rsp, 264				; 00000108H
	lea	rbp, QWORD PTR [rsp+32]
	mov	rdi, rsp
	mov	ecx, 66					; 00000042H
	mov	eax, -858993460				; ccccccccH
	rep stosd
	mov	rcx, QWORD PTR [rsp+296]
	mov	QWORD PTR $T1[rbp], -2
	lea	rcx, OFFSET FLAT:__375B2D08_ostream
	call	__CheckForDebuggerJustMyCode

; 120  : 			: _Sentry_base(_Ostr)

