; Listing generated by Microsoft (R) Optimizing Compiler Version 19.16.27050.0 

include listing.inc

INCLUDELIB MSVCRTD
INCLUDELIB OLDNAMES

msvcjmc	SEGMENT
__FF24E80D_stdafx@h DB 01H
__84F95A01_denveremu@pch DB 01H
__8FA60561_xmemory DB 01H
__122CF1B0_xstddef DB 01H
__E53366A2_utility DB 01H
__F2A749D8_streambuf DB 01H
__375B2D08_ostream DB 01H
__548B1832_istream DB 01H
__FB7583FD_xstring DB 01H
__FF7D7337_vector DB 01H
__A57BBCE6_stdio@h DB 01H
__D40DD59F_corecrt_stdio_config@h DB 01H
__486570BD_bus@h DB 01H
__72010E87_bus@cpp DB 01H
__D1FEDD45_ios DB 01H
__5B5D5F1B_wchar@h DB 01H
__BACC91DB_xlocnum DB 01H
__9B0361F4_xiosbase DB 01H
__FD5040F3_system_error DB 01H
__420D52D3_xcall_once@h DB 01H
__244BF7CC_xlocale DB 01H
__223B5856_xfacet DB 01H
__0E7E0F59_memory DB 01H
__A2E616E7_xlocinfo DB 01H
__7A53EED8_ctype@h DB 01H
__C42C8B73_vcruntime_typeinfo@h DB 01H
__F007F164_stdexcept DB 01H
__C334353D_xatomic0@h DB 01H
__1CE3C767_xmemory0 DB 01H
__CDB00636_xutility DB 01H
__7E39D651_iosfwd DB 01H
__7949CB39_exception DB 01H
__9BB4E194_vcruntime_exception@h DB 01H
__5ECFF36E_type_traits DB 01H
__B2D003D7_limits DB 01H
__3736D25A_xtgmath@h DB 01H
__824D367B_cmath DB 01H
__D23EE329_cstdlib DB 01H
__AF9067BE_corecrt_math@h DB 01H
__388D9910_stdlib@h DB 01H
__6BC0FD35_vcruntime_new@h DB 01H
__BEFE0DB4_string@h DB 01H
__1F77EA16_corecrt_memory@h DB 01H
__ACA0BEE6_malloc@h DB 01H
msvcjmc	ENDS
PUBLIC	?__empty_global_delete@@YAXPEAX@Z		; __empty_global_delete
PUBLIC	?__empty_global_delete@@YAXPEAX_K@Z		; __empty_global_delete
PUBLIC	??2@YAPEAX_KPEAX@Z				; operator new
PUBLIC	?max@?$numeric_limits@_J@std@@SA_JXZ		; std::numeric_limits<__int64>::max
PUBLIC	?length@?$char_traits@D@std@@SA_KQEBD@Z		; std::char_traits<char>::length
PUBLIC	?eq_int_type@?$char_traits@D@std@@SA_NAEBH0@Z	; std::char_traits<char>::eq_int_type
PUBLIC	?eof@?$char_traits@D@std@@SAHXZ			; std::char_traits<char>::eof
PUBLIC	??0_Container_proxy@std@@QEAA@XZ		; std::_Container_proxy::_Container_proxy
PUBLIC	??0_Container_base12@std@@QEAA@XZ		; std::_Container_base12::_Container_base12
PUBLIC	?_Getpfirst@_Container_base12@std@@QEBAPEAPEAU_Iterator_base12@2@XZ ; std::_Container_base12::_Getpfirst
PUBLIC	?_Orphan_all@_Container_base12@std@@QEAAXXZ	; std::_Container_base12::_Orphan_all
PUBLIC	??0_Iterator_base12@std@@QEAA@XZ		; std::_Iterator_base12::_Iterator_base12
PUBLIC	??0_Iterator_base12@std@@QEAA@AEBU01@@Z		; std::_Iterator_base12::_Iterator_base12
PUBLIC	??4_Iterator_base12@std@@QEAAAEAU01@AEBU01@@Z	; std::_Iterator_base12::operator=
PUBLIC	??1_Iterator_base12@std@@QEAA@XZ		; std::_Iterator_base12::~_Iterator_base12
PUBLIC	?_Adopt@_Iterator_base12@std@@QEAAXPEBU_Container_base12@2@@Z ; std::_Iterator_base12::_Adopt
PUBLIC	?_Clrcont@_Iterator_base12@std@@QEAAXXZ		; std::_Iterator_base12::_Clrcont
PUBLIC	?_Getcont@_Iterator_base12@std@@QEBAPEBU_Container_base12@2@XZ ; std::_Iterator_base12::_Getcont
PUBLIC	?_Getpnext@_Iterator_base12@std@@QEAAPEAPEAU12@XZ ; std::_Iterator_base12::_Getpnext
PUBLIC	?_Orphan_me@_Iterator_base12@std@@QEAAXXZ	; std::_Iterator_base12::_Orphan_me
PUBLIC	?_Allocate@_Default_allocate_traits@std@@SAPEAX_K@Z ; std::_Default_allocate_traits::_Allocate
PUBLIC	?_Adjust_manually_vector_aligned@std@@YAXAEAPEAXAEA_K@Z ; std::_Adjust_manually_vector_aligned
PUBLIC	??$_Min_value@_K@std@@YAAEB_KAEB_K0@Z		; std::_Min_value<unsigned __int64>
PUBLIC	??0device@@QEAA@XZ				; device::device
PUBLIC	??1device@@QEAA@XZ				; device::~device
PUBLIC	?rundevice@device@@UEAAHH@Z			; device::rundevice
PUBLIC	?get_device_descriptor@device@@QEAAPEADXZ	; device::get_device_descriptor
PUBLIC	?dma@device@@UEAAXPEAE_N1@Z			; device::dma
PUBLIC	??0bus_device@@QEAA@XZ				; bus_device::bus_device
PUBLIC	??1bus_device@@UEAA@XZ				; bus_device::~bus_device
PUBLIC	?compute_addr_from_layout@bus_device@@QEAAGG@Z	; bus_device::compute_addr_from_layout
PUBLIC	?swappins@bus_device@@QEAAXHH@Z			; bus_device::swappins
PUBLIC	?groundpin@bus_device@@QEAAXH@Z			; bus_device::groundpin
PUBLIC	?vccpin@bus_device@@QEAAXH@Z			; bus_device::vccpin
PUBLIC	?resetpins_to_default@bus_device@@QEAAXXZ	; bus_device::resetpins_to_default
PUBLIC	?write@bus_device@@UEAAXHHE@Z			; bus_device::write
PUBLIC	?read@bus_device@@UEAAEHH@Z			; bus_device::read
PUBLIC	??_Gbus_device@@UEAAPEAXI@Z			; bus_device::`scalar deleting destructor'
PUBLIC	??0?$allocator@PEAVbus_device@@@std@@QEAA@XZ	; std::allocator<bus_device *>::allocator<bus_device *>
PUBLIC	?deallocate@?$allocator@PEAVbus_device@@@std@@QEAAXQEAPEAVbus_device@@_K@Z ; std::allocator<bus_device *>::deallocate
PUBLIC	?allocate@?$allocator@PEAVbus_device@@@std@@QEAAPEAPEAVbus_device@@_K@Z ; std::allocator<bus_device *>::allocate
PUBLIC	?max_size@?$_Default_allocator_traits@V?$allocator@PEAVbus_device@@@std@@@std@@SA_KAEBV?$allocator@PEAVbus_device@@@2@@Z ; std::_Default_allocator_traits<std::allocator<bus_device *> >::max_size
PUBLIC	??0?$_Vector_alloc@U?$_Vec_base_types@PEAVbus_device@@V?$allocator@PEAVbus_device@@@std@@@std@@@std@@QEAA@XZ ; std::_Vector_alloc<std::_Vec_base_types<bus_device *,std::allocator<bus_device *> > >::_Vector_alloc<std::_Vec_base_types<bus_device *,std::allocator<bus_device *> > >
PUBLIC	??1?$_Vector_alloc@U?$_Vec_base_types@PEAVbus_device@@V?$allocator@PEAVbus_device@@@std@@@std@@@std@@QEAA@XZ ; std::_Vector_alloc<std::_Vec_base_types<bus_device *,std::allocator<bus_device *> > >::~_Vector_alloc<std::_Vec_base_types<bus_device *,std::allocator<bus_device *> > >
PUBLIC	?_Alloc_proxy@?$_Vector_alloc@U?$_Vec_base_types@PEAVbus_device@@V?$allocator@PEAVbus_device@@@std@@@std@@@std@@QEAAXXZ ; std::_Vector_alloc<std::_Vec_base_types<bus_device *,std::allocator<bus_device *> > >::_Alloc_proxy
PUBLIC	?_Free_proxy@?$_Vector_alloc@U?$_Vec_base_types@PEAVbus_device@@V?$allocator@PEAVbus_device@@@std@@@std@@@std@@QEAAXXZ ; std::_Vector_alloc<std::_Vec_base_types<bus_device *,std::allocator<bus_device *> > >::_Free_proxy
PUBLIC	?_Getpfirst@?$_Vector_alloc@U?$_Vec_base_types@PEAVbus_device@@V?$allocator@PEAVbus_device@@@std@@@std@@@std@@QEBAPEAPEAU_Iterator_base12@2@XZ ; std::_Vector_alloc<std::_Vec_base_types<bus_device *,std::allocator<bus_device *> > >::_Getpfirst
PUBLIC	?_Myproxy@?$_Vector_alloc@U?$_Vec_base_types@PEAVbus_device@@V?$allocator@PEAVbus_device@@@std@@@std@@@std@@QEAAAEAPEAU_Container_proxy@2@XZ ; std::_Vector_alloc<std::_Vec_base_types<bus_device *,std::allocator<bus_device *> > >::_Myproxy
PUBLIC	?_Orphan_all@?$_Vector_alloc@U?$_Vec_base_types@PEAVbus_device@@V?$allocator@PEAVbus_device@@@std@@@std@@@std@@QEAAXXZ ; std::_Vector_alloc<std::_Vec_base_types<bus_device *,std::allocator<bus_device *> > >::_Orphan_all
PUBLIC	?_Getal@?$_Vector_alloc@U?$_Vec_base_types@PEAVbus_device@@V?$allocator@PEAVbus_device@@@std@@@std@@@std@@QEAAAEAV?$allocator@PEAVbus_device@@@2@XZ ; std::_Vector_alloc<std::_Vec_base_types<bus_device *,std::allocator<bus_device *> > >::_Getal
PUBLIC	?_Getal@?$_Vector_alloc@U?$_Vec_base_types@PEAVbus_device@@V?$allocator@PEAVbus_device@@@std@@@std@@@std@@QEBAAEBV?$allocator@PEAVbus_device@@@2@XZ ; std::_Vector_alloc<std::_Vec_base_types<bus_device *,std::allocator<bus_device *> > >::_Getal
PUBLIC	?_Get_data@?$_Vector_alloc@U?$_Vec_base_types@PEAVbus_device@@V?$allocator@PEAVbus_device@@@std@@@std@@@std@@QEAAAEAV?$_Vector_val@U?$_Simple_types@PEAVbus_device@@@std@@@2@XZ ; std::_Vector_alloc<std::_Vec_base_types<bus_device *,std::allocator<bus_device *> > >::_Get_data
PUBLIC	?_Get_data@?$_Vector_alloc@U?$_Vec_base_types@PEAVbus_device@@V?$allocator@PEAVbus_device@@@std@@@std@@@std@@QEBAAEBV?$_Vector_val@U?$_Simple_types@PEAVbus_device@@@std@@@2@XZ ; std::_Vector_alloc<std::_Vec_base_types<bus_device *,std::allocator<bus_device *> > >::_Get_data
PUBLIC	?_Myfirst@?$_Vector_alloc@U?$_Vec_base_types@PEAVbus_device@@V?$allocator@PEAVbus_device@@@std@@@std@@@std@@QEAAAEAPEAPEAVbus_device@@XZ ; std::_Vector_alloc<std::_Vec_base_types<bus_device *,std::allocator<bus_device *> > >::_Myfirst
PUBLIC	?_Myfirst@?$_Vector_alloc@U?$_Vec_base_types@PEAVbus_device@@V?$allocator@PEAVbus_device@@@std@@@std@@@std@@QEBAAEBQEAPEAVbus_device@@XZ ; std::_Vector_alloc<std::_Vec_base_types<bus_device *,std::allocator<bus_device *> > >::_Myfirst
PUBLIC	?_Mylast@?$_Vector_alloc@U?$_Vec_base_types@PEAVbus_device@@V?$allocator@PEAVbus_device@@@std@@@std@@@std@@QEAAAEAPEAPEAVbus_device@@XZ ; std::_Vector_alloc<std::_Vec_base_types<bus_device *,std::allocator<bus_device *> > >::_Mylast
PUBLIC	?_Mylast@?$_Vector_alloc@U?$_Vec_base_types@PEAVbus_device@@V?$allocator@PEAVbus_device@@@std@@@std@@@std@@QEBAAEBQEAPEAVbus_device@@XZ ; std::_Vector_alloc<std::_Vec_base_types<bus_device *,std::allocator<bus_device *> > >::_Mylast
PUBLIC	?_Myend@?$_Vector_alloc@U?$_Vec_base_types@PEAVbus_device@@V?$allocator@PEAVbus_device@@@std@@@std@@@std@@QEAAAEAPEAPEAVbus_device@@XZ ; std::_Vector_alloc<std::_Vec_base_types<bus_device *,std::allocator<bus_device *> > >::_Myend
PUBLIC	?_Myend@?$_Vector_alloc@U?$_Vec_base_types@PEAVbus_device@@V?$allocator@PEAVbus_device@@@std@@@std@@@std@@QEBAAEBQEAPEAVbus_device@@XZ ; std::_Vector_alloc<std::_Vec_base_types<bus_device *,std::allocator<bus_device *> > >::_Myend
PUBLIC	??0?$_Vector_val@U?$_Simple_types@PEAVbus_device@@@std@@@std@@QEAA@XZ ; std::_Vector_val<std::_Simple_types<bus_device *> >::_Vector_val<std::_Simple_types<bus_device *> >
PUBLIC	?_Get_first@?$_Compressed_pair@V?$allocator@PEAVbus_device@@@std@@V?$_Vector_val@U?$_Simple_types@PEAVbus_device@@@std@@@2@$00@std@@QEAAAEAV?$allocator@PEAVbus_device@@@2@XZ ; std::_Compressed_pair<std::allocator<bus_device *>,std::_Vector_val<std::_Simple_types<bus_device *> >,1>::_Get_first
PUBLIC	?_Get_first@?$_Compressed_pair@V?$allocator@PEAVbus_device@@@std@@V?$_Vector_val@U?$_Simple_types@PEAVbus_device@@@std@@@2@$00@std@@QEBAAEBV?$allocator@PEAVbus_device@@@2@XZ ; std::_Compressed_pair<std::allocator<bus_device *>,std::_Vector_val<std::_Simple_types<bus_device *> >,1>::_Get_first
PUBLIC	?_Get_second@?$_Compressed_pair@V?$allocator@PEAVbus_device@@@std@@V?$_Vector_val@U?$_Simple_types@PEAVbus_device@@@std@@@2@$00@std@@QEAAAEAV?$_Vector_val@U?$_Simple_types@PEAVbus_device@@@std@@@2@XZ ; std::_Compressed_pair<std::allocator<bus_device *>,std::_Vector_val<std::_Simple_types<bus_device *> >,1>::_Get_second
PUBLIC	?_Get_second@?$_Compressed_pair@V?$allocator@PEAVbus_device@@@std@@V?$_Vector_val@U?$_Simple_types@PEAVbus_device@@@std@@@2@$00@std@@QEBAAEBV?$_Vector_val@U?$_Simple_types@PEAVbus_device@@@std@@@2@XZ ; std::_Compressed_pair<std::allocator<bus_device *>,std::_Vector_val<std::_Simple_types<bus_device *> >,1>::_Get_second
PUBLIC	??0?$vector@PEAVbus_device@@V?$allocator@PEAVbus_device@@@std@@@std@@QEAA@XZ ; std::vector<bus_device *,std::allocator<bus_device *> >::vector<bus_device *,std::allocator<bus_device *> >
PUBLIC	??1?$vector@PEAVbus_device@@V?$allocator@PEAVbus_device@@@std@@@std@@QEAA@XZ ; std::vector<bus_device *,std::allocator<bus_device *> >::~vector<bus_device *,std::allocator<bus_device *> >
PUBLIC	?push_back@?$vector@PEAVbus_device@@V?$allocator@PEAVbus_device@@@std@@@std@@QEAAXAEBQEAVbus_device@@@Z ; std::vector<bus_device *,std::allocator<bus_device *> >::push_back
PUBLIC	?erase@?$vector@PEAVbus_device@@V?$allocator@PEAVbus_device@@@std@@@std@@QEAA?AV?$_Vector_iterator@V?$_Vector_val@U?$_Simple_types@PEAVbus_device@@@std@@@std@@@2@V?$_Vector_const_iterator@V?$_Vector_val@U?$_Simple_types@PEAVbus_device@@@std@@@std@@@2@@Z ; std::vector<bus_device *,std::allocator<bus_device *> >::erase
PUBLIC	?begin@?$vector@PEAVbus_device@@V?$allocator@PEAVbus_device@@@std@@@std@@QEAA?AV?$_Vector_iterator@V?$_Vector_val@U?$_Simple_types@PEAVbus_device@@@std@@@std@@@2@XZ ; std::vector<bus_device *,std::allocator<bus_device *> >::begin
PUBLIC	?_Unchecked_begin@?$vector@PEAVbus_device@@V?$allocator@PEAVbus_device@@@std@@@std@@QEAAPEAPEAVbus_device@@XZ ; std::vector<bus_device *,std::allocator<bus_device *> >::_Unchecked_begin
PUBLIC	?_Unchecked_end@?$vector@PEAVbus_device@@V?$allocator@PEAVbus_device@@@std@@@std@@QEAAPEAPEAVbus_device@@XZ ; std::vector<bus_device *,std::allocator<bus_device *> >::_Unchecked_end
PUBLIC	?size@?$vector@PEAVbus_device@@V?$allocator@PEAVbus_device@@@std@@@std@@QEBA_KXZ ; std::vector<bus_device *,std::allocator<bus_device *> >::size
PUBLIC	?max_size@?$vector@PEAVbus_device@@V?$allocator@PEAVbus_device@@@std@@@std@@QEBA_KXZ ; std::vector<bus_device *,std::allocator<bus_device *> >::max_size
PUBLIC	?capacity@?$vector@PEAVbus_device@@V?$allocator@PEAVbus_device@@@std@@@std@@QEBA_KXZ ; std::vector<bus_device *,std::allocator<bus_device *> >::capacity
PUBLIC	?_Has_unused_capacity@?$vector@PEAVbus_device@@V?$allocator@PEAVbus_device@@@std@@@std@@AEBA_NXZ ; std::vector<bus_device *,std::allocator<bus_device *> >::_Has_unused_capacity
PUBLIC	??A?$vector@PEAVbus_device@@V?$allocator@PEAVbus_device@@@std@@@std@@QEAAAEAPEAVbus_device@@_K@Z ; std::vector<bus_device *,std::allocator<bus_device *> >::operator[]
PUBLIC	?_Umove@?$vector@PEAVbus_device@@V?$allocator@PEAVbus_device@@@std@@@std@@AEAAPEAPEAVbus_device@@PEAPEAV3@00@Z ; std::vector<bus_device *,std::allocator<bus_device *> >::_Umove
PUBLIC	?_Umove_if_noexcept1@?$vector@PEAVbus_device@@V?$allocator@PEAVbus_device@@@std@@@std@@AEAAXPEAPEAVbus_device@@00U?$integral_constant@_N$00@2@@Z ; std::vector<bus_device *,std::allocator<bus_device *> >::_Umove_if_noexcept1
PUBLIC	?_Umove_if_noexcept@?$vector@PEAVbus_device@@V?$allocator@PEAVbus_device@@@std@@@std@@AEAAXPEAPEAVbus_device@@00@Z ; std::vector<bus_device *,std::allocator<bus_device *> >::_Umove_if_noexcept
PUBLIC	?_Destroy@?$vector@PEAVbus_device@@V?$allocator@PEAVbus_device@@@std@@@std@@AEAAXPEAPEAVbus_device@@0@Z ; std::vector<bus_device *,std::allocator<bus_device *> >::_Destroy
PUBLIC	?_Calculate_growth@?$vector@PEAVbus_device@@V?$allocator@PEAVbus_device@@@std@@@std@@AEBA_K_K@Z ; std::vector<bus_device *,std::allocator<bus_device *> >::_Calculate_growth
PUBLIC	?_Change_array@?$vector@PEAVbus_device@@V?$allocator@PEAVbus_device@@@std@@@std@@AEAAXQEAPEAVbus_device@@_K1@Z ; std::vector<bus_device *,std::allocator<bus_device *> >::_Change_array
PUBLIC	?_Tidy@?$vector@PEAVbus_device@@V?$allocator@PEAVbus_device@@@std@@@std@@AEAAXXZ ; std::vector<bus_device *,std::allocator<bus_device *> >::_Tidy
PUBLIC	?_Xlength@?$vector@PEAVbus_device@@V?$allocator@PEAVbus_device@@@std@@@std@@CAXXZ ; std::vector<bus_device *,std::allocator<bus_device *> >::_Xlength
PUBLIC	?_Orphan_range@?$vector@PEAVbus_device@@V?$allocator@PEAVbus_device@@@std@@@std@@AEBAXPEAPEAVbus_device@@0@Z ; std::vector<bus_device *,std::allocator<bus_device *> >::_Orphan_range
PUBLIC	??0bus@@QEAA@XZ					; bus::bus
PUBLIC	??1bus@@QEAA@XZ					; bus::~bus
PUBLIC	?writememory@bus@@QEAAXHE@Z			; bus::writememory
PUBLIC	?readmemory@bus@@QEAAEH@Z			; bus::readmemory
PUBLIC	?readmemory_as_word@bus@@QEAAGH@Z		; bus::readmemory_as_word
PUBLIC	?readmemory_as_word_wrap@bus@@QEAAGH@Z		; bus::readmemory_as_word_wrap
PUBLIC	?write@bus@@QEAAXE@Z				; bus::write
PUBLIC	?read@bus@@QEAAEXZ				; bus::read
PUBLIC	?nmi_pulled@bus@@QEAA_NXZ			; bus::nmi_pulled
PUBLIC	?irq_pulled@bus@@QEAA_NXZ			; bus::irq_pulled
PUBLIC	?registerdevice@bus@@QEAAXPEAVbus_device@@@Z	; bus::registerdevice
PUBLIC	?removedevice_select_base@bus@@QEAAXH@Z		; bus::removedevice_select_base
PUBLIC	?reportdevices@bus@@QEAAXXZ			; bus::reportdevices
PUBLIC	?emulate_bus_conflicts@bus@@QEAAX_N@Z		; bus::emulate_bus_conflicts
PUBLIC	?hex@std@@YAAEAVios_base@1@AEAV21@@Z		; std::hex
PUBLIC	??0?$_Vector_const_iterator@V?$_Vector_val@U?$_Simple_types@PEAVbus_device@@@std@@@std@@@std@@QEAA@PEAPEAVbus_device@@PEBU_Container_base12@1@@Z ; std::_Vector_const_iterator<std::_Vector_val<std::_Simple_types<bus_device *> > >::_Vector_const_iterator<std::_Vector_val<std::_Simple_types<bus_device *> > >
PUBLIC	?_Verify_offset@?$_Vector_const_iterator@V?$_Vector_val@U?$_Simple_types@PEAVbus_device@@@std@@@std@@@std@@QEBAX_J@Z ; std::_Vector_const_iterator<std::_Vector_val<std::_Simple_types<bus_device *> > >::_Verify_offset
PUBLIC	??Y?$_Vector_const_iterator@V?$_Vector_val@U?$_Simple_types@PEAVbus_device@@@std@@@std@@@std@@QEAAAEAV01@_J@Z ; std::_Vector_const_iterator<std::_Vector_val<std::_Simple_types<bus_device *> > >::operator+=
PUBLIC	??1?$_Vector_const_iterator@V?$_Vector_val@U?$_Simple_types@PEAVbus_device@@@std@@@std@@@std@@QEAA@XZ ; std::_Vector_const_iterator<std::_Vector_val<std::_Simple_types<bus_device *> > >::~_Vector_const_iterator<std::_Vector_val<std::_Simple_types<bus_device *> > >
PUBLIC	??0?$_Vector_const_iterator@V?$_Vector_val@U?$_Simple_types@PEAVbus_device@@@std@@@std@@@std@@QEAA@AEBV01@@Z ; std::_Vector_const_iterator<std::_Vector_val<std::_Simple_types<bus_device *> > >::_Vector_const_iterator<std::_Vector_val<std::_Simple_types<bus_device *> > >
PUBLIC	??0?$_Vector_const_iterator@V?$_Vector_val@U?$_Simple_types@PEAVbus_device@@@std@@@std@@@std@@QEAA@$$QEAV01@@Z ; std::_Vector_const_iterator<std::_Vector_val<std::_Simple_types<bus_device *> > >::_Vector_const_iterator<std::_Vector_val<std::_Simple_types<bus_device *> > >
PUBLIC	??0?$_Vector_iterator@V?$_Vector_val@U?$_Simple_types@PEAVbus_device@@@std@@@std@@@std@@QEAA@PEAPEAVbus_device@@PEBU_Container_base12@1@@Z ; std::_Vector_iterator<std::_Vector_val<std::_Simple_types<bus_device *> > >::_Vector_iterator<std::_Vector_val<std::_Simple_types<bus_device *> > >
PUBLIC	??Y?$_Vector_iterator@V?$_Vector_val@U?$_Simple_types@PEAVbus_device@@@std@@@std@@@std@@QEAAAEAV01@_J@Z ; std::_Vector_iterator<std::_Vector_val<std::_Simple_types<bus_device *> > >::operator+=
PUBLIC	??H?$_Vector_iterator@V?$_Vector_val@U?$_Simple_types@PEAVbus_device@@@std@@@std@@@std@@QEBA?AV01@_J@Z ; std::_Vector_iterator<std::_Vector_val<std::_Simple_types<bus_device *> > >::operator+
PUBLIC	??1?$_Vector_iterator@V?$_Vector_val@U?$_Simple_types@PEAVbus_device@@@std@@@std@@@std@@QEAA@XZ ; std::_Vector_iterator<std::_Vector_val<std::_Simple_types<bus_device *> > >::~_Vector_iterator<std::_Vector_val<std::_Simple_types<bus_device *> > >
PUBLIC	??0?$_Vector_iterator@V?$_Vector_val@U?$_Simple_types@PEAVbus_device@@@std@@@std@@@std@@QEAA@AEBV01@@Z ; std::_Vector_iterator<std::_Vector_val<std::_Simple_types<bus_device *> > >::_Vector_iterator<std::_Vector_val<std::_Simple_types<bus_device *> > >
PUBLIC	?__autoclassinit2@?$_Vector_iterator@V?$_Vector_val@U?$_Simple_types@PEAVbus_device@@@std@@@std@@@std@@QEAAX_K@Z ; std::_Vector_iterator<std::_Vector_val<std::_Simple_types<bus_device *> > >::__autoclassinit2
PUBLIC	??$?6U?$char_traits@D@std@@@std@@YAAEAV?$basic_ostream@DU?$char_traits@D@std@@@0@AEAV10@PEBD@Z ; std::operator<<<std::char_traits<char> >
PUBLIC	??$endl@DU?$char_traits@D@std@@@std@@YAAEAV?$basic_ostream@DU?$char_traits@D@std@@@0@AEAV10@@Z ; std::endl<char,std::char_traits<char> >
PUBLIC	??$addressof@V?$_Vector_val@U?$_Simple_types@PEAVbus_device@@@std@@@std@@@std@@YAPEAV?$_Vector_val@U?$_Simple_types@PEAVbus_device@@@std@@@0@AEAV10@@Z ; std::addressof<std::_Vector_val<std::_Simple_types<bus_device *> > >
PUBLIC	??$_Move_unchecked@PEAPEAVbus_device@@PEAPEAV1@@std@@YAPEAPEAVbus_device@@PEAPEAV1@00@Z ; std::_Move_unchecked<bus_device * *,bus_device * *>
PUBLIC	??$_Unfancy@PEAVbus_device@@@std@@YAPEAPEAVbus_device@@PEAPEAV1@@Z ; std::_Unfancy<bus_device *>
PUBLIC	??$destroy@PEAVbus_device@@@?$_Default_allocator_traits@V?$allocator@PEAVbus_device@@@std@@@std@@SAXAEAV?$allocator@PEAVbus_device@@@1@QEAPEAVbus_device@@@Z ; std::_Default_allocator_traits<std::allocator<bus_device *> >::destroy<bus_device *>
PUBLIC	??$emplace_back@AEBQEAVbus_device@@@?$vector@PEAVbus_device@@V?$allocator@PEAVbus_device@@@std@@@std@@QEAA@AEBQEAVbus_device@@@Z ; std::vector<bus_device *,std::allocator<bus_device *> >::emplace_back<bus_device * const &>
PUBLIC	??$forward@AEBQEAVbus_device@@@std@@YAAEBQEAVbus_device@@AEBQEAV1@@Z ; std::forward<bus_device * const &>
PUBLIC	??$_Emplace_back_with_unused_capacity@AEBQEAVbus_device@@@?$vector@PEAVbus_device@@V?$allocator@PEAVbus_device@@@std@@@std@@AEAA@AEBQEAVbus_device@@@Z ; std::vector<bus_device *,std::allocator<bus_device *> >::_Emplace_back_with_unused_capacity<bus_device * const &>
PUBLIC	??$construct@PEAVbus_device@@AEBQEAV1@@?$_Default_allocator_traits@V?$allocator@PEAVbus_device@@@std@@@std@@SAXAEAV?$allocator@PEAVbus_device@@@1@QEAPEAVbus_device@@AEBQEAV3@@Z ; std::_Default_allocator_traits<std::allocator<bus_device *> >::construct<bus_device *,bus_device * const &>
PUBLIC	??$_Emplace_reallocate@AEBQEAVbus_device@@@?$vector@PEAVbus_device@@V?$allocator@PEAVbus_device@@@std@@@std@@QEAAPEAPEAVbus_device@@QEAPEAV2@AEBQEAV2@@Z ; std::vector<bus_device *,std::allocator<bus_device *> >::_Emplace_reallocate<bus_device * const &>
PUBLIC	??0_Sentry_base@?$basic_ostream@DU?$char_traits@D@std@@@std@@QEAA@AEAV12@@Z ; std::basic_ostream<char,std::char_traits<char> >::_Sentry_base::_Sentry_base
PUBLIC	??1_Sentry_base@?$basic_ostream@DU?$char_traits@D@std@@@std@@QEAA@XZ ; std::basic_ostream<char,std::char_traits<char> >::_Sentry_base::~_Sentry_base
PUBLIC	??0sentry@?$basic_ostream@DU?$char_traits@D@std@@@std@@QEAA@AEAV12@@Z ; std::basic_ostream<char,std::char_traits<char> >::sentry::sentry
PUBLIC	??1sentry@?$basic_ostream@DU?$char_traits@D@std@@@std@@QEAA@XZ ; std::basic_ostream<char,std::char_traits<char> >::sentry::~sentry
PUBLIC	??Bsentry@?$basic_ostream@DU?$char_traits@D@std@@@std@@QEBA_NXZ ; std::basic_ostream<char,std::char_traits<char> >::sentry::operator bool
PUBLIC	??$?0$$V@?$_Compressed_pair@V?$allocator@PEAVbus_device@@@std@@V?$_Vector_val@U?$_Simple_types@PEAVbus_device@@@std@@@2@$00@std@@QEAA@U_Zero_then_variadic_args_t@1@@Z ; std::_Compressed_pair<std::allocator<bus_device *>,std::_Vector_val<std::_Simple_types<bus_device *> >,1>::_Compressed_pair<std::allocator<bus_device *>,std::_Vector_val<std::_Simple_types<bus_device *> >,1><>
PUBLIC	??$_Allocate@$0BA@U_Default_allocate_traits@std@@$0A@@std@@YAPEAX_K@Z ; std::_Allocate<16,std::_Default_allocate_traits,0>
PUBLIC	??$_Deallocate@$0BA@$0A@@std@@YAXPEAX_K@Z	; std::_Deallocate<16,0>
PUBLIC	?allocate@?$allocator@U_Container_proxy@std@@@std@@QEAAPEAU_Container_proxy@2@_K@Z ; std::allocator<std::_Container_proxy>::allocate
PUBLIC	??$?0PEAVbus_device@@@?$allocator@U_Container_proxy@std@@@std@@QEAA@AEBV?$allocator@PEAVbus_device@@@1@@Z ; std::allocator<std::_Container_proxy>::allocator<std::_Container_proxy><bus_device *>
PUBLIC	?deallocate@?$_Default_allocator_traits@V?$allocator@U_Container_proxy@std@@@std@@@std@@SAXAEAV?$allocator@U_Container_proxy@std@@@2@QEAU_Container_proxy@2@_K@Z ; std::_Default_allocator_traits<std::allocator<std::_Container_proxy> >::deallocate
PUBLIC	??$destroy@U_Container_proxy@std@@@?$_Default_allocator_traits@V?$allocator@U_Container_proxy@std@@@std@@@std@@SAXAEAV?$allocator@U_Container_proxy@std@@@1@QEAU_Container_proxy@1@@Z ; std::_Default_allocator_traits<std::allocator<std::_Container_proxy> >::destroy<std::_Container_proxy>
PUBLIC	??$_Deallocate_plain@V?$allocator@U_Container_proxy@std@@@std@@$0A@@std@@YAXAEAV?$allocator@U_Container_proxy@std@@@0@QEAU_Container_proxy@0@@Z ; std::_Deallocate_plain<std::allocator<std::_Container_proxy>,0>
PUBLIC	??$_Unfancy@U_Container_proxy@std@@@std@@YAPEAU_Container_proxy@0@PEAU10@@Z ; std::_Unfancy<std::_Container_proxy>
PUBLIC	??$construct@U_Container_proxy@std@@U12@@?$_Default_allocator_traits@V?$allocator@U_Container_proxy@std@@@std@@@std@@SAXAEAV?$allocator@U_Container_proxy@std@@@1@QEAU_Container_proxy@1@$$QEAU31@@Z ; std::_Default_allocator_traits<std::allocator<std::_Container_proxy> >::construct<std::_Container_proxy,std::_Container_proxy>
PUBLIC	??$_Destroy_range@V?$allocator@PEAVbus_device@@@std@@@std@@YAXPEAPEAVbus_device@@0AEAV?$allocator@PEAVbus_device@@@0@@Z ; std::_Destroy_range<std::allocator<bus_device *> >
PUBLIC	??$_Get_size_of_n@$0BA@@std@@YA_K_K@Z		; std::_Get_size_of_n<16>
PUBLIC	??$_Ptr_move_cat@PEAVbus_device@@PEAV1@@std@@YA?AU_Really_trivial_ptr_iterator_tag@0@AEBQEAPEAVbus_device@@0@Z ; std::_Ptr_move_cat<bus_device *,bus_device *>
PUBLIC	??$_Move_unchecked1@PEAPEAVbus_device@@PEAPEAV1@@std@@YAPEAPEAVbus_device@@PEAPEAV1@00U_Trivially_copyable_ptr_iterator_tag@0@@Z ; std::_Move_unchecked1<bus_device * *,bus_device * *>
PUBLIC	??$_Allocate_manually_vector_aligned@U_Default_allocate_traits@std@@@std@@YAPEAX_K@Z ; std::_Allocate_manually_vector_aligned<std::_Default_allocate_traits>
PUBLIC	??$forward@U_Container_proxy@std@@@std@@YA$$QEAU_Container_proxy@0@AEAU10@@Z ; std::forward<std::_Container_proxy>
PUBLIC	??$_Destroy_range1@V?$allocator@PEAVbus_device@@@std@@@std@@YAXPEAPEAVbus_device@@0AEAV?$allocator@PEAVbus_device@@@0@U?$integral_constant@_N$00@0@@Z ; std::_Destroy_range1<std::allocator<bus_device *> >
PUBLIC	??$_Uninitialized_move@PEAPEAVbus_device@@PEAPEAV1@V?$allocator@PEAVbus_device@@@std@@@std@@YAPEAPEAVbus_device@@QEAPEAV1@0PEAPEAV1@AEAV?$allocator@PEAVbus_device@@@0@@Z ; std::_Uninitialized_move<bus_device * *,bus_device * *,std::allocator<bus_device *> >
PUBLIC	??$_Get_size_of_n@$07@std@@YA_K_K@Z		; std::_Get_size_of_n<8>
PUBLIC	??$_Copy_memmove@PEAPEAVbus_device@@PEAPEAV1@@std@@YAPEAPEAVbus_device@@PEAPEAV1@00@Z ; std::_Copy_memmove<bus_device * *,bus_device * *>
PUBLIC	??$_Get_unwrapped@PEAVbus_device@@@std@@YAPEAPEAVbus_device@@QEAPEAV1@@Z ; std::_Get_unwrapped<bus_device *>
PUBLIC	??$_Idl_distance@PEAPEAVbus_device@@PEAPEAV1@@std@@YA@AEBQEAPEAVbus_device@@0@Z ; std::_Idl_distance<bus_device * *,bus_device * *>
PUBLIC	??$_Idl_distance1@PEAPEAVbus_device@@PEAPEAV1@@std@@YA_JAEBQEAPEAVbus_device@@0Urandom_access_iterator_tag@0@@Z ; std::_Idl_distance1<bus_device * *,bus_device * *>
PUBLIC	??$_Get_unwrapped_n@PEAVbus_device@@_J$0A@@std@@YAPEAPEAVbus_device@@QEAPEAV1@_J@Z ; std::_Get_unwrapped_n<bus_device *,__int64,0>
PUBLIC	??$_Uninitialized_move_al_unchecked@PEAVbus_device@@PEAV1@V?$allocator@PEAVbus_device@@@std@@@std@@YAPEAPEAVbus_device@@QEAPEAV1@00AEAV?$allocator@PEAVbus_device@@@0@U_Really_trivial_ptr_iterator_tag@0@U?$integral_constant@_N$00@0@@Z ; std::_Uninitialized_move_al_unchecked<bus_device *,bus_device *,std::allocator<bus_device *> >
PUBLIC	??$_Seek_wrapped@PEAVbus_device@@@std@@YAXAEAPEAPEAVbus_device@@QEAPEAV1@@Z ; std::_Seek_wrapped<bus_device *>
PUBLIC	__JustMyCode_Default
PUBLIC	??_C@_0BB@FCMFBGOM@invalid?5argument@		; `string'
PUBLIC	??_C@_02DKCKIIND@?$CFs@				; `string'
PUBLIC	??_C@_1CG@JNLFBNGN@?$AA?$CC?$AAi?$AAn?$AAv?$AAa?$AAl?$AAi?$AAd?$AA?5?$AAa?$AAr?$AAg?$AAu?$AAm?$AAe@ ; `string'
PUBLIC	??_C@_0BJ@LFDBABJJ@ITERATOR?5LIST?5CORRUPTED?$CB@ ; `string'
PUBLIC	??_C@_0GJ@EJIMBHLG@c?3?2program?5files?5?$CIx86?$CJ?2microsof@ ; `string'
PUBLIC	??_C@_1NC@FANNPLN@?$AAc?$AA?3?$AA?2?$AAp?$AAr?$AAo?$AAg?$AAr?$AAa?$AAm?$AA?5?$AAf?$AAi?$AAl?$AAe@ ; `string'
PUBLIC	??_C@_1EE@KLDMFDFL@?$AAs?$AAt?$AAd?$AA?3?$AA?3?$AA_?$AAI?$AAt?$AAe?$AAr?$AAa?$AAt?$AAo?$AAr?$AA_@ ; `string'
PUBLIC	??_C@_1DG@PLBPCAEM@?$AA?$CC?$AAI?$AAT?$AAE?$AAR?$AAA?$AAT?$AAO?$AAR?$AA?5?$AAL?$AAI?$AAS?$AAT?$AA?5@ ; `string'
PUBLIC	?__LINE__Var@?0??_Adjust_manually_vector_aligned@std@@YAXAEAPEAXAEA_K@Z@4JA ; `std::_Adjust_manually_vector_aligned'::`1'::__LINE__Var
PUBLIC	??_C@_0GJ@FFDBCFBF@c?3?2program?5files?5?$CIx86?$CJ?2microsof@ ; `string'
PUBLIC	??_C@_1NC@PIOGAKBO@?$AAc?$AA?3?$AA?2?$AAp?$AAr?$AAo?$AAg?$AAr?$AAa?$AAm?$AA?5?$AAf?$AAi?$AAl?$AAe@ ; `string'
PUBLIC	??_C@_1EK@NIFDJFDG@?$AAs?$AAt?$AAd?$AA?3?$AA?3?$AA_?$AAA?$AAd?$AAj?$AAu?$AAs?$AAt?$AA_?$AAm?$AAa@ ; `string'
PUBLIC	??_7device@@6B@					; device::`vftable'
PUBLIC	??_7bus_device@@6B@				; bus_device::`vftable'
PUBLIC	??_C@_01LBDDMOBJ@?$FN@				; `string'
PUBLIC	??_C@_0BE@IJMACPFN@registered?5device?5?$FL@	; `string'
PUBLIC	??_C@_0FA@CLHJNGFJ@?9?9?9?9?9?9?9?9?9?9?9?9?9?9?9?9?9?9?9?9?9?9?9?9?9?9?9?9?9?9?9@ ; `string'
PUBLIC	??_C@_05BDHPAJIP@?5?9?50x@			; `string'
PUBLIC	??_C@_0BO@KMHDIEBP@device?5operating?5range?5is?5?$FL0x@ ; `string'
PUBLIC	??_C@_0BM@GMLPKDLM@device?5adressing?5mask?5is?50x@ ; `string'
PUBLIC	??_C@_06LCIDCBMH@?5bytes@			; `string'
PUBLIC	??_C@_0BK@HECGDHBI@device?5reports?5size?5is?50x@ ; `string'
PUBLIC	??_C@_03ICICOMAL@yes@				; `string'
PUBLIC	??_C@_02KAJCLHKP@no@				; `string'
PUBLIC	??_C@_0BO@HBKBAGAM@full?5bus?5emulation?5required?$DP?5@ ; `string'
PUBLIC	??_C@_0BH@GDKDGNOP@Denver?5Base?5I?1O?5Device@	; `string'
PUBLIC	??_C@_0BD@MAHCLMLC@Denver?5Base?5Device@	; `string'
PUBLIC	??_C@_0BO@PFKOHNJC@vector?5subscript?5out?5of?5range@ ; `string'
PUBLIC	??_C@_0GH@FKAHJGEE@c?3?2program?5files?5?$CIx86?$CJ?2microsof@ ; `string'
PUBLIC	??_C@_1MO@OJBMIJHH@?$AAc?$AA?3?$AA?2?$AAp?$AAr?$AAo?$AAg?$AAr?$AAa?$AAm?$AA?5?$AAf?$AAi?$AAl?$AAe@ ; `string'
PUBLIC	??_C@_1KO@ONLFOBNG@?$AAs?$AAt?$AAd?$AA?3?$AA?3?$AAv?$AAe?$AAc?$AAt?$AAo?$AAr?$AA?$DM?$AAc?$AAl?$AAa@ ; `string'
PUBLIC	??_C@_1EA@LEKOKFNB@?$AA?$CC?$AAv?$AAe?$AAc?$AAt?$AAo?$AAr?$AA?5?$AAs?$AAu?$AAb?$AAs?$AAc?$AAr?$AAi@ ; `string'
PUBLIC	??_C@_0CE@EAMOGAIE@vector?5erase?5iterator?5outside?5r@ ; `string'
PUBLIC	??_C@_1KC@BCHEBHHN@?$AAs?$AAt?$AAd?$AA?3?$AA?3?$AAv?$AAe?$AAc?$AAt?$AAo?$AAr?$AA?$DM?$AAc?$AAl?$AAa@ ; `string'
PUBLIC	??_C@_1EM@BEMPOGMM@?$AA?$CC?$AAv?$AAe?$AAc?$AAt?$AAo?$AAr?$AA?5?$AAe?$AAr?$AAa?$AAs?$AAe?$AA?5?$AAi@ ; `string'
PUBLIC	??_C@_0CO@LHPFLLJB@cannot?5seek?5value?9initialized?5v@ ; `string'
PUBLIC	??_C@_1OK@MPDCGGGF@?$AAs?$AAt?$AAd?$AA?3?$AA?3?$AA_?$AAV?$AAe?$AAc?$AAt?$AAo?$AAr?$AA_?$AAc?$AAo@ ; `string'
PUBLIC	??_C@_1GA@EIHBFEJD@?$AA?$CC?$AAc?$AAa?$AAn?$AAn?$AAo?$AAt?$AA?5?$AAs?$AAe?$AAe?$AAk?$AA?5?$AAv?$AAa@ ; `string'
PUBLIC	??_C@_0CJ@DIFMEJBE@cannot?5seek?5vector?5iterator?5bef@ ; `string'
PUBLIC	??_C@_1FG@JCGKNFIB@?$AA?$CC?$AAc?$AAa?$AAn?$AAn?$AAo?$AAt?$AA?5?$AAs?$AAe?$AAe?$AAk?$AA?5?$AAv?$AAe@ ; `string'
PUBLIC	??_C@_0CG@JDIOCKHH@cannot?5seek?5vector?5iterator?5aft@ ; `string'
PUBLIC	??_C@_1FA@LCODAPOP@?$AA?$CC?$AAc?$AAa?$AAn?$AAn?$AAo?$AAt?$AA?5?$AAs?$AAe?$AAe?$AAk?$AA?5?$AAv?$AAe@ ; `string'
PUBLIC	??_C@_0BD@OLBABOEK@vector?$DMT?$DO?5too?5long@	; `string'
PUBLIC	??_C@_1EO@GFNCMDLA@?$AAs?$AAt?$AAd?$AA?3?$AA?3?$AA_?$AAA?$AAl?$AAl?$AAo?$AAc?$AAa?$AAt?$AAe?$AA_@ ; `string'
PUBLIC	??_R4device@@6B@				; device::`RTTI Complete Object Locator'
PUBLIC	??_R0?AVdevice@@@8				; device `RTTI Type Descriptor'
PUBLIC	??_R3device@@8					; device::`RTTI Class Hierarchy Descriptor'
PUBLIC	??_R2device@@8					; device::`RTTI Base Class Array'
PUBLIC	??_R1A@?0A@EA@device@@8				; device::`RTTI Base Class Descriptor at (0,-1,0,64)'
PUBLIC	??_R4bus_device@@6B@				; bus_device::`RTTI Complete Object Locator'
PUBLIC	??_R0?AVbus_device@@@8				; bus_device `RTTI Type Descriptor'
PUBLIC	??_R3bus_device@@8				; bus_device::`RTTI Class Hierarchy Descriptor'
PUBLIC	??_R2bus_device@@8				; bus_device::`RTTI Base Class Array'
PUBLIC	??_R1A@?0A@EA@bus_device@@8			; bus_device::`RTTI Base Class Descriptor at (0,-1,0,64)'
EXTRN	??2@YAPEAX_K@Z:PROC				; operator new
EXTRN	??3@YAXPEAX_K@Z:PROC				; operator delete
EXTRN	__imp__invalid_parameter:PROC
EXTRN	memmove:PROC
EXTRN	__imp_free:PROC
EXTRN	__imp_malloc:PROC
EXTRN	__imp_strcpy_s:PROC
EXTRN	strlen:PROC
EXTRN	__imp__CrtDbgReport:PROC
EXTRN	__imp_??0_Lockit@std@@QEAA@H@Z:PROC
EXTRN	__imp_??1_Lockit@std@@QEAA@XZ:PROC
EXTRN	?uncaught_exception@std@@YA_NXZ:PROC		; std::uncaught_exception
EXTRN	?_Xlength_error@std@@YAXPEBD@Z:PROC		; std::_Xlength_error
EXTRN	??_Ebus_device@@UEAAPEAXI@Z:PROC		; bus_device::`vector deleting destructor'
EXTRN	__imp_?good@ios_base@std@@QEBA_NXZ:PROC
EXTRN	__imp_?flags@ios_base@std@@QEBAHXZ:PROC
EXTRN	__imp_?setf@ios_base@std@@QEAAHHH@Z:PROC
EXTRN	__imp_?width@ios_base@std@@QEBA_JXZ:PROC
EXTRN	__imp_?width@ios_base@std@@QEAA_J_J@Z:PROC
EXTRN	__imp_?sputc@?$basic_streambuf@DU?$char_traits@D@std@@@std@@QEAAHD@Z:PROC
EXTRN	__imp_?sputn@?$basic_streambuf@DU?$char_traits@D@std@@@std@@QEAA_JPEBD_J@Z:PROC
EXTRN	__imp_?setstate@?$basic_ios@DU?$char_traits@D@std@@@std@@QEAAXH_N@Z:PROC
EXTRN	__imp_?tie@?$basic_ios@DU?$char_traits@D@std@@@std@@QEBAPEAV?$basic_ostream@DU?$char_traits@D@std@@@2@XZ:PROC
EXTRN	__imp_?rdbuf@?$basic_ios@DU?$char_traits@D@std@@@std@@QEBAPEAV?$basic_streambuf@DU?$char_traits@D@std@@@2@XZ:PROC
EXTRN	__imp_?fill@?$basic_ios@DU?$char_traits@D@std@@@std@@QEBADXZ:PROC
EXTRN	__imp_?widen@?$basic_ios@DU?$char_traits@D@std@@@std@@QEBADD@Z:PROC
EXTRN	__imp_?_Osfx@?$basic_ostream@DU?$char_traits@D@std@@@std@@QEAAXXZ:PROC
EXTRN	__imp_??6?$basic_ostream@DU?$char_traits@D@std@@@std@@QEAAAEAV01@P6AAEAV01@AEAV01@@Z@Z:PROC
EXTRN	__imp_??6?$basic_ostream@DU?$char_traits@D@std@@@std@@QEAAAEAV01@P6AAEAVios_base@1@AEAV21@@Z@Z:PROC
EXTRN	__imp_??6?$basic_ostream@DU?$char_traits@D@std@@@std@@QEAAAEAV01@H@Z:PROC
EXTRN	__imp_?put@?$basic_ostream@DU?$char_traits@D@std@@@std@@QEAAAEAV12@D@Z:PROC
EXTRN	__imp_?flush@?$basic_ostream@DU?$char_traits@D@std@@@std@@QEAAAEAV12@XZ:PROC
EXTRN	_CxxThrowException:PROC
EXTRN	_RTC_CheckStackVars:PROC
EXTRN	_RTC_InitBase:PROC
EXTRN	_RTC_Shutdown:PROC
EXTRN	__CheckForDebuggerJustMyCode:PROC
EXTRN	__CxxFrameHandler3:PROC
EXTRN	__GSHandlerCheck:PROC
EXTRN	__GSHandlerCheck_EH:PROC
EXTRN	__security_check_cookie:PROC
EXTRN	??_7type_info@@6B@:BYTE				; type_info::`vftable'
EXTRN	__imp_?cout@std@@3V?$basic_ostream@DU?$char_traits@D@std@@@1@A:BYTE
EXTRN	__security_cookie:QWORD
;	COMDAT pdata
pdata	SEGMENT
$pdata$?__empty_global_delete@@YAXPEAX@Z DD imagerel $LN3
	DD	imagerel $LN3+64
	DD	imagerel $unwind$?__empty_global_delete@@YAXPEAX@Z
pdata	ENDS
;	COMDAT pdata
pdata	SEGMENT
$pdata$?__empty_global_delete@@YAXPEAX_K@Z DD imagerel $LN3
	DD	imagerel $LN3+69
	DD	imagerel $unwind$?__empty_global_delete@@YAXPEAX_K@Z
pdata	ENDS
;	COMDAT pdata
pdata	SEGMENT
$pdata$??2@YAPEAX_KPEAX@Z DD imagerel $LN3
	DD	imagerel $LN3+88
	DD	imagerel $unwind$??2@YAPEAX_KPEAX@Z
pdata	ENDS
;	COMDAT pdata
pdata	SEGMENT
$pdata$?max@?$numeric_limits@_J@std@@SA_JXZ DD imagerel $LN3
	DD	imagerel $LN3+74
	DD	imagerel $unwind$?max@?$numeric_limits@_J@std@@SA_JXZ
pdata	ENDS
;	COMDAT pdata
pdata	SEGMENT
$pdata$?length@?$char_traits@D@std@@SA_KQEBD@Z DD imagerel $LN3
	DD	imagerel $LN3+89
	DD	imagerel $unwind$?length@?$char_traits@D@std@@SA_KQEBD@Z
pdata	ENDS
;	COMDAT pdata
pdata	SEGMENT
$pdata$?eq_int_type@?$char_traits@D@std@@SA_NAEBH0@Z DD imagerel $LN5
	DD	imagerel $LN5+130
	DD	imagerel $unwind$?eq_int_type@?$char_traits@D@std@@SA_NAEBH0@Z
pdata	ENDS
;	COMDAT pdata
pdata	SEGMENT
$pdata$?eof@?$char_traits@D@std@@SAHXZ DD imagerel $LN3
	DD	imagerel $LN3+69
	DD	imagerel $unwind$?eof@?$char_traits@D@std@@SAHXZ
pdata	ENDS
;	COMDAT pdata
pdata	SEGMENT
$pdata$??0_Container_proxy@std@@QEAA@XZ DD imagerel $LN3
	DD	imagerel $LN3+112
	DD	imagerel $unwind$??0_Container_proxy@std@@QEAA@XZ
pdata	ENDS
;	COMDAT pdata
pdata	SEGMENT
$pdata$??0_Container_base12@std@@QEAA@XZ DD imagerel $LN3
	DD	imagerel $LN3+85
	DD	imagerel $unwind$??0_Container_base12@std@@QEAA@XZ
pdata	ENDS
;	COMDAT pdata
pdata	SEGMENT
$pdata$?_Getpfirst@_Container_base12@std@@QEBAPEAPEAU_Iterator_base12@2@XZ DD imagerel $LN5
	DD	imagerel $LN5+130
	DD	imagerel $unwind$?_Getpfirst@_Container_base12@std@@QEBAPEAPEAU_Iterator_base12@2@XZ
pdata	ENDS
;	COMDAT pdata
pdata	SEGMENT
$pdata$?_Orphan_all@_Container_base12@std@@QEAAXXZ DD imagerel $LN7
	DD	imagerel $LN7+248
	DD	imagerel $unwind$?_Orphan_all@_Container_base12@std@@QEAAXXZ
pdata	ENDS
;	COMDAT pdata
pdata	SEGMENT
$pdata$??0_Iterator_base12@std@@QEAA@XZ DD imagerel $LN3
	DD	imagerel $LN3+112
	DD	imagerel $unwind$??0_Iterator_base12@std@@QEAA@XZ
pdata	ENDS
;	COMDAT pdata
pdata	SEGMENT
$pdata$??0_Iterator_base12@std@@QEAA@AEBU01@@Z DD imagerel $LN3
	DD	imagerel $LN3+137
	DD	imagerel $unwind$??0_Iterator_base12@std@@QEAA@AEBU01@@Z
pdata	ENDS
;	COMDAT pdata
pdata	SEGMENT
$pdata$??4_Iterator_base12@std@@QEAAAEAU01@AEBU01@@Z DD imagerel $LN6
	DD	imagerel $LN6+247
	DD	imagerel $unwind$??4_Iterator_base12@std@@QEAAAEAU01@AEBU01@@Z
pdata	ENDS
;	COMDAT pdata
pdata	SEGMENT
$pdata$??1_Iterator_base12@std@@QEAA@XZ DD imagerel $LN3
	DD	imagerel $LN3+166
	DD	imagerel $unwind$??1_Iterator_base12@std@@QEAA@XZ
pdata	ENDS
;	COMDAT pdata
pdata	SEGMENT
$pdata$?_Adopt@_Iterator_base12@std@@QEAAXPEBU_Container_base12@2@@Z DD imagerel $LN6
	DD	imagerel $LN6+301
	DD	imagerel $unwind$?_Adopt@_Iterator_base12@std@@QEAAXPEBU_Container_base12@2@@Z
pdata	ENDS
;	COMDAT pdata
pdata	SEGMENT
$pdata$?_Clrcont@_Iterator_base12@std@@QEAAXXZ DD imagerel $LN3
	DD	imagerel $LN3+90
	DD	imagerel $unwind$?_Clrcont@_Iterator_base12@std@@QEAAXXZ
pdata	ENDS
;	COMDAT pdata
pdata	SEGMENT
$pdata$?_Getcont@_Iterator_base12@std@@QEBAPEBU_Container_base12@2@XZ DD imagerel $LN5
	DD	imagerel $LN5+129
	DD	imagerel $unwind$?_Getcont@_Iterator_base12@std@@QEBAPEBU_Container_base12@2@XZ
pdata	ENDS
;	COMDAT pdata
pdata	SEGMENT
$pdata$?_Getpnext@_Iterator_base12@std@@QEAAPEAPEAU12@XZ DD imagerel $LN3
	DD	imagerel $LN3+87
	DD	imagerel $unwind$?_Getpnext@_Iterator_base12@std@@QEAAPEAPEAU12@XZ
pdata	ENDS
;	COMDAT pdata
pdata	SEGMENT
$pdata$?_Orphan_me@_Iterator_base12@std@@QEAAXXZ DD imagerel $LN15
	DD	imagerel $LN15+313
	DD	imagerel $unwind$?_Orphan_me@_Iterator_base12@std@@QEAAXXZ
pdata	ENDS
;	COMDAT pdata
pdata	SEGMENT
$pdata$?_Allocate@_Default_allocate_traits@std@@SAPEAX_K@Z DD imagerel $LN3
	DD	imagerel $LN3+76
	DD	imagerel $unwind$?_Allocate@_Default_allocate_traits@std@@SAPEAX_K@Z
pdata	ENDS
;	COMDAT pdata
pdata	SEGMENT
$pdata$?_Adjust_manually_vector_aligned@std@@YAXAEAPEAXAEA_K@Z DD imagerel $LN21
	DD	imagerel $LN21+476
	DD	imagerel $unwind$?_Adjust_manually_vector_aligned@std@@YAXAEAPEAXAEA_K@Z
pdata	ENDS
;	COMDAT pdata
pdata	SEGMENT
$pdata$??$_Min_value@_K@std@@YAAEB_KAEB_K0@Z DD imagerel $LN5
	DD	imagerel $LN5+154
	DD	imagerel $unwind$??$_Min_value@_K@std@@YAAEB_KAEB_K0@Z
pdata	ENDS
;	COMDAT pdata
pdata	SEGMENT
$pdata$??0device@@QEAA@XZ DD imagerel $LN3
	DD	imagerel $LN3+167
	DD	imagerel $unwind$??0device@@QEAA@XZ
pdata	ENDS
;	COMDAT pdata
pdata	SEGMENT
$pdata$??1device@@QEAA@XZ DD imagerel $LN3
	DD	imagerel $LN3+111
	DD	imagerel $unwind$??1device@@QEAA@XZ
pdata	ENDS
;	COMDAT pdata
pdata	SEGMENT
$pdata$?rundevice@device@@UEAAHH@Z DD imagerel $LN3
	DD	imagerel $LN3+74
	DD	imagerel $unwind$?rundevice@device@@UEAAHH@Z
pdata	ENDS
;	COMDAT pdata
pdata	SEGMENT
$pdata$?get_device_descriptor@device@@QEAAPEADXZ DD imagerel $LN3
	DD	imagerel $LN3+75
	DD	imagerel $unwind$?get_device_descriptor@device@@QEAAPEADXZ
pdata	ENDS
;	COMDAT pdata
pdata	SEGMENT
$pdata$?dma@device@@UEAAXPEAE_N1@Z DD imagerel $LN3
	DD	imagerel $LN3+79
	DD	imagerel $unwind$?dma@device@@UEAAXPEAE_N1@Z
pdata	ENDS
;	COMDAT pdata
pdata	SEGMENT
$pdata$??0bus_device@@QEAA@XZ DD imagerel $LN7
	DD	imagerel $LN7+231
	DD	imagerel $unwind$??0bus_device@@QEAA@XZ
pdata	ENDS
;	COMDAT pdata
pdata	SEGMENT
$pdata$?dtor$0@?0???0bus_device@@QEAA@XZ@4HA DD imagerel ?dtor$0@?0???0bus_device@@QEAA@XZ@4HA
	DD	imagerel ?dtor$0@?0???0bus_device@@QEAA@XZ@4HA+39
	DD	imagerel $unwind$?dtor$0@?0???0bus_device@@QEAA@XZ@4HA
pdata	ENDS
;	COMDAT pdata
pdata	SEGMENT
$pdata$??1bus_device@@UEAA@XZ DD imagerel $LN3
	DD	imagerel $LN3+106
	DD	imagerel $unwind$??1bus_device@@UEAA@XZ
pdata	ENDS
;	COMDAT pdata
pdata	SEGMENT
$pdata$?compute_addr_from_layout@bus_device@@QEAAGG@Z DD imagerel $LN11
	DD	imagerel $LN11+320
	DD	imagerel $unwind$?compute_addr_from_layout@bus_device@@QEAAGG@Z
pdata	ENDS
;	COMDAT pdata
pdata	SEGMENT
$pdata$?swappins@bus_device@@QEAAXHH@Z DD imagerel $LN3
	DD	imagerel $LN3+166
	DD	imagerel $unwind$?swappins@bus_device@@QEAAXHH@Z
pdata	ENDS
;	COMDAT pdata
pdata	SEGMENT
$pdata$?groundpin@bus_device@@QEAAXH@Z DD imagerel $LN3
	DD	imagerel $LN3+98
	DD	imagerel $unwind$?groundpin@bus_device@@QEAAXH@Z
pdata	ENDS
;	COMDAT pdata
pdata	SEGMENT
$pdata$?vccpin@bus_device@@QEAAXH@Z DD imagerel $LN3
	DD	imagerel $LN3+98
	DD	imagerel $unwind$?vccpin@bus_device@@QEAAXH@Z
pdata	ENDS
;	COMDAT pdata
pdata	SEGMENT
$pdata$?resetpins_to_default@bus_device@@QEAAXXZ DD imagerel $LN6
	DD	imagerel $LN6+119
	DD	imagerel $unwind$?resetpins_to_default@bus_device@@QEAAXXZ
pdata	ENDS
;	COMDAT pdata
pdata	SEGMENT
$pdata$?write@bus_device@@UEAAXHHE@Z DD imagerel $LN3
	DD	imagerel $LN3+78
	DD	imagerel $unwind$?write@bus_device@@UEAAXHHE@Z
pdata	ENDS
;	COMDAT pdata
pdata	SEGMENT
$pdata$?read@bus_device@@UEAAEHH@Z DD imagerel $LN3
	DD	imagerel $LN3+75
	DD	imagerel $unwind$?read@bus_device@@UEAAEHH@Z
pdata	ENDS
;	COMDAT pdata
pdata	SEGMENT
$pdata$??_Gbus_device@@UEAAPEAXI@Z DD imagerel $LN4
	DD	imagerel $LN4+105
	DD	imagerel $unwind$??_Gbus_device@@UEAAPEAXI@Z
pdata	ENDS
;	COMDAT pdata
pdata	SEGMENT
$pdata$??0?$allocator@PEAVbus_device@@@std@@QEAA@XZ DD imagerel $LN3
	DD	imagerel $LN3+83
	DD	imagerel $unwind$??0?$allocator@PEAVbus_device@@@std@@QEAA@XZ
pdata	ENDS
;	COMDAT pdata
pdata	SEGMENT
$pdata$?deallocate@?$allocator@PEAVbus_device@@@std@@QEAAXQEAPEAVbus_device@@_K@Z DD imagerel $LN3
	DD	imagerel $LN3+100
	DD	imagerel $unwind$?deallocate@?$allocator@PEAVbus_device@@@std@@QEAAXQEAPEAVbus_device@@_K@Z
pdata	ENDS
;	COMDAT pdata
pdata	SEGMENT
$pdata$?allocate@?$allocator@PEAVbus_device@@@std@@QEAAPEAPEAVbus_device@@_K@Z DD imagerel $LN3
	DD	imagerel $LN3+89
	DD	imagerel $unwind$?allocate@?$allocator@PEAVbus_device@@@std@@QEAAPEAPEAVbus_device@@_K@Z
pdata	ENDS
;	COMDAT pdata
pdata	SEGMENT
$pdata$?max_size@?$_Default_allocator_traits@V?$allocator@PEAVbus_device@@@std@@@std@@SA_KAEBV?$allocator@PEAVbus_device@@@2@@Z DD imagerel $LN3
	DD	imagerel $LN3+86
	DD	imagerel $unwind$?max_size@?$_Default_allocator_traits@V?$allocator@PEAVbus_device@@@std@@@std@@SA_KAEBV?$allocator@PEAVbus_device@@@2@@Z
pdata	ENDS
;	COMDAT pdata
pdata	SEGMENT
$pdata$??0?$_Vector_alloc@U?$_Vec_base_types@PEAVbus_device@@V?$allocator@PEAVbus_device@@@std@@@std@@@std@@QEAA@XZ DD imagerel $LN3
	DD	imagerel $LN3+105
	DD	imagerel $unwind$??0?$_Vector_alloc@U?$_Vec_base_types@PEAVbus_device@@V?$allocator@PEAVbus_device@@@std@@@std@@@std@@QEAA@XZ
pdata	ENDS
;	COMDAT pdata
pdata	SEGMENT
$pdata$??1?$_Vector_alloc@U?$_Vec_base_types@PEAVbus_device@@V?$allocator@PEAVbus_device@@@std@@@std@@@std@@QEAA@XZ DD imagerel $LN3
	DD	imagerel $LN3+89
	DD	imagerel $unwind$??1?$_Vector_alloc@U?$_Vec_base_types@PEAVbus_device@@V?$allocator@PEAVbus_device@@@std@@@std@@@std@@QEAA@XZ
pdata	ENDS
;	COMDAT pdata
pdata	SEGMENT
$pdata$?_Alloc_proxy@?$_Vector_alloc@U?$_Vec_base_types@PEAVbus_device@@V?$allocator@PEAVbus_device@@@std@@@std@@@std@@QEAAXXZ DD imagerel $LN3
	DD	imagerel $LN3+292
	DD	imagerel $unwind$?_Alloc_proxy@?$_Vector_alloc@U?$_Vec_base_types@PEAVbus_device@@V?$allocator@PEAVbus_device@@@std@@@std@@@std@@QEAAXXZ
pdata	ENDS
;	COMDAT pdata
pdata	SEGMENT
$pdata$?_Free_proxy@?$_Vector_alloc@U?$_Vec_base_types@PEAVbus_device@@V?$allocator@PEAVbus_device@@@std@@@std@@@std@@QEAAXXZ DD imagerel $LN3
	DD	imagerel $LN3+215
	DD	imagerel $unwind$?_Free_proxy@?$_Vector_alloc@U?$_Vec_base_types@PEAVbus_device@@V?$allocator@PEAVbus_device@@@std@@@std@@@std@@QEAAXXZ
pdata	ENDS
;	COMDAT pdata
pdata	SEGMENT
$pdata$?_Getpfirst@?$_Vector_alloc@U?$_Vec_base_types@PEAVbus_device@@V?$allocator@PEAVbus_device@@@std@@@std@@@std@@QEBAPEAPEAU_Iterator_base12@2@XZ DD imagerel $LN3
	DD	imagerel $LN3+84
	DD	imagerel $unwind$?_Getpfirst@?$_Vector_alloc@U?$_Vec_base_types@PEAVbus_device@@V?$allocator@PEAVbus_device@@@std@@@std@@@std@@QEBAPEAPEAU_Iterator_base12@2@XZ
pdata	ENDS
;	COMDAT pdata
pdata	SEGMENT
$pdata$?_Myproxy@?$_Vector_alloc@U?$_Vec_base_types@PEAVbus_device@@V?$allocator@PEAVbus_device@@@std@@@std@@@std@@QEAAAEAPEAU_Container_proxy@2@XZ DD imagerel $LN3
	DD	imagerel $LN3+89
	DD	imagerel $unwind$?_Myproxy@?$_Vector_alloc@U?$_Vec_base_types@PEAVbus_device@@V?$allocator@PEAVbus_device@@@std@@@std@@@std@@QEAAAEAPEAU_Container_proxy@2@XZ
pdata	ENDS
;	COMDAT pdata
pdata	SEGMENT
$pdata$?_Orphan_all@?$_Vector_alloc@U?$_Vec_base_types@PEAVbus_device@@V?$allocator@PEAVbus_device@@@std@@@std@@@std@@QEAAXXZ DD imagerel $LN3
	DD	imagerel $LN3+84
	DD	imagerel $unwind$?_Orphan_all@?$_Vector_alloc@U?$_Vec_base_types@PEAVbus_device@@V?$allocator@PEAVbus_device@@@std@@@std@@@std@@QEAAXXZ
pdata	ENDS
;	COMDAT pdata
pdata	SEGMENT
$pdata$?_Getal@?$_Vector_alloc@U?$_Vec_base_types@PEAVbus_device@@V?$allocator@PEAVbus_device@@@std@@@std@@@std@@QEAAAEAV?$allocator@PEAVbus_device@@@2@XZ DD imagerel $LN3
	DD	imagerel $LN3+92
	DD	imagerel $unwind$?_Getal@?$_Vector_alloc@U?$_Vec_base_types@PEAVbus_device@@V?$allocator@PEAVbus_device@@@std@@@std@@@std@@QEAAAEAV?$allocator@PEAVbus_device@@@2@XZ
pdata	ENDS
;	COMDAT pdata
pdata	SEGMENT
$pdata$?_Getal@?$_Vector_alloc@U?$_Vec_base_types@PEAVbus_device@@V?$allocator@PEAVbus_device@@@std@@@std@@@std@@QEBAAEBV?$allocator@PEAVbus_device@@@2@XZ DD imagerel $LN3
	DD	imagerel $LN3+92
	DD	imagerel $unwind$?_Getal@?$_Vector_alloc@U?$_Vec_base_types@PEAVbus_device@@V?$allocator@PEAVbus_device@@@std@@@std@@@std@@QEBAAEBV?$allocator@PEAVbus_device@@@2@XZ
pdata	ENDS
;	COMDAT pdata
pdata	SEGMENT
$pdata$?_Get_data@?$_Vector_alloc@U?$_Vec_base_types@PEAVbus_device@@V?$allocator@PEAVbus_device@@@std@@@std@@@std@@QEAAAEAV?$_Vector_val@U?$_Simple_types@PEAVbus_device@@@std@@@2@XZ DD imagerel $LN3
	DD	imagerel $LN3+92
	DD	imagerel $unwind$?_Get_data@?$_Vector_alloc@U?$_Vec_base_types@PEAVbus_device@@V?$allocator@PEAVbus_device@@@std@@@std@@@std@@QEAAAEAV?$_Vector_val@U?$_Simple_types@PEAVbus_device@@@std@@@2@XZ
pdata	ENDS
;	COMDAT pdata
pdata	SEGMENT
$pdata$?_Get_data@?$_Vector_alloc@U?$_Vec_base_types@PEAVbus_device@@V?$allocator@PEAVbus_device@@@std@@@std@@@std@@QEBAAEBV?$_Vector_val@U?$_Simple_types@PEAVbus_device@@@std@@@2@XZ DD imagerel $LN3
	DD	imagerel $LN3+92
	DD	imagerel $unwind$?_Get_data@?$_Vector_alloc@U?$_Vec_base_types@PEAVbus_device@@V?$allocator@PEAVbus_device@@@std@@@std@@@std@@QEBAAEBV?$_Vector_val@U?$_Simple_types@PEAVbus_device@@@std@@@2@XZ
pdata	ENDS
;	COMDAT pdata
pdata	SEGMENT
$pdata$?_Myfirst@?$_Vector_alloc@U?$_Vec_base_types@PEAVbus_device@@V?$allocator@PEAVbus_device@@@std@@@std@@@std@@QEAAAEAPEAPEAVbus_device@@XZ DD imagerel $LN3
	DD	imagerel $LN3+93
	DD	imagerel $unwind$?_Myfirst@?$_Vector_alloc@U?$_Vec_base_types@PEAVbus_device@@V?$allocator@PEAVbus_device@@@std@@@std@@@std@@QEAAAEAPEAPEAVbus_device@@XZ
pdata	ENDS
;	COMDAT pdata
pdata	SEGMENT
$pdata$?_Myfirst@?$_Vector_alloc@U?$_Vec_base_types@PEAVbus_device@@V?$allocator@PEAVbus_device@@@std@@@std@@@std@@QEBAAEBQEAPEAVbus_device@@XZ DD imagerel $LN3
	DD	imagerel $LN3+93
	DD	imagerel $unwind$?_Myfirst@?$_Vector_alloc@U?$_Vec_base_types@PEAVbus_device@@V?$allocator@PEAVbus_device@@@std@@@std@@@std@@QEBAAEBQEAPEAVbus_device@@XZ
pdata	ENDS
;	COMDAT pdata
pdata	SEGMENT
$pdata$?_Mylast@?$_Vector_alloc@U?$_Vec_base_types@PEAVbus_device@@V?$allocator@PEAVbus_device@@@std@@@std@@@std@@QEAAAEAPEAPEAVbus_device@@XZ DD imagerel $LN3
	DD	imagerel $LN3+93
	DD	imagerel $unwind$?_Mylast@?$_Vector_alloc@U?$_Vec_base_types@PEAVbus_device@@V?$allocator@PEAVbus_device@@@std@@@std@@@std@@QEAAAEAPEAPEAVbus_device@@XZ
pdata	ENDS
;	COMDAT pdata
pdata	SEGMENT
$pdata$?_Mylast@?$_Vector_alloc@U?$_Vec_base_types@PEAVbus_device@@V?$allocator@PEAVbus_device@@@std@@@std@@@std@@QEBAAEBQEAPEAVbus_device@@XZ DD imagerel $LN3
	DD	imagerel $LN3+93
	DD	imagerel $unwind$?_Mylast@?$_Vector_alloc@U?$_Vec_base_types@PEAVbus_device@@V?$allocator@PEAVbus_device@@@std@@@std@@@std@@QEBAAEBQEAPEAVbus_device@@XZ
pdata	ENDS
;	COMDAT pdata
pdata	SEGMENT
$pdata$?_Myend@?$_Vector_alloc@U?$_Vec_base_types@PEAVbus_device@@V?$allocator@PEAVbus_device@@@std@@@std@@@std@@QEAAAEAPEAPEAVbus_device@@XZ DD imagerel $LN3
	DD	imagerel $LN3+93
	DD	imagerel $unwind$?_Myend@?$_Vector_alloc@U?$_Vec_base_types@PEAVbus_device@@V?$allocator@PEAVbus_device@@@std@@@std@@@std@@QEAAAEAPEAPEAVbus_device@@XZ
pdata	ENDS
;	COMDAT pdata
pdata	SEGMENT
$pdata$?_Myend@?$_Vector_alloc@U?$_Vec_base_types@PEAVbus_device@@V?$allocator@PEAVbus_device@@@std@@@std@@@std@@QEBAAEBQEAPEAVbus_device@@XZ DD imagerel $LN3
	DD	imagerel $LN3+93
	DD	imagerel $unwind$?_Myend@?$_Vector_alloc@U?$_Vec_base_types@PEAVbus_device@@V?$allocator@PEAVbus_device@@@std@@@std@@@std@@QEBAAEBQEAPEAVbus_device@@XZ
pdata	ENDS
;	COMDAT pdata
pdata	SEGMENT
$pdata$??0?$_Vector_val@U?$_Simple_types@PEAVbus_device@@@std@@@std@@QEAA@XZ DD imagerel $LN3
	DD	imagerel $LN3+128
	DD	imagerel $unwind$??0?$_Vector_val@U?$_Simple_types@PEAVbus_device@@@std@@@std@@QEAA@XZ
pdata	ENDS
;	COMDAT pdata
pdata	SEGMENT
$pdata$?_Get_first@?$_Compressed_pair@V?$allocator@PEAVbus_device@@@std@@V?$_Vector_val@U?$_Simple_types@PEAVbus_device@@@std@@@2@$00@std@@QEAAAEAV?$allocator@PEAVbus_device@@@2@XZ DD imagerel $LN3
	DD	imagerel $LN3+83
	DD	imagerel $unwind$?_Get_first@?$_Compressed_pair@V?$allocator@PEAVbus_device@@@std@@V?$_Vector_val@U?$_Simple_types@PEAVbus_device@@@std@@@2@$00@std@@QEAAAEAV?$allocator@PEAVbus_device@@@2@XZ
pdata	ENDS
;	COMDAT pdata
pdata	SEGMENT
$pdata$?_Get_first@?$_Compressed_pair@V?$allocator@PEAVbus_device@@@std@@V?$_Vector_val@U?$_Simple_types@PEAVbus_device@@@std@@@2@$00@std@@QEBAAEBV?$allocator@PEAVbus_device@@@2@XZ DD imagerel $LN3
	DD	imagerel $LN3+83
	DD	imagerel $unwind$?_Get_first@?$_Compressed_pair@V?$allocator@PEAVbus_device@@@std@@V?$_Vector_val@U?$_Simple_types@PEAVbus_device@@@std@@@2@$00@std@@QEBAAEBV?$allocator@PEAVbus_device@@@2@XZ
pdata	ENDS
;	COMDAT pdata
pdata	SEGMENT
$pdata$?_Get_second@?$_Compressed_pair@V?$allocator@PEAVbus_device@@@std@@V?$_Vector_val@U?$_Simple_types@PEAVbus_device@@@std@@@2@$00@std@@QEAAAEAV?$_Vector_val@U?$_Simple_types@PEAVbus_device@@@std@@@2@XZ DD imagerel $LN3
	DD	imagerel $LN3+83
	DD	imagerel $unwind$?_Get_second@?$_Compressed_pair@V?$allocator@PEAVbus_device@@@std@@V?$_Vector_val@U?$_Simple_types@PEAVbus_device@@@std@@@2@$00@std@@QEAAAEAV?$_Vector_val@U?$_Simple_types@PEAVbus_device@@@std@@@2@XZ
pdata	ENDS
;	COMDAT pdata
pdata	SEGMENT
$pdata$?_Get_second@?$_Compressed_pair@V?$allocator@PEAVbus_device@@@std@@V?$_Vector_val@U?$_Simple_types@PEAVbus_device@@@std@@@2@$00@std@@QEBAAEBV?$_Vector_val@U?$_Simple_types@PEAVbus_device@@@std@@@2@XZ DD imagerel $LN3
	DD	imagerel $LN3+83
	DD	imagerel $unwind$?_Get_second@?$_Compressed_pair@V?$allocator@PEAVbus_device@@@std@@V?$_Vector_val@U?$_Simple_types@PEAVbus_device@@@std@@@2@$00@std@@QEBAAEBV?$_Vector_val@U?$_Simple_types@PEAVbus_device@@@std@@@2@XZ
pdata	ENDS
;	COMDAT pdata
pdata	SEGMENT
$pdata$??0?$vector@PEAVbus_device@@V?$allocator@PEAVbus_device@@@std@@@std@@QEAA@XZ DD imagerel $LN3
	DD	imagerel $LN3+96
	DD	imagerel $unwind$??0?$vector@PEAVbus_device@@V?$allocator@PEAVbus_device@@@std@@@std@@QEAA@XZ
pdata	ENDS
;	COMDAT pdata
pdata	SEGMENT
$pdata$??1?$vector@PEAVbus_device@@V?$allocator@PEAVbus_device@@@std@@@std@@QEAA@XZ DD imagerel $LN3
	DD	imagerel $LN3+102
	DD	imagerel $unwind$??1?$vector@PEAVbus_device@@V?$allocator@PEAVbus_device@@@std@@@std@@QEAA@XZ
pdata	ENDS
;	COMDAT pdata
pdata	SEGMENT
$pdata$?push_back@?$vector@PEAVbus_device@@V?$allocator@PEAVbus_device@@@std@@@std@@QEAAXAEBQEAVbus_device@@@Z DD imagerel $LN3
	DD	imagerel $LN3+88
	DD	imagerel $unwind$?push_back@?$vector@PEAVbus_device@@V?$allocator@PEAVbus_device@@@std@@@std@@QEAAXAEBQEAVbus_device@@@Z
pdata	ENDS
;	COMDAT pdata
pdata	SEGMENT
$pdata$?erase@?$vector@PEAVbus_device@@V?$allocator@PEAVbus_device@@@std@@@std@@QEAA?AV?$_Vector_iterator@V?$_Vector_val@U?$_Simple_types@PEAVbus_device@@@std@@@std@@@2@V?$_Vector_const_iterator@V?$_Vector_val@U?$_Simple_types@PEAVbus_device@@@std@@@std@@@2@@Z DD imagerel $LN15
	DD	imagerel $LN15+592
	DD	imagerel $unwind$?erase@?$vector@PEAVbus_device@@V?$allocator@PEAVbus_device@@@std@@@std@@QEAA?AV?$_Vector_iterator@V?$_Vector_val@U?$_Simple_types@PEAVbus_device@@@std@@@std@@@2@V?$_Vector_const_iterator@V?$_Vector_val@U?$_Simple_types@PEAVbus_device@@@std@@@std@@@2@@Z
pdata	ENDS
;	COMDAT pdata
pdata	SEGMENT
$pdata$?dtor$0@?0??erase@?$vector@PEAVbus_device@@V?$allocator@PEAVbus_device@@@std@@@std@@QEAA?AV?$_Vector_iterator@V?$_Vector_val@U?$_Simple_types@PEAVbus_device@@@std@@@std@@@2@V?$_Vector_const_iterator@V?$_Vector_val@U?$_Simple_types@PEAVbus_device@@@std@@@std@@@2@@Z@4HA DD imagerel ?dtor$0@?0??erase@?$vector@PEAVbus_device@@V?$allocator@PEAVbus_device@@@std@@@std@@QEAA?AV?$_Vector_iterator@V?$_Vector_val@U?$_Simple_types@PEAVbus_device@@@std@@@std@@@2@V?$_Vector_const_iterator@V?$_Vector_val@U?$_Simple_types@PEAVbus_device@@@std@@@std@@@2@@Z@4HA
	DD	imagerel ?dtor$0@?0??erase@?$vector@PEAVbus_device@@V?$allocator@PEAVbus_device@@@std@@@std@@QEAA?AV?$_Vector_iterator@V?$_Vector_val@U?$_Simple_types@PEAVbus_device@@@std@@@std@@@2@V?$_Vector_const_iterator@V?$_Vector_val@U?$_Simple_types@PEAVbus_device@@@std@@@std@@@2@@Z@4HA+39
	DD	imagerel $unwind$?dtor$0@?0??erase@?$vector@PEAVbus_device@@V?$allocator@PEAVbus_device@@@std@@@std@@QEAA?AV?$_Vector_iterator@V?$_Vector_val@U?$_Simple_types@PEAVbus_device@@@std@@@std@@@2@V?$_Vector_const_iterator@V?$_Vector_val@U?$_Simple_types@PEAVbus_device@@@std@@@std@@@2@@Z@4HA
pdata	ENDS
;	COMDAT pdata
pdata	SEGMENT
$pdata$?begin@?$vector@PEAVbus_device@@V?$allocator@PEAVbus_device@@@std@@@std@@QEAA?AV?$_Vector_iterator@V?$_Vector_val@U?$_Simple_types@PEAVbus_device@@@std@@@std@@@2@XZ DD imagerel $LN3
	DD	imagerel $LN3+156
	DD	imagerel $unwind$?begin@?$vector@PEAVbus_device@@V?$allocator@PEAVbus_device@@@std@@@std@@QEAA?AV?$_Vector_iterator@V?$_Vector_val@U?$_Simple_types@PEAVbus_device@@@std@@@std@@@2@XZ
pdata	ENDS
;	COMDAT pdata
pdata	SEGMENT
$pdata$?_Unchecked_begin@?$vector@PEAVbus_device@@V?$allocator@PEAVbus_device@@@std@@@std@@QEAAPEAPEAVbus_device@@XZ DD imagerel $LN3
	DD	imagerel $LN3+92
	DD	imagerel $unwind$?_Unchecked_begin@?$vector@PEAVbus_device@@V?$allocator@PEAVbus_device@@@std@@@std@@QEAAPEAPEAVbus_device@@XZ
pdata	ENDS
;	COMDAT pdata
pdata	SEGMENT
$pdata$?_Unchecked_end@?$vector@PEAVbus_device@@V?$allocator@PEAVbus_device@@@std@@@std@@QEAAPEAPEAVbus_device@@XZ DD imagerel $LN3
	DD	imagerel $LN3+92
	DD	imagerel $unwind$?_Unchecked_end@?$vector@PEAVbus_device@@V?$allocator@PEAVbus_device@@@std@@@std@@QEAAPEAPEAVbus_device@@XZ
pdata	ENDS
;	COMDAT pdata
pdata	SEGMENT
$pdata$?size@?$vector@PEAVbus_device@@V?$allocator@PEAVbus_device@@@std@@@std@@QEBA_KXZ DD imagerel $LN3
	DD	imagerel $LN3+132
	DD	imagerel $unwind$?size@?$vector@PEAVbus_device@@V?$allocator@PEAVbus_device@@@std@@@std@@QEBA_KXZ
pdata	ENDS
;	COMDAT pdata
pdata	SEGMENT
$pdata$?max_size@?$vector@PEAVbus_device@@V?$allocator@PEAVbus_device@@@std@@@std@@QEBA_KXZ DD imagerel $LN3
	DD	imagerel $LN3+141
	DD	imagerel $unwind$?max_size@?$vector@PEAVbus_device@@V?$allocator@PEAVbus_device@@@std@@@std@@QEBA_KXZ
pdata	ENDS
;	COMDAT pdata
pdata	SEGMENT
$pdata$?capacity@?$vector@PEAVbus_device@@V?$allocator@PEAVbus_device@@@std@@@std@@QEBA_KXZ DD imagerel $LN3
	DD	imagerel $LN3+132
	DD	imagerel $unwind$?capacity@?$vector@PEAVbus_device@@V?$allocator@PEAVbus_device@@@std@@@std@@QEBA_KXZ
pdata	ENDS
;	COMDAT pdata
pdata	SEGMENT
$pdata$?_Has_unused_capacity@?$vector@PEAVbus_device@@V?$allocator@PEAVbus_device@@@std@@@std@@AEBA_NXZ DD imagerel $LN5
	DD	imagerel $LN5+153
	DD	imagerel $unwind$?_Has_unused_capacity@?$vector@PEAVbus_device@@V?$allocator@PEAVbus_device@@@std@@@std@@AEBA_NXZ
pdata	ENDS
;	COMDAT pdata
pdata	SEGMENT
$pdata$??A?$vector@PEAVbus_device@@V?$allocator@PEAVbus_device@@@std@@@std@@QEAAAEAPEAVbus_device@@_K@Z DD imagerel $LN12
	DD	imagerel $LN12+235
	DD	imagerel $unwind$??A?$vector@PEAVbus_device@@V?$allocator@PEAVbus_device@@@std@@@std@@QEAAAEAPEAVbus_device@@_K@Z
pdata	ENDS
;	COMDAT pdata
pdata	SEGMENT
$pdata$?_Umove@?$vector@PEAVbus_device@@V?$allocator@PEAVbus_device@@@std@@@std@@AEAAPEAPEAVbus_device@@PEAPEAV3@00@Z DD imagerel $LN3
	DD	imagerel $LN3+120
	DD	imagerel $unwind$?_Umove@?$vector@PEAVbus_device@@V?$allocator@PEAVbus_device@@@std@@@std@@AEAAPEAPEAVbus_device@@PEAPEAV3@00@Z
pdata	ENDS
;	COMDAT pdata
pdata	SEGMENT
$pdata$?_Umove_if_noexcept1@?$vector@PEAVbus_device@@V?$allocator@PEAVbus_device@@@std@@@std@@AEAAXPEAPEAVbus_device@@00U?$integral_constant@_N$00@2@@Z DD imagerel $LN3
	DD	imagerel $LN3+120
	DD	imagerel $unwind$?_Umove_if_noexcept1@?$vector@PEAVbus_device@@V?$allocator@PEAVbus_device@@@std@@@std@@AEAAXPEAPEAVbus_device@@00U?$integral_constant@_N$00@2@@Z
pdata	ENDS
;	COMDAT pdata
pdata	SEGMENT
$pdata$?_Umove_if_noexcept@?$vector@PEAVbus_device@@V?$allocator@PEAVbus_device@@@std@@@std@@AEAAXPEAPEAVbus_device@@00@Z DD imagerel $LN3
	DD	imagerel $LN3+142
	DD	imagerel $unwind$?_Umove_if_noexcept@?$vector@PEAVbus_device@@V?$allocator@PEAVbus_device@@@std@@@std@@AEAAXPEAPEAVbus_device@@00@Z
pdata	ENDS
;	COMDAT pdata
pdata	SEGMENT
$pdata$?_Destroy@?$vector@PEAVbus_device@@V?$allocator@PEAVbus_device@@@std@@@std@@AEAAXPEAPEAVbus_device@@0@Z DD imagerel $LN3
	DD	imagerel $LN3+108
	DD	imagerel $unwind$?_Destroy@?$vector@PEAVbus_device@@V?$allocator@PEAVbus_device@@@std@@@std@@AEAAXPEAPEAVbus_device@@0@Z
pdata	ENDS
;	COMDAT pdata
pdata	SEGMENT
$pdata$?_Calculate_growth@?$vector@PEAVbus_device@@V?$allocator@PEAVbus_device@@@std@@@std@@AEBA_K_K@Z DD imagerel $LN5
	DD	imagerel $LN5+200
	DD	imagerel $unwind$?_Calculate_growth@?$vector@PEAVbus_device@@V?$allocator@PEAVbus_device@@@std@@@std@@AEBA_K_K@Z
pdata	ENDS
;	COMDAT pdata
pdata	SEGMENT
$pdata$?_Change_array@?$vector@PEAVbus_device@@V?$allocator@PEAVbus_device@@@std@@@std@@AEAAXQEAPEAVbus_device@@_K1@Z DD imagerel $LN4
	DD	imagerel $LN4+363
	DD	imagerel $unwind$?_Change_array@?$vector@PEAVbus_device@@V?$allocator@PEAVbus_device@@@std@@@std@@AEAAXQEAPEAVbus_device@@_K1@Z
pdata	ENDS
;	COMDAT pdata
pdata	SEGMENT
$pdata$?_Tidy@?$vector@PEAVbus_device@@V?$allocator@PEAVbus_device@@@std@@@std@@AEAAXXZ DD imagerel $LN4
	DD	imagerel $LN4+289
	DD	imagerel $unwind$?_Tidy@?$vector@PEAVbus_device@@V?$allocator@PEAVbus_device@@@std@@@std@@AEAAXXZ
pdata	ENDS
;	COMDAT pdata
pdata	SEGMENT
$pdata$?_Xlength@?$vector@PEAVbus_device@@V?$allocator@PEAVbus_device@@@std@@@std@@CAXXZ DD imagerel $LN3
	DD	imagerel $LN3+64
	DD	imagerel $unwind$?_Xlength@?$vector@PEAVbus_device@@V?$allocator@PEAVbus_device@@@std@@@std@@CAXXZ
pdata	ENDS
;	COMDAT pdata
pdata	SEGMENT
$pdata$?_Orphan_range@?$vector@PEAVbus_device@@V?$allocator@PEAVbus_device@@@std@@@std@@AEBAXPEAPEAVbus_device@@0@Z DD imagerel $LN10
	DD	imagerel $LN10+286
	DD	imagerel $unwind$?_Orphan_range@?$vector@PEAVbus_device@@V?$allocator@PEAVbus_device@@@std@@@std@@AEBAXPEAPEAVbus_device@@0@Z
pdata	ENDS
;	COMDAT pdata
pdata	SEGMENT
$pdata$?dtor$0@?0??_Orphan_range@?$vector@PEAVbus_device@@V?$allocator@PEAVbus_device@@@std@@@std@@AEBAXPEAPEAVbus_device@@0@Z@4HA DD imagerel ?dtor$0@?0??_Orphan_range@?$vector@PEAVbus_device@@V?$allocator@PEAVbus_device@@@std@@@std@@AEBAXPEAPEAVbus_device@@0@Z@4HA
	DD	imagerel ?dtor$0@?0??_Orphan_range@?$vector@PEAVbus_device@@V?$allocator@PEAVbus_device@@@std@@@std@@AEBAXPEAPEAVbus_device@@0@Z@4HA+37
	DD	imagerel $unwind$?dtor$0@?0??_Orphan_range@?$vector@PEAVbus_device@@V?$allocator@PEAVbus_device@@@std@@@std@@AEBAXPEAPEAVbus_device@@0@Z@4HA
pdata	ENDS
;	COMDAT pdata
pdata	SEGMENT
$pdata$??0bus@@QEAA@XZ DD imagerel $LN4
	DD	imagerel $LN4+101
	DD	imagerel $unwind$??0bus@@QEAA@XZ
pdata	ENDS
;	COMDAT pdata
pdata	SEGMENT
$pdata$??1bus@@QEAA@XZ DD imagerel $LN8
	DD	imagerel $LN8+257
	DD	imagerel $unwind$??1bus@@QEAA@XZ
pdata	ENDS
;	COMDAT pdata
pdata	SEGMENT
$pdata$?writememory@bus@@QEAAXHE@Z DD imagerel $LN3
	DD	imagerel $LN3+107
	DD	imagerel $unwind$?writememory@bus@@QEAAXHE@Z
pdata	ENDS
;	COMDAT pdata
pdata	SEGMENT
$pdata$?readmemory@bus@@QEAAEH@Z DD imagerel $LN3
	DD	imagerel $LN3+95
	DD	imagerel $unwind$?readmemory@bus@@QEAAEH@Z
pdata	ENDS
;	COMDAT pdata
pdata	SEGMENT
$pdata$?readmemory_as_word@bus@@QEAAGH@Z DD imagerel $LN3
	DD	imagerel $LN3+160
	DD	imagerel $unwind$?readmemory_as_word@bus@@QEAAGH@Z
pdata	ENDS
;	COMDAT pdata
pdata	SEGMENT
$pdata$?readmemory_as_word_wrap@bus@@QEAAGH@Z DD imagerel $LN3
	DD	imagerel $LN3+176
	DD	imagerel $unwind$?readmemory_as_word_wrap@bus@@QEAAGH@Z
pdata	ENDS
;	COMDAT pdata
pdata	SEGMENT
$pdata$?write@bus@@QEAAXE@Z DD imagerel $LN8
	DD	imagerel $LN8+294
	DD	imagerel $unwind$?write@bus@@QEAAXE@Z
pdata	ENDS
;	COMDAT pdata
pdata	SEGMENT
$pdata$?read@bus@@QEAAEXZ DD imagerel $LN8
	DD	imagerel $LN8+329
	DD	imagerel $unwind$?read@bus@@QEAAEXZ
pdata	ENDS
;	COMDAT pdata
pdata	SEGMENT
$pdata$?nmi_pulled@bus@@QEAA_NXZ DD imagerel $LN7
	DD	imagerel $LN7+183
	DD	imagerel $unwind$?nmi_pulled@bus@@QEAA_NXZ
pdata	ENDS
;	COMDAT pdata
pdata	SEGMENT
$pdata$?irq_pulled@bus@@QEAA_NXZ DD imagerel $LN7
	DD	imagerel $LN7+160
	DD	imagerel $unwind$?irq_pulled@bus@@QEAA_NXZ
pdata	ENDS
;	COMDAT pdata
pdata	SEGMENT
$pdata$?registerdevice@bus@@QEAAXPEAVbus_device@@@Z DD imagerel $LN3
	DD	imagerel $LN3+95
	DD	imagerel $unwind$?registerdevice@bus@@QEAAXPEAVbus_device@@@Z
pdata	ENDS
;	COMDAT pdata
pdata	SEGMENT
$pdata$?removedevice_select_base@bus@@QEAAXH@Z DD imagerel $LN11
	DD	imagerel $LN11+379
	DD	imagerel $unwind$?removedevice_select_base@bus@@QEAAXH@Z
pdata	ENDS
;	COMDAT pdata
pdata	SEGMENT
$pdata$?dtor$0@?0??removedevice_select_base@bus@@QEAAXH@Z@4HA DD imagerel ?dtor$0@?0??removedevice_select_base@bus@@QEAAXH@Z@4HA
	DD	imagerel ?dtor$0@?0??removedevice_select_base@bus@@QEAAXH@Z@4HA+39
	DD	imagerel $unwind$?dtor$0@?0??removedevice_select_base@bus@@QEAAXH@Z@4HA
pdata	ENDS
;	COMDAT pdata
pdata	SEGMENT
$pdata$?dtor$1@?0??removedevice_select_base@bus@@QEAAXH@Z@4HA DD imagerel ?dtor$1@?0??removedevice_select_base@bus@@QEAAXH@Z@4HA
	DD	imagerel ?dtor$1@?0??removedevice_select_base@bus@@QEAAXH@Z@4HA+39
	DD	imagerel $unwind$?dtor$1@?0??removedevice_select_base@bus@@QEAAXH@Z@4HA
pdata	ENDS
;	COMDAT pdata
pdata	SEGMENT
$pdata$?reportdevices@bus@@QEAAXXZ DD imagerel $LN8
	DD	imagerel $LN8+629
	DD	imagerel $unwind$?reportdevices@bus@@QEAAXXZ
pdata	ENDS
;	COMDAT pdata
pdata	SEGMENT
$pdata$?emulate_bus_conflicts@bus@@QEAAX_N@Z DD imagerel $LN3
	DD	imagerel $LN3+85
	DD	imagerel $unwind$?emulate_bus_conflicts@bus@@QEAAX_N@Z
pdata	ENDS
;	COMDAT pdata
pdata	SEGMENT
$pdata$?hex@std@@YAAEAVios_base@1@AEAV21@@Z DD imagerel $LN3
	DD	imagerel $LN3+95
	DD	imagerel $unwind$?hex@std@@YAAEAVios_base@1@AEAV21@@Z
pdata	ENDS
;	COMDAT pdata
pdata	SEGMENT
$pdata$??0?$_Vector_const_iterator@V?$_Vector_val@U?$_Simple_types@PEAVbus_device@@@std@@@std@@@std@@QEAA@PEAPEAVbus_device@@PEBU_Container_base12@1@@Z DD imagerel $LN4
	DD	imagerel $LN4+130
	DD	imagerel $unwind$??0?$_Vector_const_iterator@V?$_Vector_val@U?$_Simple_types@PEAVbus_device@@@std@@@std@@@std@@QEAA@PEAPEAVbus_device@@PEBU_Container_base12@1@@Z
pdata	ENDS
;	COMDAT pdata
pdata	SEGMENT
$pdata$?_Verify_offset@?$_Vector_const_iterator@V?$_Vector_val@U?$_Simple_types@PEAVbus_device@@@std@@@std@@@std@@QEBAX_J@Z DD imagerel $LN33
	DD	imagerel $LN33+564
	DD	imagerel $unwind$?_Verify_offset@?$_Vector_const_iterator@V?$_Vector_val@U?$_Simple_types@PEAVbus_device@@@std@@@std@@@std@@QEBAX_J@Z
pdata	ENDS
;	COMDAT pdata
pdata	SEGMENT
$pdata$??Y?$_Vector_const_iterator@V?$_Vector_val@U?$_Simple_types@PEAVbus_device@@@std@@@std@@@std@@QEAAAEAV01@_J@Z DD imagerel $LN3
	DD	imagerel $LN3+128
	DD	imagerel $unwind$??Y?$_Vector_const_iterator@V?$_Vector_val@U?$_Simple_types@PEAVbus_device@@@std@@@std@@@std@@QEAAAEAV01@_J@Z
pdata	ENDS
;	COMDAT pdata
pdata	SEGMENT
$pdata$??1?$_Vector_const_iterator@V?$_Vector_val@U?$_Simple_types@PEAVbus_device@@@std@@@std@@@std@@QEAA@XZ DD imagerel $LN3
	DD	imagerel $LN3+64
	DD	imagerel $unwind$??1?$_Vector_const_iterator@V?$_Vector_val@U?$_Simple_types@PEAVbus_device@@@std@@@std@@@std@@QEAA@XZ
pdata	ENDS
;	COMDAT pdata
pdata	SEGMENT
$pdata$??0?$_Vector_const_iterator@V?$_Vector_val@U?$_Simple_types@PEAVbus_device@@@std@@@std@@@std@@QEAA@AEBV01@@Z DD imagerel $LN3
	DD	imagerel $LN3+105
	DD	imagerel $unwind$??0?$_Vector_const_iterator@V?$_Vector_val@U?$_Simple_types@PEAVbus_device@@@std@@@std@@@std@@QEAA@AEBV01@@Z
pdata	ENDS
;	COMDAT pdata
pdata	SEGMENT
$pdata$??0?$_Vector_const_iterator@V?$_Vector_val@U?$_Simple_types@PEAVbus_device@@@std@@@std@@@std@@QEAA@$$QEAV01@@Z DD imagerel $LN3
	DD	imagerel $LN3+105
	DD	imagerel $unwind$??0?$_Vector_const_iterator@V?$_Vector_val@U?$_Simple_types@PEAVbus_device@@@std@@@std@@@std@@QEAA@$$QEAV01@@Z
pdata	ENDS
;	COMDAT pdata
pdata	SEGMENT
$pdata$??0?$_Vector_iterator@V?$_Vector_val@U?$_Simple_types@PEAVbus_device@@@std@@@std@@@std@@QEAA@PEAPEAVbus_device@@PEBU_Container_base12@1@@Z DD imagerel $LN4
	DD	imagerel $LN4+107
	DD	imagerel $unwind$??0?$_Vector_iterator@V?$_Vector_val@U?$_Simple_types@PEAVbus_device@@@std@@@std@@@std@@QEAA@PEAPEAVbus_device@@PEBU_Container_base12@1@@Z
pdata	ENDS
;	COMDAT pdata
pdata	SEGMENT
$pdata$??Y?$_Vector_iterator@V?$_Vector_val@U?$_Simple_types@PEAVbus_device@@@std@@@std@@@std@@QEAAAEAV01@_J@Z DD imagerel $LN3
	DD	imagerel $LN3+95
	DD	imagerel $unwind$??Y?$_Vector_iterator@V?$_Vector_val@U?$_Simple_types@PEAVbus_device@@@std@@@std@@@std@@QEAAAEAV01@_J@Z
pdata	ENDS
;	COMDAT pdata
pdata	SEGMENT
$pdata$??H?$_Vector_iterator@V?$_Vector_val@U?$_Simple_types@PEAVbus_device@@@std@@@std@@@std@@QEBA?AV01@_J@Z DD imagerel $LN6
	DD	imagerel $LN6+242
	DD	imagerel $unwind$??H?$_Vector_iterator@V?$_Vector_val@U?$_Simple_types@PEAVbus_device@@@std@@@std@@@std@@QEBA?AV01@_J@Z
pdata	ENDS
;	COMDAT pdata
pdata	SEGMENT
$pdata$?dtor$0@?0???H?$_Vector_iterator@V?$_Vector_val@U?$_Simple_types@PEAVbus_device@@@std@@@std@@@std@@QEBA?AV01@_J@Z@4HA DD imagerel ?dtor$0@?0???H?$_Vector_iterator@V?$_Vector_val@U?$_Simple_types@PEAVbus_device@@@std@@@std@@@std@@QEBA?AV01@_J@Z@4HA
	DD	imagerel ?dtor$0@?0???H?$_Vector_iterator@V?$_Vector_val@U?$_Simple_types@PEAVbus_device@@@std@@@std@@@std@@QEBA?AV01@_J@Z@4HA+36
	DD	imagerel $unwind$?dtor$0@?0???H?$_Vector_iterator@V?$_Vector_val@U?$_Simple_types@PEAVbus_device@@@std@@@std@@@std@@QEBA?AV01@_J@Z@4HA
pdata	ENDS
;	COMDAT pdata
pdata	SEGMENT
$pdata$??1?$_Vector_iterator@V?$_Vector_val@U?$_Simple_types@PEAVbus_device@@@std@@@std@@@std@@QEAA@XZ DD imagerel $LN3
	DD	imagerel $LN3+64
	DD	imagerel $unwind$??1?$_Vector_iterator@V?$_Vector_val@U?$_Simple_types@PEAVbus_device@@@std@@@std@@@std@@QEAA@XZ
pdata	ENDS
;	COMDAT pdata
pdata	SEGMENT
$pdata$??0?$_Vector_iterator@V?$_Vector_val@U?$_Simple_types@PEAVbus_device@@@std@@@std@@@std@@QEAA@AEBV01@@Z DD imagerel $LN3
	DD	imagerel $LN3+83
	DD	imagerel $unwind$??0?$_Vector_iterator@V?$_Vector_val@U?$_Simple_types@PEAVbus_device@@@std@@@std@@@std@@QEAA@AEBV01@@Z
pdata	ENDS
;	COMDAT pdata
pdata	SEGMENT
$pdata$?__autoclassinit2@?$_Vector_iterator@V?$_Vector_val@U?$_Simple_types@PEAVbus_device@@@std@@@std@@@std@@QEAAX_K@Z DD imagerel $LN3
	DD	imagerel $LN3+73
	DD	imagerel $unwind$?__autoclassinit2@?$_Vector_iterator@V?$_Vector_val@U?$_Simple_types@PEAVbus_device@@@std@@@std@@@std@@QEAAX_K@Z
pdata	ENDS
;	COMDAT pdata
pdata	SEGMENT
$pdata$??$?6U?$char_traits@D@std@@@std@@YAAEAV?$basic_ostream@DU?$char_traits@D@std@@@0@AEAV10@PEBD@Z DD imagerel $LN25
	DD	imagerel $LN25+1045
	DD	imagerel $unwind$??$?6U?$char_traits@D@std@@@std@@YAAEAV?$basic_ostream@DU?$char_traits@D@std@@@0@AEAV10@PEBD@Z
pdata	ENDS
;	COMDAT pdata
pdata	SEGMENT
$pdata$?dtor$0@?0???$?6U?$char_traits@D@std@@@std@@YAAEAV?$basic_ostream@DU?$char_traits@D@std@@@0@AEAV10@PEBD@Z@4HA DD imagerel ?dtor$0@?0???$?6U?$char_traits@D@std@@@std@@YAAEAV?$basic_ostream@DU?$char_traits@D@std@@@0@AEAV10@PEBD@Z@4HA
	DD	imagerel ?dtor$0@?0???$?6U?$char_traits@D@std@@@std@@YAAEAV?$basic_ostream@DU?$char_traits@D@std@@@0@AEAV10@PEBD@Z@4HA+36
	DD	imagerel $unwind$?dtor$0@?0???$?6U?$char_traits@D@std@@@std@@YAAEAV?$basic_ostream@DU?$char_traits@D@std@@@0@AEAV10@PEBD@Z@4HA
pdata	ENDS
;	COMDAT pdata
pdata	SEGMENT
$pdata$?catch$1@?0???$?6U?$char_traits@D@std@@@std@@YAAEAV?$basic_ostream@DU?$char_traits@D@std@@@0@AEAV10@PEBD@Z@4HA DD imagerel ?catch$1@?0???$?6U?$char_traits@D@std@@@std@@YAAEAV?$basic_ostream@DU?$char_traits@D@std@@@0@AEAV10@PEBD@Z@4HA
	DD	imagerel ?catch$1@?0???$?6U?$char_traits@D@std@@@std@@YAAEAV?$basic_ostream@DU?$char_traits@D@std@@@0@AEAV10@PEBD@Z@4HA+80
	DD	imagerel $unwind$?catch$1@?0???$?6U?$char_traits@D@std@@@std@@YAAEAV?$basic_ostream@DU?$char_traits@D@std@@@0@AEAV10@PEBD@Z@4HA
pdata	ENDS
;	COMDAT pdata
pdata	SEGMENT
$pdata$??$endl@DU?$char_traits@D@std@@@std@@YAAEAV?$basic_ostream@DU?$char_traits@D@std@@@0@AEAV10@@Z DD imagerel $LN3
	DD	imagerel $LN3+138
	DD	imagerel $unwind$??$endl@DU?$char_traits@D@std@@@std@@YAAEAV?$basic_ostream@DU?$char_traits@D@std@@@0@AEAV10@@Z
pdata	ENDS
;	COMDAT pdata
pdata	SEGMENT
$pdata$??$addressof@V?$_Vector_val@U?$_Simple_types@PEAVbus_device@@@std@@@std@@@std@@YAPEAV?$_Vector_val@U?$_Simple_types@PEAVbus_device@@@std@@@0@AEAV10@@Z DD imagerel $LN3
	DD	imagerel $LN3+83
	DD	imagerel $unwind$??$addressof@V?$_Vector_val@U?$_Simple_types@PEAVbus_device@@@std@@@std@@@std@@YAPEAV?$_Vector_val@U?$_Simple_types@PEAVbus_device@@@std@@@0@AEAV10@@Z
pdata	ENDS
;	COMDAT pdata
pdata	SEGMENT
$pdata$??$_Move_unchecked@PEAPEAVbus_device@@PEAPEAV1@@std@@YAPEAPEAVbus_device@@PEAPEAV1@00@Z DD imagerel $LN3
	DD	imagerel $LN3+134
	DD	imagerel $unwind$??$_Move_unchecked@PEAPEAVbus_device@@PEAPEAV1@@std@@YAPEAPEAVbus_device@@PEAPEAV1@00@Z
pdata	ENDS
;	COMDAT pdata
pdata	SEGMENT
$pdata$??$_Unfancy@PEAVbus_device@@@std@@YAPEAPEAVbus_device@@PEAPEAV1@@Z DD imagerel $LN3
	DD	imagerel $LN3+71
	DD	imagerel $unwind$??$_Unfancy@PEAVbus_device@@@std@@YAPEAPEAVbus_device@@PEAPEAV1@@Z
pdata	ENDS
;	COMDAT pdata
pdata	SEGMENT
$pdata$??$destroy@PEAVbus_device@@@?$_Default_allocator_traits@V?$allocator@PEAVbus_device@@@std@@@std@@SAXAEAV?$allocator@PEAVbus_device@@@1@QEAPEAVbus_device@@@Z DD imagerel $LN3
	DD	imagerel $LN3+69
	DD	imagerel $unwind$??$destroy@PEAVbus_device@@@?$_Default_allocator_traits@V?$allocator@PEAVbus_device@@@std@@@std@@SAXAEAV?$allocator@PEAVbus_device@@@1@QEAPEAVbus_device@@@Z
pdata	ENDS
;	COMDAT pdata
pdata	SEGMENT
$pdata$??$emplace_back@AEBQEAVbus_device@@@?$vector@PEAVbus_device@@V?$allocator@PEAVbus_device@@@std@@@std@@QEAA@AEBQEAVbus_device@@@Z DD imagerel $LN4
	DD	imagerel $LN4+177
	DD	imagerel $unwind$??$emplace_back@AEBQEAVbus_device@@@?$vector@PEAVbus_device@@V?$allocator@PEAVbus_device@@@std@@@std@@QEAA@AEBQEAVbus_device@@@Z
pdata	ENDS
;	COMDAT pdata
pdata	SEGMENT
$pdata$??$forward@AEBQEAVbus_device@@@std@@YAAEBQEAVbus_device@@AEBQEAV1@@Z DD imagerel $LN3
	DD	imagerel $LN3+83
	DD	imagerel $unwind$??$forward@AEBQEAVbus_device@@@std@@YAAEBQEAVbus_device@@AEBQEAV1@@Z
pdata	ENDS
;	COMDAT pdata
pdata	SEGMENT
$pdata$??$_Emplace_back_with_unused_capacity@AEBQEAVbus_device@@@?$vector@PEAVbus_device@@V?$allocator@PEAVbus_device@@@std@@@std@@AEAA@AEBQEAVbus_device@@@Z DD imagerel $LN3
	DD	imagerel $LN3+273
	DD	imagerel $unwind$??$_Emplace_back_with_unused_capacity@AEBQEAVbus_device@@@?$vector@PEAVbus_device@@V?$allocator@PEAVbus_device@@@std@@@std@@AEAA@AEBQEAVbus_device@@@Z
pdata	ENDS
;	COMDAT pdata
pdata	SEGMENT
$pdata$??$construct@PEAVbus_device@@AEBQEAV1@@?$_Default_allocator_traits@V?$allocator@PEAVbus_device@@@std@@@std@@SAXAEAV?$allocator@PEAVbus_device@@@1@QEAPEAVbus_device@@AEBQEAV3@@Z DD imagerel $LN3
	DD	imagerel $LN3+123
	DD	imagerel $unwind$??$construct@PEAVbus_device@@AEBQEAV1@@?$_Default_allocator_traits@V?$allocator@PEAVbus_device@@@std@@@std@@SAXAEAV?$allocator@PEAVbus_device@@@1@QEAPEAVbus_device@@AEBQEAV3@@Z
pdata	ENDS
;	COMDAT pdata
pdata	SEGMENT
$pdata$??$_Emplace_reallocate@AEBQEAVbus_device@@@?$vector@PEAVbus_device@@V?$allocator@PEAVbus_device@@@std@@@std@@QEAAPEAPEAVbus_device@@QEAPEAV2@AEBQEAV2@@Z DD imagerel $LN13
	DD	imagerel $LN13+620
	DD	imagerel $unwind$??$_Emplace_reallocate@AEBQEAVbus_device@@@?$vector@PEAVbus_device@@V?$allocator@PEAVbus_device@@@std@@@std@@QEAAPEAPEAVbus_device@@QEAPEAV2@AEBQEAV2@@Z
pdata	ENDS
;	COMDAT pdata
pdata	SEGMENT
$pdata$?catch$0@?0???$_Emplace_reallocate@AEBQEAVbus_device@@@?$vector@PEAVbus_device@@V?$allocator@PEAVbus_device@@@std@@@std@@QEAAPEAPEAVbus_device@@QEAPEAV2@AEBQEAV2@@Z@4HA DD imagerel ?catch$0@?0???$_Emplace_reallocate@AEBQEAVbus_device@@@?$vector@PEAVbus_device@@V?$allocator@PEAVbus_device@@@std@@@std@@QEAAPEAPEAVbus_device@@QEAPEAV2@AEBQEAV2@@Z@4HA
	DD	imagerel ?catch$0@?0???$_Emplace_reallocate@AEBQEAVbus_device@@@?$vector@PEAVbus_device@@V?$allocator@PEAVbus_device@@@std@@@std@@QEAAPEAPEAVbus_device@@QEAPEAV2@AEBQEAV2@@Z@4HA+94
	DD	imagerel $unwind$?catch$0@?0???$_Emplace_reallocate@AEBQEAVbus_device@@@?$vector@PEAVbus_device@@V?$allocator@PEAVbus_device@@@std@@@std@@QEAAPEAPEAVbus_device@@QEAPEAV2@AEBQEAV2@@Z@4HA
pdata	ENDS
;	COMDAT pdata
pdata	SEGMENT
$pdata$??0_Sentry_base@?$basic_ostream@DU?$char_traits@D@std@@@std@@QEAA@AEAV12@@Z DD imagerel $LN4
	DD	imagerel $LN4+231
	DD	imagerel $unwind$??0_Sentry_base@?$basic_ostream@DU?$char_traits@D@std@@@std@@QEAA@AEAV12@@Z
pdata	ENDS
;	COMDAT pdata
pdata	SEGMENT
$pdata$??1_Sentry_base@?$basic_ostream@DU?$char_traits@D@std@@@std@@QEAA@XZ DD imagerel $LN4
	DD	imagerel $LN4+217
	DD	imagerel $unwind$??1_Sentry_base@?$basic_ostream@DU?$char_traits@D@std@@@std@@QEAA@XZ
pdata	ENDS
;	COMDAT pdata
pdata	SEGMENT
$pdata$??0sentry@?$basic_ostream@DU?$char_traits@D@std@@@std@@QEAA@AEAV12@@Z DD imagerel $LN5
	DD	imagerel $LN5+331
	DD	imagerel $unwind$??0sentry@?$basic_ostream@DU?$char_traits@D@std@@@std@@QEAA@AEAV12@@Z
pdata	ENDS
;	COMDAT pdata
pdata	SEGMENT
$pdata$?dtor$0@?0???0sentry@?$basic_ostream@DU?$char_traits@D@std@@@std@@QEAA@AEAV12@@Z@4HA DD imagerel ?dtor$0@?0???0sentry@?$basic_ostream@DU?$char_traits@D@std@@@std@@QEAA@AEAV12@@Z@4HA
	DD	imagerel ?dtor$0@?0???0sentry@?$basic_ostream@DU?$char_traits@D@std@@@std@@QEAA@AEAV12@@Z@4HA+39
	DD	imagerel $unwind$?dtor$0@?0???0sentry@?$basic_ostream@DU?$char_traits@D@std@@@std@@QEAA@AEAV12@@Z@4HA
pdata	ENDS
;	COMDAT pdata
pdata	SEGMENT
$pdata$??1sentry@?$basic_ostream@DU?$char_traits@D@std@@@std@@QEAA@XZ DD imagerel $LN4
	DD	imagerel $LN4+119
	DD	imagerel $unwind$??1sentry@?$basic_ostream@DU?$char_traits@D@std@@@std@@QEAA@XZ
pdata	ENDS
;	COMDAT pdata
pdata	SEGMENT
$pdata$??Bsentry@?$basic_ostream@DU?$char_traits@D@std@@@std@@QEBA_NXZ DD imagerel $LN3
	DD	imagerel $LN3+75
	DD	imagerel $unwind$??Bsentry@?$basic_ostream@DU?$char_traits@D@std@@@std@@QEBA_NXZ
pdata	ENDS
;	COMDAT pdata
pdata	SEGMENT
$pdata$??$?0$$V@?$_Compressed_pair@V?$allocator@PEAVbus_device@@@std@@V?$_Vector_val@U?$_Simple_types@PEAVbus_device@@@std@@@2@$00@std@@QEAA@U_Zero_then_variadic_args_t@1@@Z DD imagerel $LN3
	DD	imagerel $LN3+102
	DD	imagerel $unwind$??$?0$$V@?$_Compressed_pair@V?$allocator@PEAVbus_device@@@std@@V?$_Vector_val@U?$_Simple_types@PEAVbus_device@@@std@@@2@$00@std@@QEAA@U_Zero_then_variadic_args_t@1@@Z
pdata	ENDS
;	COMDAT pdata
pdata	SEGMENT
$pdata$??$_Allocate@$0BA@U_Default_allocate_traits@std@@$0A@@std@@YAPEAX_K@Z DD imagerel $LN5
	DD	imagerel $LN5+117
	DD	imagerel $unwind$??$_Allocate@$0BA@U_Default_allocate_traits@std@@$0A@@std@@YAPEAX_K@Z
pdata	ENDS
;	COMDAT pdata
pdata	SEGMENT
$pdata$??$_Deallocate@$0BA@$0A@@std@@YAXPEAX_K@Z DD imagerel $LN4
	DD	imagerel $LN4+120
	DD	imagerel $unwind$??$_Deallocate@$0BA@$0A@@std@@YAXPEAX_K@Z
pdata	ENDS
;	COMDAT pdata
pdata	SEGMENT
$pdata$?allocate@?$allocator@U_Container_proxy@std@@@std@@QEAAPEAU_Container_proxy@2@_K@Z DD imagerel $LN3
	DD	imagerel $LN3+89
	DD	imagerel $unwind$?allocate@?$allocator@U_Container_proxy@std@@@std@@QEAAPEAU_Container_proxy@2@_K@Z
pdata	ENDS
;	COMDAT pdata
pdata	SEGMENT
$pdata$??$?0PEAVbus_device@@@?$allocator@U_Container_proxy@std@@@std@@QEAA@AEBV?$allocator@PEAVbus_device@@@1@@Z DD imagerel $LN3
	DD	imagerel $LN3+88
	DD	imagerel $unwind$??$?0PEAVbus_device@@@?$allocator@U_Container_proxy@std@@@std@@QEAA@AEBV?$allocator@PEAVbus_device@@@1@@Z
pdata	ENDS
;	COMDAT pdata
pdata	SEGMENT
$pdata$?deallocate@?$_Default_allocator_traits@V?$allocator@U_Container_proxy@std@@@std@@@std@@SAXAEAV?$allocator@U_Container_proxy@std@@@2@QEAU_Container_proxy@2@_K@Z DD imagerel $LN3
	DD	imagerel $LN3+97
	DD	imagerel $unwind$?deallocate@?$_Default_allocator_traits@V?$allocator@U_Container_proxy@std@@@std@@@std@@SAXAEAV?$allocator@U_Container_proxy@std@@@2@QEAU_Container_proxy@2@_K@Z
pdata	ENDS
;	COMDAT pdata
pdata	SEGMENT
$pdata$??$destroy@U_Container_proxy@std@@@?$_Default_allocator_traits@V?$allocator@U_Container_proxy@std@@@std@@@std@@SAXAEAV?$allocator@U_Container_proxy@std@@@1@QEAU_Container_proxy@1@@Z DD imagerel $LN3
	DD	imagerel $LN3+69
	DD	imagerel $unwind$??$destroy@U_Container_proxy@std@@@?$_Default_allocator_traits@V?$allocator@U_Container_proxy@std@@@std@@@std@@SAXAEAV?$allocator@U_Container_proxy@std@@@1@QEAU_Container_proxy@1@@Z
pdata	ENDS
;	COMDAT pdata
pdata	SEGMENT
$pdata$??$_Deallocate_plain@V?$allocator@U_Container_proxy@std@@@std@@$0A@@std@@YAXAEAV?$allocator@U_Container_proxy@std@@@0@QEAU_Container_proxy@0@@Z DD imagerel $LN3
	DD	imagerel $LN3+94
	DD	imagerel $unwind$??$_Deallocate_plain@V?$allocator@U_Container_proxy@std@@@std@@$0A@@std@@YAXAEAV?$allocator@U_Container_proxy@std@@@0@QEAU_Container_proxy@0@@Z
pdata	ENDS
;	COMDAT pdata
pdata	SEGMENT
$pdata$??$_Unfancy@U_Container_proxy@std@@@std@@YAPEAU_Container_proxy@0@PEAU10@@Z DD imagerel $LN3
	DD	imagerel $LN3+71
	DD	imagerel $unwind$??$_Unfancy@U_Container_proxy@std@@@std@@YAPEAU_Container_proxy@0@PEAU10@@Z
pdata	ENDS
;	COMDAT pdata
pdata	SEGMENT
$pdata$??$construct@U_Container_proxy@std@@U12@@?$_Default_allocator_traits@V?$allocator@U_Container_proxy@std@@@std@@@std@@SAXAEAV?$allocator@U_Container_proxy@std@@@1@QEAU_Container_proxy@1@$$QEAU31@@Z DD imagerel $LN3
	DD	imagerel $LN3+129
	DD	imagerel $unwind$??$construct@U_Container_proxy@std@@U12@@?$_Default_allocator_traits@V?$allocator@U_Container_proxy@std@@@std@@@std@@SAXAEAV?$allocator@U_Container_proxy@std@@@1@QEAU_Container_proxy@1@$$QEAU31@@Z
pdata	ENDS
;	COMDAT pdata
pdata	SEGMENT
$pdata$??$_Destroy_range@V?$allocator@PEAVbus_device@@@std@@@std@@YAXPEAPEAVbus_device@@0AEAV?$allocator@PEAVbus_device@@@0@@Z DD imagerel $LN3
	DD	imagerel $LN3+127
	DD	imagerel $unwind$??$_Destroy_range@V?$allocator@PEAVbus_device@@@std@@@std@@YAXPEAPEAVbus_device@@0AEAV?$allocator@PEAVbus_device@@@0@@Z
pdata	ENDS
;	COMDAT pdata
pdata	SEGMENT
$pdata$??$_Get_size_of_n@$0BA@@std@@YA_K_K@Z DD imagerel $LN4
	DD	imagerel $LN4+121
	DD	imagerel $unwind$??$_Get_size_of_n@$0BA@@std@@YA_K_K@Z
pdata	ENDS
;	COMDAT pdata
pdata	SEGMENT
$pdata$??$_Ptr_move_cat@PEAVbus_device@@PEAV1@@std@@YA?AU_Really_trivial_ptr_iterator_tag@0@AEBQEAPEAVbus_device@@0@Z DD imagerel $LN3
	DD	imagerel $LN3+81
	DD	imagerel $unwind$??$_Ptr_move_cat@PEAVbus_device@@PEAV1@@std@@YA?AU_Really_trivial_ptr_iterator_tag@0@AEBQEAPEAVbus_device@@0@Z
pdata	ENDS
;	COMDAT pdata
pdata	SEGMENT
$pdata$??$_Move_unchecked1@PEAPEAVbus_device@@PEAPEAV1@@std@@YAPEAPEAVbus_device@@PEAPEAV1@00U_Trivially_copyable_ptr_iterator_tag@0@@Z DD imagerel $LN3
	DD	imagerel $LN3+105
	DD	imagerel $unwind$??$_Move_unchecked1@PEAPEAVbus_device@@PEAPEAV1@@std@@YAPEAPEAVbus_device@@PEAPEAV1@00U_Trivially_copyable_ptr_iterator_tag@0@@Z
pdata	ENDS
;	COMDAT pdata
pdata	SEGMENT
$pdata$??$_Allocate_manually_vector_aligned@U_Default_allocate_traits@std@@@std@@YAPEAX_K@Z DD imagerel $LN13
	DD	imagerel $LN13+303
	DD	imagerel $unwind$??$_Allocate_manually_vector_aligned@U_Default_allocate_traits@std@@@std@@YAPEAX_K@Z
pdata	ENDS
;	COMDAT pdata
pdata	SEGMENT
$pdata$??$forward@U_Container_proxy@std@@@std@@YA$$QEAU_Container_proxy@0@AEAU10@@Z DD imagerel $LN3
	DD	imagerel $LN3+83
	DD	imagerel $unwind$??$forward@U_Container_proxy@std@@@std@@YA$$QEAU_Container_proxy@0@AEAU10@@Z
pdata	ENDS
;	COMDAT pdata
pdata	SEGMENT
$pdata$??$_Destroy_range1@V?$allocator@PEAVbus_device@@@std@@@std@@YAXPEAPEAVbus_device@@0AEAV?$allocator@PEAVbus_device@@@0@U?$integral_constant@_N$00@0@@Z DD imagerel $LN3
	DD	imagerel $LN3+79
	DD	imagerel $unwind$??$_Destroy_range1@V?$allocator@PEAVbus_device@@@std@@@std@@YAXPEAPEAVbus_device@@0AEAV?$allocator@PEAVbus_device@@@0@U?$integral_constant@_N$00@0@@Z
pdata	ENDS
;	COMDAT pdata
pdata	SEGMENT
$pdata$??$_Uninitialized_move@PEAPEAVbus_device@@PEAPEAV1@V?$allocator@PEAVbus_device@@@std@@@std@@YAPEAPEAVbus_device@@QEAPEAV1@0PEAPEAV1@AEAV?$allocator@PEAVbus_device@@@0@@Z DD imagerel $LN3
	DD	imagerel $LN3+281
	DD	imagerel $unwind$??$_Uninitialized_move@PEAPEAVbus_device@@PEAPEAV1@V?$allocator@PEAVbus_device@@@std@@@std@@YAPEAPEAVbus_device@@QEAPEAV1@0PEAPEAV1@AEAV?$allocator@PEAVbus_device@@@0@@Z
pdata	ENDS
;	COMDAT pdata
pdata	SEGMENT
$pdata$??$_Get_size_of_n@$07@std@@YA_K_K@Z DD imagerel $LN4
	DD	imagerel $LN4+124
	DD	imagerel $unwind$??$_Get_size_of_n@$07@std@@YA_K_K@Z
pdata	ENDS
;	COMDAT pdata
pdata	SEGMENT
$pdata$??$_Copy_memmove@PEAPEAVbus_device@@PEAPEAV1@@std@@YAPEAPEAVbus_device@@PEAPEAV1@00@Z DD imagerel $LN3
	DD	imagerel $LN3+156
	DD	imagerel $unwind$??$_Copy_memmove@PEAPEAVbus_device@@PEAPEAV1@@std@@YAPEAPEAVbus_device@@PEAPEAV1@00@Z
pdata	ENDS
;	COMDAT pdata
pdata	SEGMENT
$pdata$??$_Get_unwrapped@PEAVbus_device@@@std@@YAPEAPEAVbus_device@@QEAPEAV1@@Z DD imagerel $LN3
	DD	imagerel $LN3+71
	DD	imagerel $unwind$??$_Get_unwrapped@PEAVbus_device@@@std@@YAPEAPEAVbus_device@@QEAPEAV1@@Z
pdata	ENDS
;	COMDAT pdata
pdata	SEGMENT
$pdata$??$_Idl_distance@PEAPEAVbus_device@@PEAPEAV1@@std@@YA@AEBQEAPEAVbus_device@@0@Z DD imagerel $LN3
	DD	imagerel $LN3+96
	DD	imagerel $unwind$??$_Idl_distance@PEAPEAVbus_device@@PEAPEAV1@@std@@YA@AEBQEAPEAVbus_device@@0@Z
pdata	ENDS
;	COMDAT pdata
pdata	SEGMENT
$pdata$??$_Idl_distance1@PEAPEAVbus_device@@PEAPEAV1@@std@@YA_JAEBQEAPEAVbus_device@@0Urandom_access_iterator_tag@0@@Z DD imagerel $LN3
	DD	imagerel $LN3+101
	DD	imagerel $unwind$??$_Idl_distance1@PEAPEAVbus_device@@PEAPEAV1@@std@@YA_JAEBQEAPEAVbus_device@@0Urandom_access_iterator_tag@0@@Z
pdata	ENDS
;	COMDAT pdata
pdata	SEGMENT
$pdata$??$_Get_unwrapped_n@PEAVbus_device@@_J$0A@@std@@YAPEAPEAVbus_device@@QEAPEAV1@_J@Z DD imagerel $LN3
	DD	imagerel $LN3+76
	DD	imagerel $unwind$??$_Get_unwrapped_n@PEAVbus_device@@_J$0A@@std@@YAPEAPEAVbus_device@@QEAPEAV1@_J@Z
pdata	ENDS
;	COMDAT pdata
pdata	SEGMENT
$pdata$??$_Uninitialized_move_al_unchecked@PEAVbus_device@@PEAV1@V?$allocator@PEAVbus_device@@@std@@@std@@YAPEAPEAVbus_device@@QEAPEAV1@00AEAV?$allocator@PEAVbus_device@@@0@U_Really_trivial_ptr_iterator_tag@0@U?$integral_constant@_N$00@0@@Z DD imagerel $LN3
	DD	imagerel $LN3+105
	DD	imagerel $unwind$??$_Uninitialized_move_al_unchecked@PEAVbus_device@@PEAV1@V?$allocator@PEAVbus_device@@@std@@@std@@YAPEAPEAVbus_device@@QEAPEAV1@00AEAV?$allocator@PEAVbus_device@@@0@U_Really_trivial_ptr_iterator_tag@0@U?$integral_constant@_N$00@0@@Z
pdata	ENDS
;	COMDAT pdata
pdata	SEGMENT
$pdata$??$_Seek_wrapped@PEAVbus_device@@@std@@YAXAEAPEAPEAVbus_device@@QEAPEAV1@@Z DD imagerel $LN3
	DD	imagerel $LN3+86
	DD	imagerel $unwind$??$_Seek_wrapped@PEAVbus_device@@@std@@YAXAEAPEAPEAVbus_device@@QEAPEAV1@@Z
pdata	ENDS
;	COMDAT rtc$TMZ
rtc$TMZ	SEGMENT
_RTC_Shutdown.rtc$TMZ DQ FLAT:_RTC_Shutdown
rtc$TMZ	ENDS
;	COMDAT rtc$IMZ
rtc$IMZ	SEGMENT
_RTC_InitBase.rtc$IMZ DQ FLAT:_RTC_InitBase
rtc$IMZ	ENDS
;	COMDAT ??_R1A@?0A@EA@bus_device@@8
rdata$r	SEGMENT
??_R1A@?0A@EA@bus_device@@8 DD imagerel ??_R0?AVbus_device@@@8 ; bus_device::`RTTI Base Class Descriptor at (0,-1,0,64)'
	DD	01H
	DD	00H
	DD	0ffffffffH
	DD	00H
	DD	040H
	DD	imagerel ??_R3bus_device@@8
rdata$r	ENDS
;	COMDAT ??_R2bus_device@@8
rdata$r	SEGMENT
??_R2bus_device@@8 DD imagerel ??_R1A@?0A@EA@bus_device@@8 ; bus_device::`RTTI Base Class Array'
	DD	imagerel ??_R1A@?0A@EA@device@@8
	ORG $+3
rdata$r	ENDS
;	COMDAT ??_R3bus_device@@8
rdata$r	SEGMENT
??_R3bus_device@@8 DD 00H				; bus_device::`RTTI Class Hierarchy Descriptor'
	DD	00H
	DD	02H
	DD	imagerel ??_R2bus_device@@8
rdata$r	ENDS
;	COMDAT ??_R0?AVbus_device@@@8
data$r	SEGMENT
??_R0?AVbus_device@@@8 DQ FLAT:??_7type_info@@6B@	; bus_device `RTTI Type Descriptor'
	DQ	0000000000000000H
	DB	'.?AVbus_device@@', 00H
data$r	ENDS
;	COMDAT ??_R4bus_device@@6B@
rdata$r	SEGMENT
??_R4bus_device@@6B@ DD 01H				; bus_device::`RTTI Complete Object Locator'
	DD	00H
	DD	00H
	DD	imagerel ??_R0?AVbus_device@@@8
	DD	imagerel ??_R3bus_device@@8
	DD	imagerel ??_R4bus_device@@6B@
rdata$r	ENDS
;	COMDAT ??_R1A@?0A@EA@device@@8
rdata$r	SEGMENT
??_R1A@?0A@EA@device@@8 DD imagerel ??_R0?AVdevice@@@8	; device::`RTTI Base Class Descriptor at (0,-1,0,64)'
	DD	00H
	DD	00H
	DD	0ffffffffH
	DD	00H
	DD	040H
	DD	imagerel ??_R3device@@8
rdata$r	ENDS
;	COMDAT ??_R2device@@8
rdata$r	SEGMENT
??_R2device@@8 DD imagerel ??_R1A@?0A@EA@device@@8	; device::`RTTI Base Class Array'
	ORG $+3
rdata$r	ENDS
;	COMDAT ??_R3device@@8
rdata$r	SEGMENT
??_R3device@@8 DD 00H					; device::`RTTI Class Hierarchy Descriptor'
	DD	00H
	DD	01H
	DD	imagerel ??_R2device@@8
rdata$r	ENDS
;	COMDAT ??_R0?AVdevice@@@8
data$r	SEGMENT
??_R0?AVdevice@@@8 DQ FLAT:??_7type_info@@6B@		; device `RTTI Type Descriptor'
	DQ	0000000000000000H
	DB	'.?AVdevice@@', 00H
data$r	ENDS
;	COMDAT ??_R4device@@6B@
rdata$r	SEGMENT
??_R4device@@6B@ DD 01H					; device::`RTTI Complete Object Locator'
	DD	00H
	DD	00H
	DD	imagerel ??_R0?AVdevice@@@8
	DD	imagerel ??_R3device@@8
	DD	imagerel ??_R4device@@6B@
rdata$r	ENDS
;	COMDAT ??_C@_1EO@GFNCMDLA@?$AAs?$AAt?$AAd?$AA?3?$AA?3?$AA_?$AAA?$AAl?$AAl?$AAo?$AAc?$AAa?$AAt?$AAe?$AA_@
CONST	SEGMENT
??_C@_1EO@GFNCMDLA@?$AAs?$AAt?$AAd?$AA?3?$AA?3?$AA_?$AAA?$AAl?$AAl?$AAo?$AAc?$AAa?$AAt?$AAe?$AA_@ DB 's'
	DB	00H, 't', 00H, 'd', 00H, ':', 00H, ':', 00H, '_', 00H, 'A', 00H
	DB	'l', 00H, 'l', 00H, 'o', 00H, 'c', 00H, 'a', 00H, 't', 00H, 'e'
	DB	00H, '_', 00H, 'm', 00H, 'a', 00H, 'n', 00H, 'u', 00H, 'a', 00H
	DB	'l', 00H, 'l', 00H, 'y', 00H, '_', 00H, 'v', 00H, 'e', 00H, 'c'
	DB	00H, 't', 00H, 'o', 00H, 'r', 00H, '_', 00H, 'a', 00H, 'l', 00H
	DB	'i', 00H, 'g', 00H, 'n', 00H, 'e', 00H, 'd', 00H, 00H, 00H ; `string'
CONST	ENDS
;	COMDAT ??_C@_0BD@OLBABOEK@vector?$DMT?$DO?5too?5long@
CONST	SEGMENT
??_C@_0BD@OLBABOEK@vector?$DMT?$DO?5too?5long@ DB 'vector<T> too long', 00H ; `string'
CONST	ENDS
;	COMDAT ??_C@_1FA@LCODAPOP@?$AA?$CC?$AAc?$AAa?$AAn?$AAn?$AAo?$AAt?$AA?5?$AAs?$AAe?$AAe?$AAk?$AA?5?$AAv?$AAe@
CONST	SEGMENT
??_C@_1FA@LCODAPOP@?$AA?$CC?$AAc?$AAa?$AAn?$AAn?$AAo?$AAt?$AA?5?$AAs?$AAe?$AAe?$AAk?$AA?5?$AAv?$AAe@ DB '"'
	DB	00H, 'c', 00H, 'a', 00H, 'n', 00H, 'n', 00H, 'o', 00H, 't', 00H
	DB	' ', 00H, 's', 00H, 'e', 00H, 'e', 00H, 'k', 00H, ' ', 00H, 'v'
	DB	00H, 'e', 00H, 'c', 00H, 't', 00H, 'o', 00H, 'r', 00H, ' ', 00H
	DB	'i', 00H, 't', 00H, 'e', 00H, 'r', 00H, 'a', 00H, 't', 00H, 'o'
	DB	00H, 'r', 00H, ' ', 00H, 'a', 00H, 'f', 00H, 't', 00H, 'e', 00H
	DB	'r', 00H, ' ', 00H, 'e', 00H, 'n', 00H, 'd', 00H, '"', 00H, 00H
	DB	00H						; `string'
CONST	ENDS
;	COMDAT ??_C@_0CG@JDIOCKHH@cannot?5seek?5vector?5iterator?5aft@
CONST	SEGMENT
??_C@_0CG@JDIOCKHH@cannot?5seek?5vector?5iterator?5aft@ DB 'cannot seek v'
	DB	'ector iterator after end', 00H		; `string'
CONST	ENDS
;	COMDAT ??_C@_1FG@JCGKNFIB@?$AA?$CC?$AAc?$AAa?$AAn?$AAn?$AAo?$AAt?$AA?5?$AAs?$AAe?$AAe?$AAk?$AA?5?$AAv?$AAe@
CONST	SEGMENT
??_C@_1FG@JCGKNFIB@?$AA?$CC?$AAc?$AAa?$AAn?$AAn?$AAo?$AAt?$AA?5?$AAs?$AAe?$AAe?$AAk?$AA?5?$AAv?$AAe@ DB '"'
	DB	00H, 'c', 00H, 'a', 00H, 'n', 00H, 'n', 00H, 'o', 00H, 't', 00H
	DB	' ', 00H, 's', 00H, 'e', 00H, 'e', 00H, 'k', 00H, ' ', 00H, 'v'
	DB	00H, 'e', 00H, 'c', 00H, 't', 00H, 'o', 00H, 'r', 00H, ' ', 00H
	DB	'i', 00H, 't', 00H, 'e', 00H, 'r', 00H, 'a', 00H, 't', 00H, 'o'
	DB	00H, 'r', 00H, ' ', 00H, 'b', 00H, 'e', 00H, 'f', 00H, 'o', 00H
	DB	'r', 00H, 'e', 00H, ' ', 00H, 'b', 00H, 'e', 00H, 'g', 00H, 'i'
	DB	00H, 'n', 00H, '"', 00H, 00H, 00H		; `string'
CONST	ENDS
;	COMDAT ??_C@_0CJ@DIFMEJBE@cannot?5seek?5vector?5iterator?5bef@
CONST	SEGMENT
??_C@_0CJ@DIFMEJBE@cannot?5seek?5vector?5iterator?5bef@ DB 'cannot seek v'
	DB	'ector iterator before begin', 00H		; `string'
CONST	ENDS
;	COMDAT ??_C@_1GA@EIHBFEJD@?$AA?$CC?$AAc?$AAa?$AAn?$AAn?$AAo?$AAt?$AA?5?$AAs?$AAe?$AAe?$AAk?$AA?5?$AAv?$AAa@
CONST	SEGMENT
??_C@_1GA@EIHBFEJD@?$AA?$CC?$AAc?$AAa?$AAn?$AAn?$AAo?$AAt?$AA?5?$AAs?$AAe?$AAe?$AAk?$AA?5?$AAv?$AAa@ DB '"'
	DB	00H, 'c', 00H, 'a', 00H, 'n', 00H, 'n', 00H, 'o', 00H, 't', 00H
	DB	' ', 00H, 's', 00H, 'e', 00H, 'e', 00H, 'k', 00H, ' ', 00H, 'v'
	DB	00H, 'a', 00H, 'l', 00H, 'u', 00H, 'e', 00H, '-', 00H, 'i', 00H
	DB	'n', 00H, 'i', 00H, 't', 00H, 'i', 00H, 'a', 00H, 'l', 00H, 'i'
	DB	00H, 'z', 00H, 'e', 00H, 'd', 00H, ' ', 00H, 'v', 00H, 'e', 00H
	DB	'c', 00H, 't', 00H, 'o', 00H, 'r', 00H, ' ', 00H, 'i', 00H, 't'
	DB	00H, 'e', 00H, 'r', 00H, 'a', 00H, 't', 00H, 'o', 00H, 'r', 00H
	DB	'"', 00H, 00H, 00H				; `string'
CONST	ENDS
;	COMDAT ??_C@_1OK@MPDCGGGF@?$AAs?$AAt?$AAd?$AA?3?$AA?3?$AA_?$AAV?$AAe?$AAc?$AAt?$AAo?$AAr?$AA_?$AAc?$AAo@
CONST	SEGMENT
??_C@_1OK@MPDCGGGF@?$AAs?$AAt?$AAd?$AA?3?$AA?3?$AA_?$AAV?$AAe?$AAc?$AAt?$AAo?$AAr?$AA_?$AAc?$AAo@ DB 's'
	DB	00H, 't', 00H, 'd', 00H, ':', 00H, ':', 00H, '_', 00H, 'V', 00H
	DB	'e', 00H, 'c', 00H, 't', 00H, 'o', 00H, 'r', 00H, '_', 00H, 'c'
	DB	00H, 'o', 00H, 'n', 00H, 's', 00H, 't', 00H, '_', 00H, 'i', 00H
	DB	't', 00H, 'e', 00H, 'r', 00H, 'a', 00H, 't', 00H, 'o', 00H, 'r'
	DB	00H, '<', 00H, 'c', 00H, 'l', 00H, 'a', 00H, 's', 00H, 's', 00H
	DB	' ', 00H, 's', 00H, 't', 00H, 'd', 00H, ':', 00H, ':', 00H, '_'
	DB	00H, 'V', 00H, 'e', 00H, 'c', 00H, 't', 00H, 'o', 00H, 'r', 00H
	DB	'_', 00H, 'v', 00H, 'a', 00H, 'l', 00H, '<', 00H, 's', 00H, 't'
	DB	00H, 'r', 00H, 'u', 00H, 'c', 00H, 't', 00H, ' ', 00H, 's', 00H
	DB	't', 00H, 'd', 00H, ':', 00H, ':', 00H, '_', 00H, 'S', 00H, 'i'
	DB	00H, 'm', 00H, 'p', 00H, 'l', 00H, 'e', 00H, '_', 00H, 't', 00H
	DB	'y', 00H, 'p', 00H, 'e', 00H, 's', 00H, '<', 00H, 'c', 00H, 'l'
	DB	00H, 'a', 00H, 's', 00H, 's', 00H, ' ', 00H, 'b', 00H, 'u', 00H
	DB	's', 00H, '_', 00H, 'd', 00H, 'e', 00H, 'v', 00H, 'i', 00H, 'c'
	DB	00H, 'e', 00H, ' ', 00H, '*', 00H, '>', 00H, ' ', 00H, '>', 00H
	DB	' ', 00H, '>', 00H, ':', 00H, ':', 00H, '_', 00H, 'V', 00H, 'e'
	DB	00H, 'r', 00H, 'i', 00H, 'f', 00H, 'y', 00H, '_', 00H, 'o', 00H
	DB	'f', 00H, 'f', 00H, 's', 00H, 'e', 00H, 't', 00H, 00H, 00H ; `string'
CONST	ENDS
;	COMDAT ??_C@_0CO@LHPFLLJB@cannot?5seek?5value?9initialized?5v@
CONST	SEGMENT
??_C@_0CO@LHPFLLJB@cannot?5seek?5value?9initialized?5v@ DB 'cannot seek v'
	DB	'alue-initialized vector iterator', 00H	; `string'
CONST	ENDS
;	COMDAT ??_C@_1EM@BEMPOGMM@?$AA?$CC?$AAv?$AAe?$AAc?$AAt?$AAo?$AAr?$AA?5?$AAe?$AAr?$AAa?$AAs?$AAe?$AA?5?$AAi@
CONST	SEGMENT
??_C@_1EM@BEMPOGMM@?$AA?$CC?$AAv?$AAe?$AAc?$AAt?$AAo?$AAr?$AA?5?$AAe?$AAr?$AAa?$AAs?$AAe?$AA?5?$AAi@ DB '"'
	DB	00H, 'v', 00H, 'e', 00H, 'c', 00H, 't', 00H, 'o', 00H, 'r', 00H
	DB	' ', 00H, 'e', 00H, 'r', 00H, 'a', 00H, 's', 00H, 'e', 00H, ' '
	DB	00H, 'i', 00H, 't', 00H, 'e', 00H, 'r', 00H, 'a', 00H, 't', 00H
	DB	'o', 00H, 'r', 00H, ' ', 00H, 'o', 00H, 'u', 00H, 't', 00H, 's'
	DB	00H, 'i', 00H, 'd', 00H, 'e', 00H, ' ', 00H, 'r', 00H, 'a', 00H
	DB	'n', 00H, 'g', 00H, 'e', 00H, '"', 00H, 00H, 00H ; `string'
CONST	ENDS
;	COMDAT ??_C@_1KC@BCHEBHHN@?$AAs?$AAt?$AAd?$AA?3?$AA?3?$AAv?$AAe?$AAc?$AAt?$AAo?$AAr?$AA?$DM?$AAc?$AAl?$AAa@
CONST	SEGMENT
??_C@_1KC@BCHEBHHN@?$AAs?$AAt?$AAd?$AA?3?$AA?3?$AAv?$AAe?$AAc?$AAt?$AAo?$AAr?$AA?$DM?$AAc?$AAl?$AAa@ DB 's'
	DB	00H, 't', 00H, 'd', 00H, ':', 00H, ':', 00H, 'v', 00H, 'e', 00H
	DB	'c', 00H, 't', 00H, 'o', 00H, 'r', 00H, '<', 00H, 'c', 00H, 'l'
	DB	00H, 'a', 00H, 's', 00H, 's', 00H, ' ', 00H, 'b', 00H, 'u', 00H
	DB	's', 00H, '_', 00H, 'd', 00H, 'e', 00H, 'v', 00H, 'i', 00H, 'c'
	DB	00H, 'e', 00H, ' ', 00H, '*', 00H, ',', 00H, 'c', 00H, 'l', 00H
	DB	'a', 00H, 's', 00H, 's', 00H, ' ', 00H, 's', 00H, 't', 00H, 'd'
	DB	00H, ':', 00H, ':', 00H, 'a', 00H, 'l', 00H, 'l', 00H, 'o', 00H
	DB	'c', 00H, 'a', 00H, 't', 00H, 'o', 00H, 'r', 00H, '<', 00H, 'c'
	DB	00H, 'l', 00H, 'a', 00H, 's', 00H, 's', 00H, ' ', 00H, 'b', 00H
	DB	'u', 00H, 's', 00H, '_', 00H, 'd', 00H, 'e', 00H, 'v', 00H, 'i'
	DB	00H, 'c', 00H, 'e', 00H, ' ', 00H, '*', 00H, '>', 00H, ' ', 00H
	DB	'>', 00H, ':', 00H, ':', 00H, 'e', 00H, 'r', 00H, 'a', 00H, 's'
	DB	00H, 'e', 00H, 00H, 00H			; `string'
CONST	ENDS
;	COMDAT ??_C@_0CE@EAMOGAIE@vector?5erase?5iterator?5outside?5r@
CONST	SEGMENT
??_C@_0CE@EAMOGAIE@vector?5erase?5iterator?5outside?5r@ DB 'vector erase '
	DB	'iterator outside range', 00H		; `string'
CONST	ENDS
;	COMDAT ??_C@_1EA@LEKOKFNB@?$AA?$CC?$AAv?$AAe?$AAc?$AAt?$AAo?$AAr?$AA?5?$AAs?$AAu?$AAb?$AAs?$AAc?$AAr?$AAi@
CONST	SEGMENT
??_C@_1EA@LEKOKFNB@?$AA?$CC?$AAv?$AAe?$AAc?$AAt?$AAo?$AAr?$AA?5?$AAs?$AAu?$AAb?$AAs?$AAc?$AAr?$AAi@ DB '"'
	DB	00H, 'v', 00H, 'e', 00H, 'c', 00H, 't', 00H, 'o', 00H, 'r', 00H
	DB	' ', 00H, 's', 00H, 'u', 00H, 'b', 00H, 's', 00H, 'c', 00H, 'r'
	DB	00H, 'i', 00H, 'p', 00H, 't', 00H, ' ', 00H, 'o', 00H, 'u', 00H
	DB	't', 00H, ' ', 00H, 'o', 00H, 'f', 00H, ' ', 00H, 'r', 00H, 'a'
	DB	00H, 'n', 00H, 'g', 00H, 'e', 00H, '"', 00H, 00H, 00H ; `string'
CONST	ENDS
;	COMDAT ??_C@_1KO@ONLFOBNG@?$AAs?$AAt?$AAd?$AA?3?$AA?3?$AAv?$AAe?$AAc?$AAt?$AAo?$AAr?$AA?$DM?$AAc?$AAl?$AAa@
CONST	SEGMENT
??_C@_1KO@ONLFOBNG@?$AAs?$AAt?$AAd?$AA?3?$AA?3?$AAv?$AAe?$AAc?$AAt?$AAo?$AAr?$AA?$DM?$AAc?$AAl?$AAa@ DB 's'
	DB	00H, 't', 00H, 'd', 00H, ':', 00H, ':', 00H, 'v', 00H, 'e', 00H
	DB	'c', 00H, 't', 00H, 'o', 00H, 'r', 00H, '<', 00H, 'c', 00H, 'l'
	DB	00H, 'a', 00H, 's', 00H, 's', 00H, ' ', 00H, 'b', 00H, 'u', 00H
	DB	's', 00H, '_', 00H, 'd', 00H, 'e', 00H, 'v', 00H, 'i', 00H, 'c'
	DB	00H, 'e', 00H, ' ', 00H, '*', 00H, ',', 00H, 'c', 00H, 'l', 00H
	DB	'a', 00H, 's', 00H, 's', 00H, ' ', 00H, 's', 00H, 't', 00H, 'd'
	DB	00H, ':', 00H, ':', 00H, 'a', 00H, 'l', 00H, 'l', 00H, 'o', 00H
	DB	'c', 00H, 'a', 00H, 't', 00H, 'o', 00H, 'r', 00H, '<', 00H, 'c'
	DB	00H, 'l', 00H, 'a', 00H, 's', 00H, 's', 00H, ' ', 00H, 'b', 00H
	DB	'u', 00H, 's', 00H, '_', 00H, 'd', 00H, 'e', 00H, 'v', 00H, 'i'
	DB	00H, 'c', 00H, 'e', 00H, ' ', 00H, '*', 00H, '>', 00H, ' ', 00H
	DB	'>', 00H, ':', 00H, ':', 00H, 'o', 00H, 'p', 00H, 'e', 00H, 'r'
	DB	00H, 'a', 00H, 't', 00H, 'o', 00H, 'r', 00H, ' ', 00H, '[', 00H
	DB	']', 00H, 00H, 00H				; `string'
CONST	ENDS
;	COMDAT ??_C@_1MO@OJBMIJHH@?$AAc?$AA?3?$AA?2?$AAp?$AAr?$AAo?$AAg?$AAr?$AAa?$AAm?$AA?5?$AAf?$AAi?$AAl?$AAe@
CONST	SEGMENT
??_C@_1MO@OJBMIJHH@?$AAc?$AA?3?$AA?2?$AAp?$AAr?$AAo?$AAg?$AAr?$AAa?$AAm?$AA?5?$AAf?$AAi?$AAl?$AAe@ DB 'c'
	DB	00H, ':', 00H, '\', 00H, 'p', 00H, 'r', 00H, 'o', 00H, 'g', 00H
	DB	'r', 00H, 'a', 00H, 'm', 00H, ' ', 00H, 'f', 00H, 'i', 00H, 'l'
	DB	00H, 'e', 00H, 's', 00H, ' ', 00H, '(', 00H, 'x', 00H, '8', 00H
	DB	'6', 00H, ')', 00H, '\', 00H, 'm', 00H, 'i', 00H, 'c', 00H, 'r'
	DB	00H, 'o', 00H, 's', 00H, 'o', 00H, 'f', 00H, 't', 00H, ' ', 00H
	DB	'v', 00H, 'i', 00H, 's', 00H, 'u', 00H, 'a', 00H, 'l', 00H, ' '
	DB	00H, 's', 00H, 't', 00H, 'u', 00H, 'd', 00H, 'i', 00H, 'o', 00H
	DB	'\', 00H, '2', 00H, '0', 00H, '1', 00H, '7', 00H, '\', 00H, 'c'
	DB	00H, 'o', 00H, 'm', 00H, 'm', 00H, 'u', 00H, 'n', 00H, 'i', 00H
	DB	't', 00H, 'y', 00H, '\', 00H, 'v', 00H, 'c', 00H, '\', 00H, 't'
	DB	00H, 'o', 00H, 'o', 00H, 'l', 00H, 's', 00H, '\', 00H, 'm', 00H
	DB	's', 00H, 'v', 00H, 'c', 00H, '\', 00H, '1', 00H, '4', 00H, '.'
	DB	00H, '1', 00H, '6', 00H, '.', 00H, '2', 00H, '7', 00H, '0', 00H
	DB	'2', 00H, '3', 00H, '\', 00H, 'i', 00H, 'n', 00H, 'c', 00H, 'l'
	DB	00H, 'u', 00H, 'd', 00H, 'e', 00H, '\', 00H, 'v', 00H, 'e', 00H
	DB	'c', 00H, 't', 00H, 'o', 00H, 'r', 00H, 00H, 00H ; `string'
CONST	ENDS
;	COMDAT ??_C@_0GH@FKAHJGEE@c?3?2program?5files?5?$CIx86?$CJ?2microsof@
CONST	SEGMENT
??_C@_0GH@FKAHJGEE@c?3?2program?5files?5?$CIx86?$CJ?2microsof@ DB 'c:\pro'
	DB	'gram files (x86)\microsoft visual studio\2017\community\vc\to'
	DB	'ols\msvc\14.16.27023\include\vector', 00H	; `string'
CONST	ENDS
;	COMDAT ??_C@_0BO@PFKOHNJC@vector?5subscript?5out?5of?5range@
CONST	SEGMENT
??_C@_0BO@PFKOHNJC@vector?5subscript?5out?5of?5range@ DB 'vector subscrip'
	DB	't out of range', 00H			; `string'
CONST	ENDS
;	COMDAT ??_C@_0BD@MAHCLMLC@Denver?5Base?5Device@
CONST	SEGMENT
??_C@_0BD@MAHCLMLC@Denver?5Base?5Device@ DB 'Denver Base Device', 00H ; `string'
CONST	ENDS
;	COMDAT ??_C@_0BH@GDKDGNOP@Denver?5Base?5I?1O?5Device@
CONST	SEGMENT
??_C@_0BH@GDKDGNOP@Denver?5Base?5I?1O?5Device@ DB 'Denver Base I/O Device'
	DB	00H						; `string'
CONST	ENDS
;	COMDAT ??_C@_0BO@HBKBAGAM@full?5bus?5emulation?5required?$DP?5@
CONST	SEGMENT
??_C@_0BO@HBKBAGAM@full?5bus?5emulation?5required?$DP?5@ DB 'full bus emu'
	DB	'lation required? ', 00H			; `string'
CONST	ENDS
;	COMDAT ??_C@_02KAJCLHKP@no@
CONST	SEGMENT
??_C@_02KAJCLHKP@no@ DB 'no', 00H			; `string'
CONST	ENDS
;	COMDAT ??_C@_03ICICOMAL@yes@
CONST	SEGMENT
??_C@_03ICICOMAL@yes@ DB 'yes', 00H			; `string'
CONST	ENDS
;	COMDAT ??_C@_0BK@HECGDHBI@device?5reports?5size?5is?50x@
CONST	SEGMENT
??_C@_0BK@HECGDHBI@device?5reports?5size?5is?50x@ DB 'device reports size'
	DB	' is 0x', 00H				; `string'
CONST	ENDS
;	COMDAT ??_C@_06LCIDCBMH@?5bytes@
CONST	SEGMENT
??_C@_06LCIDCBMH@?5bytes@ DB ' bytes', 00H		; `string'
CONST	ENDS
;	COMDAT ??_C@_0BM@GMLPKDLM@device?5adressing?5mask?5is?50x@
CONST	SEGMENT
??_C@_0BM@GMLPKDLM@device?5adressing?5mask?5is?50x@ DB 'device adressing '
	DB	'mask is 0x', 00H				; `string'
CONST	ENDS
;	COMDAT ??_C@_0BO@KMHDIEBP@device?5operating?5range?5is?5?$FL0x@
CONST	SEGMENT
??_C@_0BO@KMHDIEBP@device?5operating?5range?5is?5?$FL0x@ DB 'device opera'
	DB	'ting range is [0x', 00H			; `string'
CONST	ENDS
;	COMDAT ??_C@_05BDHPAJIP@?5?9?50x@
CONST	SEGMENT
??_C@_05BDHPAJIP@?5?9?50x@ DB ' - 0x', 00H		; `string'
CONST	ENDS
;	COMDAT ??_C@_0FA@CLHJNGFJ@?9?9?9?9?9?9?9?9?9?9?9?9?9?9?9?9?9?9?9?9?9?9?9?9?9?9?9?9?9?9?9@
CONST	SEGMENT
??_C@_0FA@CLHJNGFJ@?9?9?9?9?9?9?9?9?9?9?9?9?9?9?9?9?9?9?9?9?9?9?9?9?9?9?9?9?9?9?9@ DB '-'
	DB	'-------------------------------------------------------------'
	DB	'-----------------', 00H			; `string'
CONST	ENDS
;	COMDAT ??_C@_0BE@IJMACPFN@registered?5device?5?$FL@
CONST	SEGMENT
??_C@_0BE@IJMACPFN@registered?5device?5?$FL@ DB 'registered device [', 00H ; `string'
CONST	ENDS
;	COMDAT ??_C@_01LBDDMOBJ@?$FN@
CONST	SEGMENT
??_C@_01LBDDMOBJ@?$FN@ DB ']', 00H			; `string'
CONST	ENDS
;	COMDAT ??_7bus_device@@6B@
CONST	SEGMENT
??_7bus_device@@6B@ DQ FLAT:??_R4bus_device@@6B@	; bus_device::`vftable'
	DQ	FLAT:?rundevice@device@@UEAAHH@Z
	DQ	FLAT:?dma@device@@UEAAXPEAE_N1@Z
	DQ	FLAT:??_Ebus_device@@UEAAPEAXI@Z
	DQ	FLAT:?write@bus_device@@UEAAXHHE@Z
	DQ	FLAT:?read@bus_device@@UEAAEHH@Z
CONST	ENDS
;	COMDAT ??_7device@@6B@
CONST	SEGMENT
??_7device@@6B@ DQ FLAT:??_R4device@@6B@		; device::`vftable'
	DQ	FLAT:?rundevice@device@@UEAAHH@Z
	DQ	FLAT:?dma@device@@UEAAXPEAE_N1@Z
CONST	ENDS
;	COMDAT ??_C@_1EK@NIFDJFDG@?$AAs?$AAt?$AAd?$AA?3?$AA?3?$AA_?$AAA?$AAd?$AAj?$AAu?$AAs?$AAt?$AA_?$AAm?$AAa@
CONST	SEGMENT
??_C@_1EK@NIFDJFDG@?$AAs?$AAt?$AAd?$AA?3?$AA?3?$AA_?$AAA?$AAd?$AAj?$AAu?$AAs?$AAt?$AA_?$AAm?$AAa@ DB 's'
	DB	00H, 't', 00H, 'd', 00H, ':', 00H, ':', 00H, '_', 00H, 'A', 00H
	DB	'd', 00H, 'j', 00H, 'u', 00H, 's', 00H, 't', 00H, '_', 00H, 'm'
	DB	00H, 'a', 00H, 'n', 00H, 'u', 00H, 'a', 00H, 'l', 00H, 'l', 00H
	DB	'y', 00H, '_', 00H, 'v', 00H, 'e', 00H, 'c', 00H, 't', 00H, 'o'
	DB	00H, 'r', 00H, '_', 00H, 'a', 00H, 'l', 00H, 'i', 00H, 'g', 00H
	DB	'n', 00H, 'e', 00H, 'd', 00H, 00H, 00H	; `string'
CONST	ENDS
;	COMDAT ??_C@_1NC@PIOGAKBO@?$AAc?$AA?3?$AA?2?$AAp?$AAr?$AAo?$AAg?$AAr?$AAa?$AAm?$AA?5?$AAf?$AAi?$AAl?$AAe@
CONST	SEGMENT
??_C@_1NC@PIOGAKBO@?$AAc?$AA?3?$AA?2?$AAp?$AAr?$AAo?$AAg?$AAr?$AAa?$AAm?$AA?5?$AAf?$AAi?$AAl?$AAe@ DB 'c'
	DB	00H, ':', 00H, '\', 00H, 'p', 00H, 'r', 00H, 'o', 00H, 'g', 00H
	DB	'r', 00H, 'a', 00H, 'm', 00H, ' ', 00H, 'f', 00H, 'i', 00H, 'l'
	DB	00H, 'e', 00H, 's', 00H, ' ', 00H, '(', 00H, 'x', 00H, '8', 00H
	DB	'6', 00H, ')', 00H, '\', 00H, 'm', 00H, 'i', 00H, 'c', 00H, 'r'
	DB	00H, 'o', 00H, 's', 00H, 'o', 00H, 'f', 00H, 't', 00H, ' ', 00H
	DB	'v', 00H, 'i', 00H, 's', 00H, 'u', 00H, 'a', 00H, 'l', 00H, ' '
	DB	00H, 's', 00H, 't', 00H, 'u', 00H, 'd', 00H, 'i', 00H, 'o', 00H
	DB	'\', 00H, '2', 00H, '0', 00H, '1', 00H, '7', 00H, '\', 00H, 'c'
	DB	00H, 'o', 00H, 'm', 00H, 'm', 00H, 'u', 00H, 'n', 00H, 'i', 00H
	DB	't', 00H, 'y', 00H, '\', 00H, 'v', 00H, 'c', 00H, '\', 00H, 't'
	DB	00H, 'o', 00H, 'o', 00H, 'l', 00H, 's', 00H, '\', 00H, 'm', 00H
	DB	's', 00H, 'v', 00H, 'c', 00H, '\', 00H, '1', 00H, '4', 00H, '.'
	DB	00H, '1', 00H, '6', 00H, '.', 00H, '2', 00H, '7', 00H, '0', 00H
	DB	'2', 00H, '3', 00H, '\', 00H, 'i', 00H, 'n', 00H, 'c', 00H, 'l'
	DB	00H, 'u', 00H, 'd', 00H, 'e', 00H, '\', 00H, 'x', 00H, 'm', 00H
	DB	'e', 00H, 'm', 00H, 'o', 00H, 'r', 00H, 'y', 00H, '0', 00H, 00H
	DB	00H						; `string'
CONST	ENDS
;	COMDAT ??_C@_0GJ@FFDBCFBF@c?3?2program?5files?5?$CIx86?$CJ?2microsof@
CONST	SEGMENT
??_C@_0GJ@FFDBCFBF@c?3?2program?5files?5?$CIx86?$CJ?2microsof@ DB 'c:\pro'
	DB	'gram files (x86)\microsoft visual studio\2017\community\vc\to'
	DB	'ols\msvc\14.16.27023\include\xmemory0', 00H	; `string'
CONST	ENDS
;	COMDAT ?__LINE__Var@?0??_Adjust_manually_vector_aligned@std@@YAXAEAPEAXAEA_K@Z@4JA
_DATA	SEGMENT
?__LINE__Var@?0??_Adjust_manually_vector_aligned@std@@YAXAEAPEAXAEA_K@Z@4JA DD 072H ; `std::_Adjust_manually_vector_aligned'::`1'::__LINE__Var
_DATA	ENDS
;	COMDAT ??_C@_1DG@PLBPCAEM@?$AA?$CC?$AAI?$AAT?$AAE?$AAR?$AAA?$AAT?$AAO?$AAR?$AA?5?$AAL?$AAI?$AAS?$AAT?$AA?5@
CONST	SEGMENT
??_C@_1DG@PLBPCAEM@?$AA?$CC?$AAI?$AAT?$AAE?$AAR?$AAA?$AAT?$AAO?$AAR?$AA?5?$AAL?$AAI?$AAS?$AAT?$AA?5@ DB '"'
	DB	00H, 'I', 00H, 'T', 00H, 'E', 00H, 'R', 00H, 'A', 00H, 'T', 00H
	DB	'O', 00H, 'R', 00H, ' ', 00H, 'L', 00H, 'I', 00H, 'S', 00H, 'T'
	DB	00H, ' ', 00H, 'C', 00H, 'O', 00H, 'R', 00H, 'R', 00H, 'U', 00H
	DB	'P', 00H, 'T', 00H, 'E', 00H, 'D', 00H, '!', 00H, '"', 00H, 00H
	DB	00H						; `string'
CONST	ENDS
;	COMDAT ??_C@_1EE@KLDMFDFL@?$AAs?$AAt?$AAd?$AA?3?$AA?3?$AA_?$AAI?$AAt?$AAe?$AAr?$AAa?$AAt?$AAo?$AAr?$AA_@
CONST	SEGMENT
??_C@_1EE@KLDMFDFL@?$AAs?$AAt?$AAd?$AA?3?$AA?3?$AA_?$AAI?$AAt?$AAe?$AAr?$AAa?$AAt?$AAo?$AAr?$AA_@ DB 's'
	DB	00H, 't', 00H, 'd', 00H, ':', 00H, ':', 00H, '_', 00H, 'I', 00H
	DB	't', 00H, 'e', 00H, 'r', 00H, 'a', 00H, 't', 00H, 'o', 00H, 'r'
	DB	00H, '_', 00H, 'b', 00H, 'a', 00H, 's', 00H, 'e', 00H, '1', 00H
	DB	'2', 00H, ':', 00H, ':', 00H, '_', 00H, 'O', 00H, 'r', 00H, 'p'
	DB	00H, 'h', 00H, 'a', 00H, 'n', 00H, '_', 00H, 'm', 00H, 'e', 00H
	DB	00H, 00H					; `string'
CONST	ENDS
;	COMDAT ??_C@_1NC@FANNPLN@?$AAc?$AA?3?$AA?2?$AAp?$AAr?$AAo?$AAg?$AAr?$AAa?$AAm?$AA?5?$AAf?$AAi?$AAl?$AAe@
CONST	SEGMENT
??_C@_1NC@FANNPLN@?$AAc?$AA?3?$AA?2?$AAp?$AAr?$AAo?$AAg?$AAr?$AAa?$AAm?$AA?5?$AAf?$AAi?$AAl?$AAe@ DB 'c'
	DB	00H, ':', 00H, '\', 00H, 'p', 00H, 'r', 00H, 'o', 00H, 'g', 00H
	DB	'r', 00H, 'a', 00H, 'm', 00H, ' ', 00H, 'f', 00H, 'i', 00H, 'l'
	DB	00H, 'e', 00H, 's', 00H, ' ', 00H, '(', 00H, 'x', 00H, '8', 00H
	DB	'6', 00H, ')', 00H, '\', 00H, 'm', 00H, 'i', 00H, 'c', 00H, 'r'
	DB	00H, 'o', 00H, 's', 00H, 'o', 00H, 'f', 00H, 't', 00H, ' ', 00H
	DB	'v', 00H, 'i', 00H, 's', 00H, 'u', 00H, 'a', 00H, 'l', 00H, ' '
	DB	00H, 's', 00H, 't', 00H, 'u', 00H, 'd', 00H, 'i', 00H, 'o', 00H
	DB	'\', 00H, '2', 00H, '0', 00H, '1', 00H, '7', 00H, '\', 00H, 'c'
	DB	00H, 'o', 00H, 'm', 00H, 'm', 00H, 'u', 00H, 'n', 00H, 'i', 00H
	DB	't', 00H, 'y', 00H, '\', 00H, 'v', 00H, 'c', 00H, '\', 00H, 't'
	DB	00H, 'o', 00H, 'o', 00H, 'l', 00H, 's', 00H, '\', 00H, 'm', 00H
	DB	's', 00H, 'v', 00H, 'c', 00H, '\', 00H, '1', 00H, '4', 00H, '.'
	DB	00H, '1', 00H, '6', 00H, '.', 00H, '2', 00H, '7', 00H, '0', 00H
	DB	'2', 00H, '3', 00H, '\', 00H, 'i', 00H, 'n', 00H, 'c', 00H, 'l'
	DB	00H, 'u', 00H, 'd', 00H, 'e', 00H, '\', 00H, 'x', 00H, 'u', 00H
	DB	't', 00H, 'i', 00H, 'l', 00H, 'i', 00H, 't', 00H, 'y', 00H, 00H
	DB	00H						; `string'
CONST	ENDS
;	COMDAT ??_C@_0GJ@EJIMBHLG@c?3?2program?5files?5?$CIx86?$CJ?2microsof@
CONST	SEGMENT
??_C@_0GJ@EJIMBHLG@c?3?2program?5files?5?$CIx86?$CJ?2microsof@ DB 'c:\pro'
	DB	'gram files (x86)\microsoft visual studio\2017\community\vc\to'
	DB	'ols\msvc\14.16.27023\include\xutility', 00H	; `string'
CONST	ENDS
;	COMDAT ??_C@_0BJ@LFDBABJJ@ITERATOR?5LIST?5CORRUPTED?$CB@
CONST	SEGMENT
??_C@_0BJ@LFDBABJJ@ITERATOR?5LIST?5CORRUPTED?$CB@ DB 'ITERATOR LIST CORRU'
	DB	'PTED!', 00H					; `string'
CONST	ENDS
;	COMDAT ??_C@_1CG@JNLFBNGN@?$AA?$CC?$AAi?$AAn?$AAv?$AAa?$AAl?$AAi?$AAd?$AA?5?$AAa?$AAr?$AAg?$AAu?$AAm?$AAe@
CONST	SEGMENT
??_C@_1CG@JNLFBNGN@?$AA?$CC?$AAi?$AAn?$AAv?$AAa?$AAl?$AAi?$AAd?$AA?5?$AAa?$AAr?$AAg?$AAu?$AAm?$AAe@ DB '"'
	DB	00H, 'i', 00H, 'n', 00H, 'v', 00H, 'a', 00H, 'l', 00H, 'i', 00H
	DB	'd', 00H, ' ', 00H, 'a', 00H, 'r', 00H, 'g', 00H, 'u', 00H, 'm'
	DB	00H, 'e', 00H, 'n', 00H, 't', 00H, '"', 00H, 00H, 00H ; `string'
CONST	ENDS
;	COMDAT ??_C@_02DKCKIIND@?$CFs@
CONST	SEGMENT
??_C@_02DKCKIIND@?$CFs@ DB '%s', 00H			; `string'
CONST	ENDS
;	COMDAT ??_C@_0BB@FCMFBGOM@invalid?5argument@
CONST	SEGMENT
??_C@_0BB@FCMFBGOM@invalid?5argument@ DB 'invalid argument', 00H ; `string'
CONST	ENDS
;	COMDAT xdata
xdata	SEGMENT
$unwind$??$_Seek_wrapped@PEAVbus_device@@@std@@YAXAEAPEAPEAVbus_device@@QEAPEAV1@@Z DD 025052f01H
	DD	01132318H
	DD	0700c001dH
	DD	0500bH
xdata	ENDS
;	COMDAT xdata
xdata	SEGMENT
$unwind$??$_Uninitialized_move_al_unchecked@PEAVbus_device@@PEAV1@V?$allocator@PEAVbus_device@@@std@@@std@@YAPEAPEAVbus_device@@QEAPEAV1@00AEAV?$allocator@PEAVbus_device@@@0@U_Really_trivial_ptr_iterator_tag@0@U?$integral_constant@_N$00@0@@Z DD 025053901H
	DD	011d2322H
	DD	07016001dH
	DD	05015H
xdata	ENDS
;	COMDAT xdata
xdata	SEGMENT
$unwind$??$_Get_unwrapped_n@PEAVbus_device@@_J$0A@@std@@YAPEAPEAVbus_device@@QEAPEAV1@_J@Z DD 025052f01H
	DD	01132318H
	DD	0700c001dH
	DD	0500bH
xdata	ENDS
;	COMDAT xdata
xdata	SEGMENT
$unwind$??$_Idl_distance1@PEAPEAVbus_device@@PEAPEAV1@@std@@YA_JAEBQEAPEAVbus_device@@0Urandom_access_iterator_tag@0@@Z DD 025053401H
	DD	0118231dH
	DD	07011001dH
	DD	05010H
xdata	ENDS
;	COMDAT xdata
xdata	SEGMENT
$unwind$??$_Idl_distance@PEAPEAVbus_device@@PEAPEAV1@@std@@YA@AEBQEAPEAVbus_device@@0@Z DD 025052f01H
	DD	01132318H
	DD	0700c0021H
	DD	0500bH
xdata	ENDS
;	COMDAT xdata
xdata	SEGMENT
$unwind$??$_Get_unwrapped@PEAVbus_device@@@std@@YAPEAPEAVbus_device@@QEAPEAV1@@Z DD 025052a01H
	DD	010e2313H
	DD	07007001dH
	DD	05006H
xdata	ENDS
;	COMDAT xdata
xdata	SEGMENT
$unwind$??$_Copy_memmove@PEAPEAVbus_device@@PEAPEAV1@@std@@YAPEAPEAVbus_device@@PEAPEAV1@00@Z DD 025053401H
	DD	0118231dH
	DD	07011002dH
	DD	05010H
xdata	ENDS
;	COMDAT xdata
xdata	SEGMENT
$unwind$??$_Get_size_of_n@$07@std@@YA_K_K@Z DD 025052a01H
	DD	010e2313H
	DD	070070025H
	DD	05006H
xdata	ENDS
;	COMDAT xdata
xdata	SEGMENT
$unwind$??$_Uninitialized_move@PEAPEAVbus_device@@PEAPEAV1@V?$allocator@PEAVbus_device@@@std@@@std@@YAPEAPEAVbus_device@@QEAPEAV1@0PEAPEAV1@AEAV?$allocator@PEAVbus_device@@@0@@Z DD 035054a19H
	DD	011d3322H
	DD	070160033H
	DD	05015H
	DD	imagerel __GSHandlerCheck
	DD	0188H
xdata	ENDS
;	COMDAT CONST
CONST	SEGMENT
??$_Uninitialized_move@PEAPEAVbus_device@@PEAPEAV1@V?$allocator@PEAVbus_device@@@std@@@std@@YAPEAPEAVbus_device@@QEAPEAV1@0PEAPEAV1@AEAV?$allocator@PEAVbus_device@@@0@@Z$rtcName$0 DB 05fH ; std::_Uninitialized_move<bus_device * *,bus_device * *,std::allocator<bus_device *> >
	DB	055H
	DB	046H
	DB	069H
	DB	072H
	DB	073H
	DB	074H
	DB	00H
??$_Uninitialized_move@PEAPEAVbus_device@@PEAPEAV1@V?$allocator@PEAVbus_device@@@std@@@std@@YAPEAPEAVbus_device@@QEAPEAV1@0PEAPEAV1@AEAV?$allocator@PEAVbus_device@@@0@@Z$rtcName$1 DB 05fH ; std::_Uninitialized_move<bus_device * *,bus_device * *,std::allocator<bus_device *> >
	DB	055H
	DB	04cH
	DB	061H
	DB	073H
	DB	074H
	DB	00H
	ORG $+1
??$_Uninitialized_move@PEAPEAVbus_device@@PEAPEAV1@V?$allocator@PEAVbus_device@@@std@@@std@@YAPEAPEAVbus_device@@QEAPEAV1@0PEAPEAV1@AEAV?$allocator@PEAVbus_device@@@0@@Z$rtcName$2 DB 05fH ; std::_Uninitialized_move<bus_device * *,bus_device * *,std::allocator<bus_device *> >
	DB	055H
	DB	044H
	DB	065H
	DB	073H
	DB	074H
	DB	00H
	ORG $+9
??$_Uninitialized_move@PEAPEAVbus_device@@PEAPEAV1@V?$allocator@PEAVbus_device@@@std@@@std@@YAPEAPEAVbus_device@@QEAPEAV1@0PEAPEAV1@AEAV?$allocator@PEAVbus_device@@@0@@Z$rtcVarDesc DD 078H ; std::_Uninitialized_move<bus_device * *,bus_device * *,std::allocator<bus_device *> >
	DD	08H
	DQ	FLAT:??$_Uninitialized_move@PEAPEAVbus_device@@PEAPEAV1@V?$allocator@PEAVbus_device@@@std@@@std@@YAPEAPEAVbus_device@@QEAPEAV1@0PEAPEAV1@AEAV?$allocator@PEAVbus_device@@@0@@Z$rtcName$2
	DD	058H
	DD	08H
	DQ	FLAT:??$_Uninitialized_move@PEAPEAVbus_device@@PEAPEAV1@V?$allocator@PEAVbus_device@@@std@@@std@@YAPEAPEAVbus_device@@QEAPEAV1@0PEAPEAV1@AEAV?$allocator@PEAVbus_device@@@0@@Z$rtcName$1
	DD	038H
	DD	08H
	DQ	FLAT:??$_Uninitialized_move@PEAPEAVbus_device@@PEAPEAV1@V?$allocator@PEAVbus_device@@@std@@@std@@YAPEAPEAVbus_device@@QEAPEAV1@0PEAPEAV1@AEAV?$allocator@PEAVbus_device@@@0@@Z$rtcName$0
	ORG $+144
??$_Uninitialized_move@PEAPEAVbus_device@@PEAPEAV1@V?$allocator@PEAVbus_device@@@std@@@std@@YAPEAPEAVbus_device@@QEAPEAV1@0PEAPEAV1@AEAV?$allocator@PEAVbus_device@@@0@@Z$rtcFrameData DD 03H ; std::_Uninitialized_move<bus_device * *,bus_device * *,std::allocator<bus_device *> >
	DD	00H
	DQ	FLAT:??$_Uninitialized_move@PEAPEAVbus_device@@PEAPEAV1@V?$allocator@PEAVbus_device@@@std@@@std@@YAPEAPEAVbus_device@@QEAPEAV1@0PEAPEAV1@AEAV?$allocator@PEAVbus_device@@@0@@Z$rtcVarDesc
CONST	ENDS
;	COMDAT xdata
xdata	SEGMENT
$unwind$??$_Destroy_range1@V?$allocator@PEAVbus_device@@@std@@@std@@YAXPEAPEAVbus_device@@0AEAV?$allocator@PEAVbus_device@@@0@U?$integral_constant@_N$00@0@@Z DD 025053901H
	DD	011d2322H
	DD	07016001dH
	DD	05015H
xdata	ENDS
;	COMDAT xdata
xdata	SEGMENT
$ip2state$??$forward@U_Container_proxy@std@@@std@@YA$$QEAU_Container_proxy@0@AEAU10@@Z DD imagerel ??$forward@U_Container_proxy@std@@@std@@YA$$QEAU_Container_proxy@0@AEAU10@@Z
	DD	0ffffffffH
xdata	ENDS
;	COMDAT CONST
CONST	SEGMENT
$cppxdata$??$forward@U_Container_proxy@std@@@std@@YA$$QEAU_Container_proxy@0@AEAU10@@Z DD 019930522H
	DD	00H
	DD	00H
	DD	00H
	DD	00H
	DD	01H
	DD	imagerel $ip2state$??$forward@U_Container_proxy@std@@@std@@YA$$QEAU_Container_proxy@0@AEAU10@@Z
	DD	0e8H
	DD	00H
	DD	05H
CONST	ENDS
;	COMDAT xdata
xdata	SEGMENT
$unwind$??$forward@U_Container_proxy@std@@@std@@YA$$QEAU_Container_proxy@0@AEAU10@@Z DD 025053519H
	DD	010e2313H
	DD	070070021H
	DD	05006H
	DD	imagerel __CxxFrameHandler3
	DD	imagerel $cppxdata$??$forward@U_Container_proxy@std@@@std@@YA$$QEAU_Container_proxy@0@AEAU10@@Z
xdata	ENDS
;	COMDAT xdata
xdata	SEGMENT
$unwind$??$_Allocate_manually_vector_aligned@U_Default_allocate_traits@std@@@std@@YAPEAX_K@Z DD 035052a01H
	DD	010e3313H
	DD	07007002bH
	DD	05006H
xdata	ENDS
;	COMDAT xdata
xdata	SEGMENT
$unwind$??$_Move_unchecked1@PEAPEAVbus_device@@PEAPEAV1@@std@@YAPEAPEAVbus_device@@PEAPEAV1@00U_Trivially_copyable_ptr_iterator_tag@0@@Z DD 025053901H
	DD	011d2322H
	DD	07016001dH
	DD	05015H
xdata	ENDS
;	COMDAT xdata
xdata	SEGMENT
$unwind$??$_Ptr_move_cat@PEAVbus_device@@PEAV1@@std@@YA?AU_Really_trivial_ptr_iterator_tag@0@AEBQEAPEAVbus_device@@0@Z DD 025053401H
	DD	0118231dH
	DD	07011001dH
	DD	05010H
xdata	ENDS
;	COMDAT xdata
xdata	SEGMENT
$unwind$??$_Get_size_of_n@$0BA@@std@@YA_K_K@Z DD 025052a01H
	DD	010e2313H
	DD	070070025H
	DD	05006H
xdata	ENDS
;	COMDAT xdata
xdata	SEGMENT
$unwind$??$_Destroy_range@V?$allocator@PEAVbus_device@@@std@@@std@@YAXPEAPEAVbus_device@@0AEAV?$allocator@PEAVbus_device@@@0@@Z DD 025053401H
	DD	0118231dH
	DD	070110021H
	DD	05010H
xdata	ENDS
;	COMDAT xdata
xdata	SEGMENT
$unwind$??$construct@U_Container_proxy@std@@U12@@?$_Default_allocator_traits@V?$allocator@U_Container_proxy@std@@@std@@@std@@SAXAEAV?$allocator@U_Container_proxy@std@@@1@QEAU_Container_proxy@1@$$QEAU31@@Z DD 025063501H
	DD	0119231eH
	DD	070120020H
	DD	050106011H
xdata	ENDS
;	COMDAT xdata
xdata	SEGMENT
$unwind$??$_Unfancy@U_Container_proxy@std@@@std@@YAPEAU_Container_proxy@0@PEAU10@@Z DD 025052a01H
	DD	010e2313H
	DD	07007001dH
	DD	05006H
xdata	ENDS
;	COMDAT xdata
xdata	SEGMENT
$unwind$??$_Deallocate_plain@V?$allocator@U_Container_proxy@std@@@std@@$0A@@std@@YAXAEAV?$allocator@U_Container_proxy@std@@@0@QEAU_Container_proxy@0@@Z DD 025052f01H
	DD	01132318H
	DD	0700c001dH
	DD	0500bH
xdata	ENDS
;	COMDAT xdata
xdata	SEGMENT
$unwind$??$destroy@U_Container_proxy@std@@@?$_Default_allocator_traits@V?$allocator@U_Container_proxy@std@@@std@@@std@@SAXAEAV?$allocator@U_Container_proxy@std@@@1@QEAU_Container_proxy@1@@Z DD 025052f01H
	DD	01132318H
	DD	0700c001dH
	DD	0500bH
xdata	ENDS
;	COMDAT xdata
xdata	SEGMENT
$unwind$?deallocate@?$_Default_allocator_traits@V?$allocator@U_Container_proxy@std@@@std@@@std@@SAXAEAV?$allocator@U_Container_proxy@std@@@2@QEAU_Container_proxy@2@_K@Z DD 025053401H
	DD	0118231dH
	DD	07011001dH
	DD	05010H
xdata	ENDS
;	COMDAT xdata
xdata	SEGMENT
$ip2state$??$?0PEAVbus_device@@@?$allocator@U_Container_proxy@std@@@std@@QEAA@AEBV?$allocator@PEAVbus_device@@@1@@Z DD imagerel ??$?0PEAVbus_device@@@?$allocator@U_Container_proxy@std@@@std@@QEAA@AEBV?$allocator@PEAVbus_device@@@1@@Z
	DD	0ffffffffH
xdata	ENDS
;	COMDAT CONST
CONST	SEGMENT
$cppxdata$??$?0PEAVbus_device@@@?$allocator@U_Container_proxy@std@@@std@@QEAA@AEBV?$allocator@PEAVbus_device@@@1@@Z DD 019930522H
	DD	00H
	DD	00H
	DD	00H
	DD	00H
	DD	01H
	DD	imagerel $ip2state$??$?0PEAVbus_device@@@?$allocator@U_Container_proxy@std@@@std@@QEAA@AEBV?$allocator@PEAVbus_device@@@1@@Z
	DD	0e8H
	DD	00H
	DD	05H
CONST	ENDS
;	COMDAT xdata
xdata	SEGMENT
$unwind$??$?0PEAVbus_device@@@?$allocator@U_Container_proxy@std@@@std@@QEAA@AEBV?$allocator@PEAVbus_device@@@1@@Z DD 025053a19H
	DD	01132318H
	DD	0700c0021H
	DD	0500bH
	DD	imagerel __CxxFrameHandler3
	DD	imagerel $cppxdata$??$?0PEAVbus_device@@@?$allocator@U_Container_proxy@std@@@std@@QEAA@AEBV?$allocator@PEAVbus_device@@@1@@Z
xdata	ENDS
;	COMDAT xdata
xdata	SEGMENT
$unwind$?allocate@?$allocator@U_Container_proxy@std@@@std@@QEAAPEAU_Container_proxy@2@_K@Z DD 025052f01H
	DD	01132318H
	DD	0700c001dH
	DD	0500bH
xdata	ENDS
;	COMDAT xdata
xdata	SEGMENT
$unwind$??$_Deallocate@$0BA@$0A@@std@@YAXPEAX_K@Z DD 025052f01H
	DD	01132318H
	DD	0700c001dH
	DD	0500bH
xdata	ENDS
;	COMDAT xdata
xdata	SEGMENT
$unwind$??$_Allocate@$0BA@U_Default_allocate_traits@std@@$0A@@std@@YAPEAX_K@Z DD 025052a01H
	DD	010e2313H
	DD	07007001dH
	DD	05006H
xdata	ENDS
;	COMDAT xdata
xdata	SEGMENT
$unwind$??$?0$$V@?$_Compressed_pair@V?$allocator@PEAVbus_device@@@std@@V?$_Vector_val@U?$_Simple_types@PEAVbus_device@@@std@@@2@$00@std@@QEAA@U_Zero_then_variadic_args_t@1@@Z DD 025052e01H
	DD	01122317H
	DD	0700b001dH
	DD	0500aH
xdata	ENDS
;	COMDAT xdata
xdata	SEGMENT
$unwind$??Bsentry@?$basic_ostream@DU?$char_traits@D@std@@@std@@QEBA_NXZ DD 025052a01H
	DD	010e2313H
	DD	07007001dH
	DD	05006H
xdata	ENDS
;	COMDAT xdata
xdata	SEGMENT
$ip2state$??1sentry@?$basic_ostream@DU?$char_traits@D@std@@@std@@QEAA@XZ DD imagerel ??1sentry@?$basic_ostream@DU?$char_traits@D@std@@@std@@QEAA@XZ
	DD	0ffffffffH
xdata	ENDS
;	COMDAT CONST
CONST	SEGMENT
$cppxdata$??1sentry@?$basic_ostream@DU?$char_traits@D@std@@@std@@QEAA@XZ DD 019930522H
	DD	00H
	DD	00H
	DD	00H
	DD	00H
	DD	01H
	DD	imagerel $ip2state$??1sentry@?$basic_ostream@DU?$char_traits@D@std@@@std@@QEAA@XZ
	DD	0e8H
	DD	00H
	DD	05H
CONST	ENDS
;	COMDAT xdata
xdata	SEGMENT
$unwind$??1sentry@?$basic_ostream@DU?$char_traits@D@std@@@std@@QEAA@XZ DD 025053519H
	DD	010e2313H
	DD	070070021H
	DD	05006H
	DD	imagerel __CxxFrameHandler3
	DD	imagerel $cppxdata$??1sentry@?$basic_ostream@DU?$char_traits@D@std@@@std@@QEAA@XZ
xdata	ENDS
;	COMDAT xdata
xdata	SEGMENT
$unwind$?dtor$0@?0???0sentry@?$basic_ostream@DU?$char_traits@D@std@@@std@@QEAA@AEAV12@@Z@4HA DD 031001H
	DD	0700c4210H
	DD	0500bH
xdata	ENDS
;	COMDAT xdata
xdata	SEGMENT
$ip2state$??0sentry@?$basic_ostream@DU?$char_traits@D@std@@@std@@QEAA@AEAV12@@Z DD imagerel ??0sentry@?$basic_ostream@DU?$char_traits@D@std@@@std@@QEAA@AEAV12@@Z
	DD	0ffffffffH
	DD	imagerel ??0sentry@?$basic_ostream@DU?$char_traits@D@std@@@std@@QEAA@AEAV12@@Z+90
	DD	00H
	DD	imagerel ??0sentry@?$basic_ostream@DU?$char_traits@D@std@@@std@@QEAA@AEAV12@@Z+314
	DD	0ffffffffH
xdata	ENDS
;	COMDAT xdata
xdata	SEGMENT
$stateUnwindMap$??0sentry@?$basic_ostream@DU?$char_traits@D@std@@@std@@QEAA@AEAV12@@Z DD 0ffffffffH
	DD	imagerel ?dtor$0@?0???0sentry@?$basic_ostream@DU?$char_traits@D@std@@@std@@QEAA@AEAV12@@Z@4HA
xdata	ENDS
;	COMDAT CONST
CONST	SEGMENT
$cppxdata$??0sentry@?$basic_ostream@DU?$char_traits@D@std@@@std@@QEAA@AEAV12@@Z DD 019930522H
	DD	01H
	DD	imagerel $stateUnwindMap$??0sentry@?$basic_ostream@DU?$char_traits@D@std@@@std@@QEAA@AEAV12@@Z
	DD	00H
	DD	00H
	DD	03H
	DD	imagerel $ip2state$??0sentry@?$basic_ostream@DU?$char_traits@D@std@@@std@@QEAA@AEAV12@@Z
	DD	0e8H
	DD	00H
	DD	01H
CONST	ENDS
;	COMDAT xdata
xdata	SEGMENT
$unwind$??0sentry@?$basic_ostream@DU?$char_traits@D@std@@@std@@QEAA@AEAV12@@Z DD 025053a11H
	DD	01132318H
	DD	0700c0021H
	DD	0500bH
	DD	imagerel __CxxFrameHandler3
	DD	imagerel $cppxdata$??0sentry@?$basic_ostream@DU?$char_traits@D@std@@@std@@QEAA@AEAV12@@Z
xdata	ENDS
;	COMDAT xdata
xdata	SEGMENT
$ip2state$??1_Sentry_base@?$basic_ostream@DU?$char_traits@D@std@@@std@@QEAA@XZ DD imagerel ??1_Sentry_base@?$basic_ostream@DU?$char_traits@D@std@@@std@@QEAA@XZ
	DD	0ffffffffH
xdata	ENDS
;	COMDAT CONST
CONST	SEGMENT
$cppxdata$??1_Sentry_base@?$basic_ostream@DU?$char_traits@D@std@@@std@@QEAA@XZ DD 019930522H
	DD	00H
	DD	00H
	DD	00H
	DD	00H
	DD	01H
	DD	imagerel $ip2state$??1_Sentry_base@?$basic_ostream@DU?$char_traits@D@std@@@std@@QEAA@XZ
	DD	0e8H
	DD	00H
	DD	05H
CONST	ENDS
;	COMDAT xdata
xdata	SEGMENT
$unwind$??1_Sentry_base@?$basic_ostream@DU?$char_traits@D@std@@@std@@QEAA@XZ DD 025053519H
	DD	010e2313H
	DD	070070023H
	DD	05006H
	DD	imagerel __CxxFrameHandler3
	DD	imagerel $cppxdata$??1_Sentry_base@?$basic_ostream@DU?$char_traits@D@std@@@std@@QEAA@XZ
xdata	ENDS
;	COMDAT xdata
xdata	SEGMENT
$unwind$??0_Sentry_base@?$basic_ostream@DU?$char_traits@D@std@@@std@@QEAA@AEAV12@@Z DD 025052f01H
	DD	01132318H
	DD	0700c001fH
	DD	0500bH
xdata	ENDS
;	COMDAT xdata
xdata	SEGMENT
$unwind$?catch$0@?0???$_Emplace_reallocate@AEBQEAVbus_device@@@?$vector@PEAVbus_device@@V?$allocator@PEAVbus_device@@@std@@@std@@QEAAPEAPEAVbus_device@@QEAPEAV2@AEBQEAV2@@Z@4HA DD 031019H
	DD	0700c4210H
	DD	0500bH
	DD	imagerel __CxxFrameHandler3
	DD	imagerel $cppxdata$??$_Emplace_reallocate@AEBQEAVbus_device@@@?$vector@PEAVbus_device@@V?$allocator@PEAVbus_device@@@std@@@std@@QEAAPEAPEAVbus_device@@QEAPEAV2@AEBQEAV2@@Z
xdata	ENDS
;	COMDAT xdata
xdata	SEGMENT
$ip2state$??$_Emplace_reallocate@AEBQEAVbus_device@@@?$vector@PEAVbus_device@@V?$allocator@PEAVbus_device@@@std@@@std@@QEAAPEAPEAVbus_device@@QEAPEAV2@AEBQEAV2@@Z DD imagerel ??$_Emplace_reallocate@AEBQEAVbus_device@@@?$vector@PEAVbus_device@@V?$allocator@PEAVbus_device@@@std@@@std@@QEAAPEAPEAVbus_device@@QEAPEAV2@AEBQEAV2@@Z
	DD	0ffffffffH
	DD	imagerel ??$_Emplace_reallocate@AEBQEAVbus_device@@@?$vector@PEAVbus_device@@V?$allocator@PEAVbus_device@@@std@@@std@@QEAAPEAPEAVbus_device@@QEAPEAV2@AEBQEAV2@@Z+260
	DD	00H
	DD	imagerel ??$_Emplace_reallocate@AEBQEAVbus_device@@@?$vector@PEAVbus_device@@V?$allocator@PEAVbus_device@@@std@@@std@@QEAAPEAPEAVbus_device@@QEAPEAV2@AEBQEAV2@@Z+555
	DD	0ffffffffH
	DD	imagerel ?catch$0@?0???$_Emplace_reallocate@AEBQEAVbus_device@@@?$vector@PEAVbus_device@@V?$allocator@PEAVbus_device@@@std@@@std@@QEAAPEAPEAVbus_device@@QEAPEAV2@AEBQEAV2@@Z@4HA
	DD	00H
	DD	imagerel ?catch$0@?0???$_Emplace_reallocate@AEBQEAVbus_device@@@?$vector@PEAVbus_device@@V?$allocator@PEAVbus_device@@@std@@@std@@QEAAPEAPEAVbus_device@@QEAPEAV2@AEBQEAV2@@Z@4HA+20
	DD	01H
	DD	imagerel ?catch$0@?0???$_Emplace_reallocate@AEBQEAVbus_device@@@?$vector@PEAVbus_device@@V?$allocator@PEAVbus_device@@@std@@@std@@QEAAPEAPEAVbus_device@@QEAPEAV2@AEBQEAV2@@Z@4HA+79
	DD	00H
xdata	ENDS
;	COMDAT xdata
xdata	SEGMENT
$handlerMap$0$??$_Emplace_reallocate@AEBQEAVbus_device@@@?$vector@PEAVbus_device@@V?$allocator@PEAVbus_device@@@std@@@std@@QEAAPEAPEAVbus_device@@QEAPEAV2@AEBQEAV2@@Z DD 040H
	DD	00H
	DD	00H
	DD	imagerel ?catch$0@?0???$_Emplace_reallocate@AEBQEAVbus_device@@@?$vector@PEAVbus_device@@V?$allocator@PEAVbus_device@@@std@@@std@@QEAAPEAPEAVbus_device@@QEAPEAV2@AEBQEAV2@@Z@4HA
	DD	048H
xdata	ENDS
;	COMDAT xdata
xdata	SEGMENT
$tryMap$??$_Emplace_reallocate@AEBQEAVbus_device@@@?$vector@PEAVbus_device@@V?$allocator@PEAVbus_device@@@std@@@std@@QEAAPEAPEAVbus_device@@QEAPEAV2@AEBQEAV2@@Z DD 00H
	DD	00H
	DD	01H
	DD	01H
	DD	imagerel $handlerMap$0$??$_Emplace_reallocate@AEBQEAVbus_device@@@?$vector@PEAVbus_device@@V?$allocator@PEAVbus_device@@@std@@@std@@QEAAPEAPEAVbus_device@@QEAPEAV2@AEBQEAV2@@Z
xdata	ENDS
;	COMDAT xdata
xdata	SEGMENT
$stateUnwindMap$??$_Emplace_reallocate@AEBQEAVbus_device@@@?$vector@PEAVbus_device@@V?$allocator@PEAVbus_device@@@std@@@std@@QEAAPEAPEAVbus_device@@QEAPEAV2@AEBQEAV2@@Z DD 0ffffffffH
	DD	00H
	DD	0ffffffffH
	DD	00H
xdata	ENDS
;	COMDAT CONST
CONST	SEGMENT
$cppxdata$??$_Emplace_reallocate@AEBQEAVbus_device@@@?$vector@PEAVbus_device@@V?$allocator@PEAVbus_device@@@std@@@std@@QEAAPEAPEAVbus_device@@QEAPEAV2@AEBQEAV2@@Z DD 019930522H
	DD	02H
	DD	imagerel $stateUnwindMap$??$_Emplace_reallocate@AEBQEAVbus_device@@@?$vector@PEAVbus_device@@V?$allocator@PEAVbus_device@@@std@@@std@@QEAAPEAPEAVbus_device@@QEAPEAV2@AEBQEAV2@@Z
	DD	01H
	DD	imagerel $tryMap$??$_Emplace_reallocate@AEBQEAVbus_device@@@?$vector@PEAVbus_device@@V?$allocator@PEAVbus_device@@@std@@@std@@QEAAPEAPEAVbus_device@@QEAPEAV2@AEBQEAV2@@Z
	DD	06H
	DD	imagerel $ip2state$??$_Emplace_reallocate@AEBQEAVbus_device@@@?$vector@PEAVbus_device@@V?$allocator@PEAVbus_device@@@std@@@std@@QEAAPEAPEAVbus_device@@QEAPEAV2@AEBQEAV2@@Z
	DD	01e8H
	DD	00H
	DD	01H
CONST	ENDS
;	COMDAT xdata
xdata	SEGMENT
$unwind$??$_Emplace_reallocate@AEBQEAVbus_device@@@?$vector@PEAVbus_device@@V?$allocator@PEAVbus_device@@@std@@@std@@QEAAPEAPEAVbus_device@@QEAPEAV2@AEBQEAV2@@Z DD 025053f19H
	DD	0118231dH
	DD	070110041H
	DD	05010H
	DD	imagerel __CxxFrameHandler3
	DD	imagerel $cppxdata$??$_Emplace_reallocate@AEBQEAVbus_device@@@?$vector@PEAVbus_device@@V?$allocator@PEAVbus_device@@@std@@@std@@QEAAPEAPEAVbus_device@@QEAPEAV2@AEBQEAV2@@Z
xdata	ENDS
;	COMDAT xdata
xdata	SEGMENT
$unwind$??$construct@PEAVbus_device@@AEBQEAV1@@?$_Default_allocator_traits@V?$allocator@PEAVbus_device@@@std@@@std@@SAXAEAV?$allocator@PEAVbus_device@@@1@QEAPEAVbus_device@@AEBQEAV3@@Z DD 025053401H
	DD	0118231dH
	DD	070110021H
	DD	05010H
xdata	ENDS
;	COMDAT xdata
xdata	SEGMENT
$unwind$??$_Emplace_back_with_unused_capacity@AEBQEAVbus_device@@@?$vector@PEAVbus_device@@V?$allocator@PEAVbus_device@@@std@@@std@@AEAA@AEBQEAVbus_device@@@Z DD 025052f01H
	DD	01132318H
	DD	0700c0023H
	DD	0500bH
xdata	ENDS
;	COMDAT xdata
xdata	SEGMENT
$ip2state$??$forward@AEBQEAVbus_device@@@std@@YAAEBQEAVbus_device@@AEBQEAV1@@Z DD imagerel ??$forward@AEBQEAVbus_device@@@std@@YAAEBQEAVbus_device@@AEBQEAV1@@Z
	DD	0ffffffffH
xdata	ENDS
;	COMDAT CONST
CONST	SEGMENT
$cppxdata$??$forward@AEBQEAVbus_device@@@std@@YAAEBQEAVbus_device@@AEBQEAV1@@Z DD 019930522H
	DD	00H
	DD	00H
	DD	00H
	DD	00H
	DD	01H
	DD	imagerel $ip2state$??$forward@AEBQEAVbus_device@@@std@@YAAEBQEAVbus_device@@AEBQEAV1@@Z
	DD	0e8H
	DD	00H
	DD	05H
CONST	ENDS
;	COMDAT xdata
xdata	SEGMENT
$unwind$??$forward@AEBQEAVbus_device@@@std@@YAAEBQEAVbus_device@@AEBQEAV1@@Z DD 025053519H
	DD	010e2313H
	DD	070070021H
	DD	05006H
	DD	imagerel __CxxFrameHandler3
	DD	imagerel $cppxdata$??$forward@AEBQEAVbus_device@@@std@@YAAEBQEAVbus_device@@AEBQEAV1@@Z
xdata	ENDS
;	COMDAT xdata
xdata	SEGMENT
$unwind$??$emplace_back@AEBQEAVbus_device@@@?$vector@PEAVbus_device@@V?$allocator@PEAVbus_device@@@std@@@std@@QEAA@AEBQEAVbus_device@@@Z DD 025052f01H
	DD	01132318H
	DD	0700c0021H
	DD	0500bH
xdata	ENDS
;	COMDAT xdata
xdata	SEGMENT
$unwind$??$destroy@PEAVbus_device@@@?$_Default_allocator_traits@V?$allocator@PEAVbus_device@@@std@@@std@@SAXAEAV?$allocator@PEAVbus_device@@@1@QEAPEAVbus_device@@@Z DD 025052f01H
	DD	01132318H
	DD	0700c001dH
	DD	0500bH
xdata	ENDS
;	COMDAT xdata
xdata	SEGMENT
$unwind$??$_Unfancy@PEAVbus_device@@@std@@YAPEAPEAVbus_device@@PEAPEAV1@@Z DD 025052a01H
	DD	010e2313H
	DD	07007001dH
	DD	05006H
xdata	ENDS
;	COMDAT xdata
xdata	SEGMENT
$unwind$??$_Move_unchecked@PEAPEAVbus_device@@PEAPEAV1@@std@@YAPEAPEAVbus_device@@PEAPEAV1@00@Z DD 025053401H
	DD	0118231dH
	DD	070110025H
	DD	05010H
xdata	ENDS
;	COMDAT xdata
xdata	SEGMENT
$ip2state$??$addressof@V?$_Vector_val@U?$_Simple_types@PEAVbus_device@@@std@@@std@@@std@@YAPEAV?$_Vector_val@U?$_Simple_types@PEAVbus_device@@@std@@@0@AEAV10@@Z DD imagerel ??$addressof@V?$_Vector_val@U?$_Simple_types@PEAVbus_device@@@std@@@std@@@std@@YAPEAV?$_Vector_val@U?$_Simple_types@PEAVbus_device@@@std@@@0@AEAV10@@Z
	DD	0ffffffffH
xdata	ENDS
;	COMDAT CONST
CONST	SEGMENT
$cppxdata$??$addressof@V?$_Vector_val@U?$_Simple_types@PEAVbus_device@@@std@@@std@@@std@@YAPEAV?$_Vector_val@U?$_Simple_types@PEAVbus_device@@@std@@@0@AEAV10@@Z DD 019930522H
	DD	00H
	DD	00H
	DD	00H
	DD	00H
	DD	01H
	DD	imagerel $ip2state$??$addressof@V?$_Vector_val@U?$_Simple_types@PEAVbus_device@@@std@@@std@@@std@@YAPEAV?$_Vector_val@U?$_Simple_types@PEAVbus_device@@@std@@@0@AEAV10@@Z
	DD	0e8H
	DD	00H
	DD	05H
CONST	ENDS
;	COMDAT xdata
xdata	SEGMENT
$unwind$??$addressof@V?$_Vector_val@U?$_Simple_types@PEAVbus_device@@@std@@@std@@@std@@YAPEAV?$_Vector_val@U?$_Simple_types@PEAVbus_device@@@std@@@0@AEAV10@@Z DD 025053519H
	DD	010e2313H
	DD	070070021H
	DD	05006H
	DD	imagerel __CxxFrameHandler3
	DD	imagerel $cppxdata$??$addressof@V?$_Vector_val@U?$_Simple_types@PEAVbus_device@@@std@@@std@@@std@@YAPEAV?$_Vector_val@U?$_Simple_types@PEAVbus_device@@@std@@@0@AEAV10@@Z
xdata	ENDS
;	COMDAT xdata
xdata	SEGMENT
$unwind$??$endl@DU?$char_traits@D@std@@@std@@YAAEAV?$basic_ostream@DU?$char_traits@D@std@@@0@AEAV10@@Z DD 025052a01H
	DD	010e2313H
	DD	07007001dH
	DD	05006H
xdata	ENDS
;	COMDAT xdata
xdata	SEGMENT
$unwind$?catch$1@?0???$?6U?$char_traits@D@std@@@std@@YAAEAV?$basic_ostream@DU?$char_traits@D@std@@@0@AEAV10@PEBD@Z@4HA DD 031019H
	DD	0700c4210H
	DD	0500bH
	DD	imagerel __CxxFrameHandler3
	DD	imagerel $cppxdata$??$?6U?$char_traits@D@std@@@std@@YAAEAV?$basic_ostream@DU?$char_traits@D@std@@@0@AEAV10@PEBD@Z
xdata	ENDS
;	COMDAT xdata
xdata	SEGMENT
$unwind$?dtor$0@?0???$?6U?$char_traits@D@std@@@std@@YAAEAV?$basic_ostream@DU?$char_traits@D@std@@@0@AEAV10@PEBD@Z@4HA DD 031001H
	DD	0700c4210H
	DD	0500bH
xdata	ENDS
;	COMDAT xdata
xdata	SEGMENT
$ip2state$??$?6U?$char_traits@D@std@@@std@@YAAEAV?$basic_ostream@DU?$char_traits@D@std@@@0@AEAV10@PEBD@Z DD imagerel ??$?6U?$char_traits@D@std@@@std@@YAAEAV?$basic_ostream@DU?$char_traits@D@std@@@0@AEAV10@PEBD@Z
	DD	0ffffffffH
	DD	imagerel ??$?6U?$char_traits@D@std@@@std@@YAAEAV?$basic_ostream@DU?$char_traits@D@std@@@0@AEAV10@PEBD@Z+281
	DD	00H
	DD	imagerel ??$?6U?$char_traits@D@std@@@std@@YAAEAV?$basic_ostream@DU?$char_traits@D@std@@@0@AEAV10@PEBD@Z+311
	DD	01H
	DD	imagerel ??$?6U?$char_traits@D@std@@@std@@YAAEAV?$basic_ostream@DU?$char_traits@D@std@@@0@AEAV10@PEBD@Z+924
	DD	00H
	DD	imagerel ??$?6U?$char_traits@D@std@@@std@@YAAEAV?$basic_ostream@DU?$char_traits@D@std@@@0@AEAV10@PEBD@Z+982
	DD	0ffffffffH
	DD	imagerel ?catch$1@?0???$?6U?$char_traits@D@std@@@std@@YAAEAV?$basic_ostream@DU?$char_traits@D@std@@@0@AEAV10@PEBD@Z@4HA
	DD	00H
	DD	imagerel ?catch$1@?0???$?6U?$char_traits@D@std@@@std@@YAAEAV?$basic_ostream@DU?$char_traits@D@std@@@0@AEAV10@PEBD@Z@4HA+20
	DD	02H
	DD	imagerel ?catch$1@?0???$?6U?$char_traits@D@std@@@std@@YAAEAV?$basic_ostream@DU?$char_traits@D@std@@@0@AEAV10@PEBD@Z@4HA+65
	DD	00H
xdata	ENDS
;	COMDAT xdata
xdata	SEGMENT
$handlerMap$0$??$?6U?$char_traits@D@std@@@std@@YAAEAV?$basic_ostream@DU?$char_traits@D@std@@@0@AEAV10@PEBD@Z DD 040H
	DD	00H
	DD	00H
	DD	imagerel ?catch$1@?0???$?6U?$char_traits@D@std@@@std@@YAAEAV?$basic_ostream@DU?$char_traits@D@std@@@0@AEAV10@PEBD@Z@4HA
	DD	048H
xdata	ENDS
;	COMDAT xdata
xdata	SEGMENT
$tryMap$??$?6U?$char_traits@D@std@@@std@@YAAEAV?$basic_ostream@DU?$char_traits@D@std@@@0@AEAV10@PEBD@Z DD 01H
	DD	01H
	DD	02H
	DD	01H
	DD	imagerel $handlerMap$0$??$?6U?$char_traits@D@std@@@std@@YAAEAV?$basic_ostream@DU?$char_traits@D@std@@@0@AEAV10@PEBD@Z
xdata	ENDS
;	COMDAT xdata
xdata	SEGMENT
$stateUnwindMap$??$?6U?$char_traits@D@std@@@std@@YAAEAV?$basic_ostream@DU?$char_traits@D@std@@@0@AEAV10@PEBD@Z DD 0ffffffffH
	DD	imagerel ?dtor$0@?0???$?6U?$char_traits@D@std@@@std@@YAAEAV?$basic_ostream@DU?$char_traits@D@std@@@0@AEAV10@PEBD@Z@4HA
	DD	00H
	DD	00H
	DD	00H
	DD	00H
xdata	ENDS
;	COMDAT xdata
xdata	SEGMENT
$unwind$??$?6U?$char_traits@D@std@@@std@@YAAEAV?$basic_ostream@DU?$char_traits@D@std@@@0@AEAV10@PEBD@Z DD 025054b19H
	DD	01132318H
	DD	0700c0049H
	DD	0500bH
	DD	imagerel __GSHandlerCheck_EH
	DD	imagerel $cppxdata$??$?6U?$char_traits@D@std@@@std@@YAAEAV?$basic_ostream@DU?$char_traits@D@std@@@0@AEAV10@PEBD@Z
	DD	023bH
xdata	ENDS
;	COMDAT CONST
CONST	SEGMENT
??$?6U?$char_traits@D@std@@@std@@YAAEAV?$basic_ostream@DU?$char_traits@D@std@@@0@AEAV10@PEBD@Z$rtcName$0 DB 05fH ; std::operator<<<std::char_traits<char> >
	DB	04fH
	DB	06bH
	DB	00H
	ORG $+12
??$?6U?$char_traits@D@std@@@std@@YAAEAV?$basic_ostream@DU?$char_traits@D@std@@@0@AEAV10@PEBD@Z$rtcVarDesc DD 088H ; std::operator<<<std::char_traits<char> >
	DD	010H
	DQ	FLAT:??$?6U?$char_traits@D@std@@@std@@YAAEAV?$basic_ostream@DU?$char_traits@D@std@@@0@AEAV10@PEBD@Z$rtcName$0
	ORG $+48
??$?6U?$char_traits@D@std@@@std@@YAAEAV?$basic_ostream@DU?$char_traits@D@std@@@0@AEAV10@PEBD@Z$rtcFrameData DD 01H ; std::operator<<<std::char_traits<char> >
	DD	00H
	DQ	FLAT:??$?6U?$char_traits@D@std@@@std@@YAAEAV?$basic_ostream@DU?$char_traits@D@std@@@0@AEAV10@PEBD@Z$rtcVarDesc
$cppxdata$??$?6U?$char_traits@D@std@@@std@@YAAEAV?$basic_ostream@DU?$char_traits@D@std@@@0@AEAV10@PEBD@Z DD 019930522H
	DD	03H
	DD	imagerel $stateUnwindMap$??$?6U?$char_traits@D@std@@@std@@YAAEAV?$basic_ostream@DU?$char_traits@D@std@@@0@AEAV10@PEBD@Z
	DD	01H
	DD	imagerel $tryMap$??$?6U?$char_traits@D@std@@@std@@YAAEAV?$basic_ostream@DU?$char_traits@D@std@@@0@AEAV10@PEBD@Z
	DD	08H
	DD	imagerel $ip2state$??$?6U?$char_traits@D@std@@@std@@YAAEAV?$basic_ostream@DU?$char_traits@D@std@@@0@AEAV10@PEBD@Z
	DD	0218H
	DD	00H
	DD	01H
CONST	ENDS
;	COMDAT xdata
xdata	SEGMENT
$unwind$?__autoclassinit2@?$_Vector_iterator@V?$_Vector_val@U?$_Simple_types@PEAVbus_device@@@std@@@std@@@std@@QEAAX_K@Z DD 05052d01H
	DD	01130316H
	DD	0700c0019H
	DD	0500bH
xdata	ENDS
;	COMDAT xdata
xdata	SEGMENT
$unwind$??0?$_Vector_iterator@V?$_Vector_val@U?$_Simple_types@PEAVbus_device@@@std@@@std@@@std@@QEAA@AEBV01@@Z DD 025052f01H
	DD	01132318H
	DD	0700c001dH
	DD	0500bH
xdata	ENDS
;	COMDAT xdata
xdata	SEGMENT
$unwind$??1?$_Vector_iterator@V?$_Vector_val@U?$_Simple_types@PEAVbus_device@@@std@@@std@@@std@@QEAA@XZ DD 025052a01H
	DD	010e2313H
	DD	07007001dH
	DD	05006H
xdata	ENDS
;	COMDAT xdata
xdata	SEGMENT
$unwind$?dtor$0@?0???H?$_Vector_iterator@V?$_Vector_val@U?$_Simple_types@PEAVbus_device@@@std@@@std@@@std@@QEBA?AV01@_J@Z@4HA DD 031001H
	DD	0700c4210H
	DD	0500bH
xdata	ENDS
;	COMDAT xdata
xdata	SEGMENT
$ip2state$??H?$_Vector_iterator@V?$_Vector_val@U?$_Simple_types@PEAVbus_device@@@std@@@std@@@std@@QEBA?AV01@_J@Z DD imagerel ??H?$_Vector_iterator@V?$_Vector_val@U?$_Simple_types@PEAVbus_device@@@std@@@std@@@std@@QEBA?AV01@_J@Z
	DD	0ffffffffH
	DD	imagerel ??H?$_Vector_iterator@V?$_Vector_val@U?$_Simple_types@PEAVbus_device@@@std@@@std@@@std@@QEBA?AV01@_J@Z+133
	DD	00H
	DD	imagerel ??H?$_Vector_iterator@V?$_Vector_val@U?$_Simple_types@PEAVbus_device@@@std@@@std@@@std@@QEBA?AV01@_J@Z+179
	DD	0ffffffffH
xdata	ENDS
;	COMDAT xdata
xdata	SEGMENT
$stateUnwindMap$??H?$_Vector_iterator@V?$_Vector_val@U?$_Simple_types@PEAVbus_device@@@std@@@std@@@std@@QEBA?AV01@_J@Z DD 0ffffffffH
	DD	imagerel ?dtor$0@?0???H?$_Vector_iterator@V?$_Vector_val@U?$_Simple_types@PEAVbus_device@@@std@@@std@@@std@@QEBA?AV01@_J@Z@4HA
xdata	ENDS
;	COMDAT xdata
xdata	SEGMENT
$unwind$??H?$_Vector_iterator@V?$_Vector_val@U?$_Simple_types@PEAVbus_device@@@std@@@std@@@std@@QEBA?AV01@_J@Z DD 025055019H
	DD	0118231dH
	DD	07011002bH
	DD	05010H
	DD	imagerel __GSHandlerCheck_EH
	DD	imagerel $cppxdata$??H?$_Vector_iterator@V?$_Vector_val@U?$_Simple_types@PEAVbus_device@@@std@@@std@@@std@@QEBA?AV01@_J@Z
	DD	014aH
xdata	ENDS
;	COMDAT CONST
CONST	SEGMENT
??H?$_Vector_iterator@V?$_Vector_val@U?$_Simple_types@PEAVbus_device@@@std@@@std@@@std@@QEBA?AV01@_J@Z$rtcName$0 DB 05fH ; std::_Vector_iterator<std::_Vector_val<std::_Simple_types<bus_device *> > >::operator+
	DB	054H
	DB	06dH
	DB	070H
	DB	00H
	ORG $+11
??H?$_Vector_iterator@V?$_Vector_val@U?$_Simple_types@PEAVbus_device@@@std@@@std@@@std@@QEBA?AV01@_J@Z$rtcVarDesc DD 028H ; std::_Vector_iterator<std::_Vector_val<std::_Simple_types<bus_device *> > >::operator+
	DD	018H
	DQ	FLAT:??H?$_Vector_iterator@V?$_Vector_val@U?$_Simple_types@PEAVbus_device@@@std@@@std@@@std@@QEBA?AV01@_J@Z$rtcName$0
	ORG $+48
??H?$_Vector_iterator@V?$_Vector_val@U?$_Simple_types@PEAVbus_device@@@std@@@std@@@std@@QEBA?AV01@_J@Z$rtcFrameData DD 01H ; std::_Vector_iterator<std::_Vector_val<std::_Simple_types<bus_device *> > >::operator+
	DD	00H
	DQ	FLAT:??H?$_Vector_iterator@V?$_Vector_val@U?$_Simple_types@PEAVbus_device@@@std@@@std@@@std@@QEBA?AV01@_J@Z$rtcVarDesc
$cppxdata$??H?$_Vector_iterator@V?$_Vector_val@U?$_Simple_types@PEAVbus_device@@@std@@@std@@@std@@QEBA?AV01@_J@Z DD 019930522H
	DD	01H
	DD	imagerel $stateUnwindMap$??H?$_Vector_iterator@V?$_Vector_val@U?$_Simple_types@PEAVbus_device@@@std@@@std@@@std@@QEBA?AV01@_J@Z
	DD	00H
	DD	00H
	DD	03H
	DD	imagerel $ip2state$??H?$_Vector_iterator@V?$_Vector_val@U?$_Simple_types@PEAVbus_device@@@std@@@std@@@std@@QEBA?AV01@_J@Z
	DD	0138H
	DD	00H
	DD	01H
CONST	ENDS
;	COMDAT xdata
xdata	SEGMENT
$unwind$??Y?$_Vector_iterator@V?$_Vector_val@U?$_Simple_types@PEAVbus_device@@@std@@@std@@@std@@QEAAAEAV01@_J@Z DD 025052f01H
	DD	01132318H
	DD	0700c001dH
	DD	0500bH
xdata	ENDS
;	COMDAT xdata
xdata	SEGMENT
$unwind$??0?$_Vector_iterator@V?$_Vector_val@U?$_Simple_types@PEAVbus_device@@@std@@@std@@@std@@QEAA@PEAPEAVbus_device@@PEBU_Container_base12@1@@Z DD 025053401H
	DD	0118231dH
	DD	07011001dH
	DD	05010H
xdata	ENDS
;	COMDAT xdata
xdata	SEGMENT
$unwind$??0?$_Vector_const_iterator@V?$_Vector_val@U?$_Simple_types@PEAVbus_device@@@std@@@std@@@std@@QEAA@$$QEAV01@@Z DD 025052f01H
	DD	01132318H
	DD	0700c001dH
	DD	0500bH
xdata	ENDS
;	COMDAT xdata
xdata	SEGMENT
$unwind$??0?$_Vector_const_iterator@V?$_Vector_val@U?$_Simple_types@PEAVbus_device@@@std@@@std@@@std@@QEAA@AEBV01@@Z DD 025052f01H
	DD	01132318H
	DD	0700c001dH
	DD	0500bH
xdata	ENDS
;	COMDAT xdata
xdata	SEGMENT
$unwind$??1?$_Vector_const_iterator@V?$_Vector_val@U?$_Simple_types@PEAVbus_device@@@std@@@std@@@std@@QEAA@XZ DD 025052a01H
	DD	010e2313H
	DD	07007001dH
	DD	05006H
xdata	ENDS
;	COMDAT xdata
xdata	SEGMENT
$unwind$??Y?$_Vector_const_iterator@V?$_Vector_val@U?$_Simple_types@PEAVbus_device@@@std@@@std@@@std@@QEAAAEAV01@_J@Z DD 025052f01H
	DD	01132318H
	DD	0700c001dH
	DD	0500bH
xdata	ENDS
;	COMDAT xdata
xdata	SEGMENT
$unwind$?_Verify_offset@?$_Vector_const_iterator@V?$_Vector_val@U?$_Simple_types@PEAVbus_device@@@std@@@std@@@std@@QEBAX_J@Z DD 035052f01H
	DD	01133318H
	DD	0700c0023H
	DD	0500bH
xdata	ENDS
;	COMDAT xdata
xdata	SEGMENT
$unwind$??0?$_Vector_const_iterator@V?$_Vector_val@U?$_Simple_types@PEAVbus_device@@@std@@@std@@@std@@QEAA@PEAPEAVbus_device@@PEBU_Container_base12@1@@Z DD 025053401H
	DD	0118231dH
	DD	07011001dH
	DD	05010H
xdata	ENDS
;	COMDAT xdata
xdata	SEGMENT
$unwind$?hex@std@@YAAEAVios_base@1@AEAV21@@Z DD 025052a01H
	DD	010e2313H
	DD	07007001dH
	DD	05006H
xdata	ENDS
;	COMDAT xdata
xdata	SEGMENT
$unwind$?emulate_bus_conflicts@bus@@QEAAX_N@Z DD 025052e01H
	DD	01122317H
	DD	0700b001dH
	DD	0500aH
xdata	ENDS
;	COMDAT xdata
xdata	SEGMENT
$unwind$?reportdevices@bus@@QEAAXXZ DD 025052a01H
	DD	010e2313H
	DD	07007002dH
	DD	05006H
xdata	ENDS
;	COMDAT xdata
xdata	SEGMENT
$unwind$?dtor$1@?0??removedevice_select_base@bus@@QEAAXH@Z@4HA DD 031001H
	DD	0700c4210H
	DD	0500bH
xdata	ENDS
;	COMDAT xdata
xdata	SEGMENT
$unwind$?dtor$0@?0??removedevice_select_base@bus@@QEAAXH@Z@4HA DD 031001H
	DD	0700c4210H
	DD	0500bH
xdata	ENDS
;	COMDAT xdata
xdata	SEGMENT
$ip2state$?removedevice_select_base@bus@@QEAAXH@Z DD imagerel ?removedevice_select_base@bus@@QEAAXH@Z
	DD	0ffffffffH
	DD	imagerel ?removedevice_select_base@bus@@QEAAXH@Z+221
	DD	00H
	DD	imagerel ?removedevice_select_base@bus@@QEAAXH@Z+265
	DD	01H
	DD	imagerel ?removedevice_select_base@bus@@QEAAXH@Z+337
	DD	00H
	DD	imagerel ?removedevice_select_base@bus@@QEAAXH@Z+350
	DD	0ffffffffH
xdata	ENDS
;	COMDAT xdata
xdata	SEGMENT
$stateUnwindMap$?removedevice_select_base@bus@@QEAAXH@Z DD 0ffffffffH
	DD	imagerel ?dtor$0@?0??removedevice_select_base@bus@@QEAAXH@Z@4HA
	DD	00H
	DD	imagerel ?dtor$1@?0??removedevice_select_base@bus@@QEAAXH@Z@4HA
xdata	ENDS
;	COMDAT CONST
CONST	SEGMENT
$cppxdata$?removedevice_select_base@bus@@QEAAXH@Z DD 019930522H
	DD	02H
	DD	imagerel $stateUnwindMap$?removedevice_select_base@bus@@QEAAXH@Z
	DD	00H
	DD	00H
	DD	05H
	DD	imagerel $ip2state$?removedevice_select_base@bus@@QEAAXH@Z
	DD	01e8H
	DD	00H
	DD	01H
CONST	ENDS
;	COMDAT xdata
xdata	SEGMENT
$unwind$?removedevice_select_base@bus@@QEAAXH@Z DD 025053911H
	DD	01122317H
	DD	0700b0045H
	DD	0500aH
	DD	imagerel __CxxFrameHandler3
	DD	imagerel $cppxdata$?removedevice_select_base@bus@@QEAAXH@Z
xdata	ENDS
;	COMDAT xdata
xdata	SEGMENT
$unwind$?registerdevice@bus@@QEAAXPEAVbus_device@@@Z DD 025052f01H
	DD	01132318H
	DD	0700c001dH
	DD	0500bH
xdata	ENDS
;	COMDAT xdata
xdata	SEGMENT
$unwind$?irq_pulled@bus@@QEAA_NXZ DD 025052a01H
	DD	010e2313H
	DD	07007002dH
	DD	05006H
xdata	ENDS
;	COMDAT xdata
xdata	SEGMENT
$unwind$?nmi_pulled@bus@@QEAA_NXZ DD 025052a01H
	DD	010e2313H
	DD	070070031H
	DD	05006H
xdata	ENDS
;	COMDAT xdata
xdata	SEGMENT
$unwind$?read@bus@@QEAAEXZ DD 025052a01H
	DD	010e2313H
	DD	070070035H
	DD	05006H
xdata	ENDS
;	COMDAT xdata
xdata	SEGMENT
$unwind$?write@bus@@QEAAXE@Z DD 025052e01H
	DD	01122317H
	DD	0700b0031H
	DD	0500aH
xdata	ENDS
;	COMDAT xdata
xdata	SEGMENT
$unwind$?readmemory_as_word_wrap@bus@@QEAAGH@Z DD 025052e01H
	DD	01122317H
	DD	0700b0021H
	DD	0500aH
xdata	ENDS
;	COMDAT xdata
xdata	SEGMENT
$unwind$?readmemory_as_word@bus@@QEAAGH@Z DD 025052e01H
	DD	01122317H
	DD	0700b0021H
	DD	0500aH
xdata	ENDS
;	COMDAT xdata
xdata	SEGMENT
$unwind$?readmemory@bus@@QEAAEH@Z DD 025052e01H
	DD	01122317H
	DD	0700b001dH
	DD	0500aH
xdata	ENDS
;	COMDAT xdata
xdata	SEGMENT
$unwind$?writememory@bus@@QEAAXHE@Z DD 025053301H
	DD	0117231cH
	DD	07010001dH
	DD	0500fH
xdata	ENDS
;	COMDAT xdata
xdata	SEGMENT
$ip2state$??1bus@@QEAA@XZ DD imagerel ??1bus@@QEAA@XZ
	DD	0ffffffffH
xdata	ENDS
;	COMDAT CONST
CONST	SEGMENT
$cppxdata$??1bus@@QEAA@XZ DD 019930522H
	DD	00H
	DD	00H
	DD	00H
	DD	00H
	DD	01H
	DD	imagerel $ip2state$??1bus@@QEAA@XZ
	DD	01a8H
	DD	00H
	DD	05H
CONST	ENDS
;	COMDAT xdata
xdata	SEGMENT
$unwind$??1bus@@QEAA@XZ DD 025053519H
	DD	010e2313H
	DD	070070039H
	DD	05006H
	DD	imagerel __CxxFrameHandler3
	DD	imagerel $cppxdata$??1bus@@QEAA@XZ
xdata	ENDS
;	COMDAT xdata
xdata	SEGMENT
$unwind$??0bus@@QEAA@XZ DD 025052a01H
	DD	010e2313H
	DD	07007001dH
	DD	05006H
xdata	ENDS
;	COMDAT xdata
xdata	SEGMENT
$unwind$?dtor$0@?0??_Orphan_range@?$vector@PEAVbus_device@@V?$allocator@PEAVbus_device@@@std@@@std@@AEBAXPEAPEAVbus_device@@0@Z@4HA DD 031001H
	DD	0700c4210H
	DD	0500bH
xdata	ENDS
;	COMDAT xdata
xdata	SEGMENT
$ip2state$?_Orphan_range@?$vector@PEAVbus_device@@V?$allocator@PEAVbus_device@@@std@@@std@@AEBAXPEAPEAVbus_device@@0@Z DD imagerel ?_Orphan_range@?$vector@PEAVbus_device@@V?$allocator@PEAVbus_device@@@std@@@std@@AEBAXPEAPEAVbus_device@@0@Z
	DD	0ffffffffH
	DD	imagerel ?_Orphan_range@?$vector@PEAVbus_device@@V?$allocator@PEAVbus_device@@@std@@@std@@AEBAXPEAPEAVbus_device@@0@Z+108
	DD	00H
	DD	imagerel ?_Orphan_range@?$vector@PEAVbus_device@@V?$allocator@PEAVbus_device@@@std@@@std@@AEBAXPEAPEAVbus_device@@0@Z+235
	DD	0ffffffffH
xdata	ENDS
;	COMDAT xdata
xdata	SEGMENT
$stateUnwindMap$?_Orphan_range@?$vector@PEAVbus_device@@V?$allocator@PEAVbus_device@@@std@@@std@@AEBAXPEAPEAVbus_device@@0@Z DD 0ffffffffH
	DD	imagerel ?dtor$0@?0??_Orphan_range@?$vector@PEAVbus_device@@V?$allocator@PEAVbus_device@@@std@@@std@@AEBAXPEAPEAVbus_device@@0@Z@4HA
xdata	ENDS
;	COMDAT xdata
xdata	SEGMENT
$unwind$?_Orphan_range@?$vector@PEAVbus_device@@V?$allocator@PEAVbus_device@@@std@@@std@@AEBAXPEAPEAVbus_device@@0@Z DD 025055019H
	DD	0118231dH
	DD	070110029H
	DD	05010H
	DD	imagerel __GSHandlerCheck_EH
	DD	imagerel $cppxdata$?_Orphan_range@?$vector@PEAVbus_device@@V?$allocator@PEAVbus_device@@@std@@@std@@AEBAXPEAPEAVbus_device@@0@Z
	DD	013aH
xdata	ENDS
;	COMDAT CONST
CONST	SEGMENT
?_Orphan_range@?$vector@PEAVbus_device@@V?$allocator@PEAVbus_device@@@std@@@std@@AEBAXPEAPEAVbus_device@@0@Z$rtcName$0 DB 05fH ; std::vector<bus_device *,std::allocator<bus_device *> >::_Orphan_range
	DB	04cH
	DB	06fH
	DB	063H
	DB	06bH
	DB	00H
	ORG $+10
?_Orphan_range@?$vector@PEAVbus_device@@V?$allocator@PEAVbus_device@@@std@@@std@@AEBAXPEAPEAVbus_device@@0@Z$rtcVarDesc DD 024H ; std::vector<bus_device *,std::allocator<bus_device *> >::_Orphan_range
	DD	04H
	DQ	FLAT:?_Orphan_range@?$vector@PEAVbus_device@@V?$allocator@PEAVbus_device@@@std@@@std@@AEBAXPEAPEAVbus_device@@0@Z$rtcName$0
	ORG $+48
?_Orphan_range@?$vector@PEAVbus_device@@V?$allocator@PEAVbus_device@@@std@@@std@@AEBAXPEAPEAVbus_device@@0@Z$rtcFrameData DD 01H ; std::vector<bus_device *,std::allocator<bus_device *> >::_Orphan_range
	DD	00H
	DQ	FLAT:?_Orphan_range@?$vector@PEAVbus_device@@V?$allocator@PEAVbus_device@@@std@@@std@@AEBAXPEAPEAVbus_device@@0@Z$rtcVarDesc
$cppxdata$?_Orphan_range@?$vector@PEAVbus_device@@V?$allocator@PEAVbus_device@@@std@@@std@@AEBAXPEAPEAVbus_device@@0@Z DD 019930522H
	DD	01H
	DD	imagerel $stateUnwindMap$?_Orphan_range@?$vector@PEAVbus_device@@V?$allocator@PEAVbus_device@@@std@@@std@@AEBAXPEAPEAVbus_device@@0@Z
	DD	00H
	DD	00H
	DD	03H
	DD	imagerel $ip2state$?_Orphan_range@?$vector@PEAVbus_device@@V?$allocator@PEAVbus_device@@@std@@@std@@AEBAXPEAPEAVbus_device@@0@Z
	DD	0128H
	DD	00H
	DD	01H
CONST	ENDS
;	COMDAT xdata
xdata	SEGMENT
$unwind$?_Xlength@?$vector@PEAVbus_device@@V?$allocator@PEAVbus_device@@@std@@@std@@CAXXZ DD 025051e01H
	DD	010a230fH
	DD	07003001dH
	DD	05002H
xdata	ENDS
;	COMDAT xdata
xdata	SEGMENT
$unwind$?_Tidy@?$vector@PEAVbus_device@@V?$allocator@PEAVbus_device@@@std@@@std@@AEAAXXZ DD 025052a01H
	DD	010e2313H
	DD	07007001fH
	DD	05006H
xdata	ENDS
;	COMDAT xdata
xdata	SEGMENT
$unwind$?_Change_array@?$vector@PEAVbus_device@@V?$allocator@PEAVbus_device@@@std@@@std@@AEAAXQEAPEAVbus_device@@_K1@Z DD 025053901H
	DD	011d2322H
	DD	07016001fH
	DD	05015H
xdata	ENDS
;	COMDAT xdata
xdata	SEGMENT
$unwind$?_Calculate_growth@?$vector@PEAVbus_device@@V?$allocator@PEAVbus_device@@@std@@@std@@AEBA_K_K@Z DD 025052f01H
	DD	01132318H
	DD	0700c0025H
	DD	0500bH
xdata	ENDS
;	COMDAT xdata
xdata	SEGMENT
$unwind$?_Destroy@?$vector@PEAVbus_device@@V?$allocator@PEAVbus_device@@@std@@@std@@AEAAXPEAPEAVbus_device@@0@Z DD 025053401H
	DD	0118231dH
	DD	07011001dH
	DD	05010H
xdata	ENDS
;	COMDAT xdata
xdata	SEGMENT
$unwind$?_Umove_if_noexcept@?$vector@PEAVbus_device@@V?$allocator@PEAVbus_device@@@std@@@std@@AEAAXPEAPEAVbus_device@@00@Z DD 035053901H
	DD	011d3322H
	DD	070160023H
	DD	05015H
xdata	ENDS
;	COMDAT xdata
xdata	SEGMENT
$unwind$?_Umove_if_noexcept1@?$vector@PEAVbus_device@@V?$allocator@PEAVbus_device@@@std@@@std@@AEAAXPEAPEAVbus_device@@00U?$integral_constant@_N$00@2@@Z DD 025053901H
	DD	011d2322H
	DD	07016001dH
	DD	05015H
xdata	ENDS
;	COMDAT xdata
xdata	SEGMENT
$unwind$?_Umove@?$vector@PEAVbus_device@@V?$allocator@PEAVbus_device@@@std@@@std@@AEAAPEAPEAVbus_device@@PEAPEAV3@00@Z DD 025053901H
	DD	011d2322H
	DD	07016001dH
	DD	05015H
xdata	ENDS
;	COMDAT xdata
xdata	SEGMENT
$unwind$??A?$vector@PEAVbus_device@@V?$allocator@PEAVbus_device@@@std@@@std@@QEAAAEAPEAVbus_device@@_K@Z DD 035052f01H
	DD	01133318H
	DD	0700c001fH
	DD	0500bH
xdata	ENDS
;	COMDAT xdata
xdata	SEGMENT
$ip2state$?_Has_unused_capacity@?$vector@PEAVbus_device@@V?$allocator@PEAVbus_device@@@std@@@std@@AEBA_NXZ DD imagerel ?_Has_unused_capacity@?$vector@PEAVbus_device@@V?$allocator@PEAVbus_device@@@std@@@std@@AEBA_NXZ
	DD	0ffffffffH
xdata	ENDS
;	COMDAT CONST
CONST	SEGMENT
$cppxdata$?_Has_unused_capacity@?$vector@PEAVbus_device@@V?$allocator@PEAVbus_device@@@std@@@std@@AEBA_NXZ DD 019930522H
	DD	00H
	DD	00H
	DD	00H
	DD	00H
	DD	01H
	DD	imagerel $ip2state$?_Has_unused_capacity@?$vector@PEAVbus_device@@V?$allocator@PEAVbus_device@@@std@@@std@@AEBA_NXZ
	DD	0e8H
	DD	00H
	DD	05H
CONST	ENDS
;	COMDAT xdata
xdata	SEGMENT
$unwind$?_Has_unused_capacity@?$vector@PEAVbus_device@@V?$allocator@PEAVbus_device@@@std@@@std@@AEBA_NXZ DD 025053519H
	DD	010e2313H
	DD	070070023H
	DD	05006H
	DD	imagerel __CxxFrameHandler3
	DD	imagerel $cppxdata$?_Has_unused_capacity@?$vector@PEAVbus_device@@V?$allocator@PEAVbus_device@@@std@@@std@@AEBA_NXZ
xdata	ENDS
;	COMDAT xdata
xdata	SEGMENT
$ip2state$?capacity@?$vector@PEAVbus_device@@V?$allocator@PEAVbus_device@@@std@@@std@@QEBA_KXZ DD imagerel ?capacity@?$vector@PEAVbus_device@@V?$allocator@PEAVbus_device@@@std@@@std@@QEBA_KXZ
	DD	0ffffffffH
xdata	ENDS
;	COMDAT CONST
CONST	SEGMENT
$cppxdata$?capacity@?$vector@PEAVbus_device@@V?$allocator@PEAVbus_device@@@std@@@std@@QEBA_KXZ DD 019930522H
	DD	00H
	DD	00H
	DD	00H
	DD	00H
	DD	01H
	DD	imagerel $ip2state$?capacity@?$vector@PEAVbus_device@@V?$allocator@PEAVbus_device@@@std@@@std@@QEBA_KXZ
	DD	0e8H
	DD	00H
	DD	05H
CONST	ENDS
;	COMDAT xdata
xdata	SEGMENT
$unwind$?capacity@?$vector@PEAVbus_device@@V?$allocator@PEAVbus_device@@@std@@@std@@QEBA_KXZ DD 025053519H
	DD	010e2313H
	DD	070070021H
	DD	05006H
	DD	imagerel __CxxFrameHandler3
	DD	imagerel $cppxdata$?capacity@?$vector@PEAVbus_device@@V?$allocator@PEAVbus_device@@@std@@@std@@QEBA_KXZ
xdata	ENDS
;	COMDAT xdata
xdata	SEGMENT
$ip2state$?max_size@?$vector@PEAVbus_device@@V?$allocator@PEAVbus_device@@@std@@@std@@QEBA_KXZ DD imagerel ?max_size@?$vector@PEAVbus_device@@V?$allocator@PEAVbus_device@@@std@@@std@@QEBA_KXZ
	DD	0ffffffffH
xdata	ENDS
;	COMDAT CONST
CONST	SEGMENT
$cppxdata$?max_size@?$vector@PEAVbus_device@@V?$allocator@PEAVbus_device@@@std@@@std@@QEBA_KXZ DD 019930522H
	DD	00H
	DD	00H
	DD	00H
	DD	00H
	DD	01H
	DD	imagerel $ip2state$?max_size@?$vector@PEAVbus_device@@V?$allocator@PEAVbus_device@@@std@@@std@@QEBA_KXZ
	DD	0128H
	DD	00H
	DD	05H
CONST	ENDS
;	COMDAT xdata
xdata	SEGMENT
$unwind$?max_size@?$vector@PEAVbus_device@@V?$allocator@PEAVbus_device@@@std@@@std@@QEBA_KXZ DD 025053519H
	DD	010e2313H
	DD	070070029H
	DD	05006H
	DD	imagerel __CxxFrameHandler3
	DD	imagerel $cppxdata$?max_size@?$vector@PEAVbus_device@@V?$allocator@PEAVbus_device@@@std@@@std@@QEBA_KXZ
xdata	ENDS
;	COMDAT xdata
xdata	SEGMENT
$ip2state$?size@?$vector@PEAVbus_device@@V?$allocator@PEAVbus_device@@@std@@@std@@QEBA_KXZ DD imagerel ?size@?$vector@PEAVbus_device@@V?$allocator@PEAVbus_device@@@std@@@std@@QEBA_KXZ
	DD	0ffffffffH
xdata	ENDS
;	COMDAT CONST
CONST	SEGMENT
$cppxdata$?size@?$vector@PEAVbus_device@@V?$allocator@PEAVbus_device@@@std@@@std@@QEBA_KXZ DD 019930522H
	DD	00H
	DD	00H
	DD	00H
	DD	00H
	DD	01H
	DD	imagerel $ip2state$?size@?$vector@PEAVbus_device@@V?$allocator@PEAVbus_device@@@std@@@std@@QEBA_KXZ
	DD	0e8H
	DD	00H
	DD	05H
CONST	ENDS
;	COMDAT xdata
xdata	SEGMENT
$unwind$?size@?$vector@PEAVbus_device@@V?$allocator@PEAVbus_device@@@std@@@std@@QEBA_KXZ DD 025053519H
	DD	010e2313H
	DD	070070021H
	DD	05006H
	DD	imagerel __CxxFrameHandler3
	DD	imagerel $cppxdata$?size@?$vector@PEAVbus_device@@V?$allocator@PEAVbus_device@@@std@@@std@@QEBA_KXZ
xdata	ENDS
;	COMDAT xdata
xdata	SEGMENT
$ip2state$?_Unchecked_end@?$vector@PEAVbus_device@@V?$allocator@PEAVbus_device@@@std@@@std@@QEAAPEAPEAVbus_device@@XZ DD imagerel ?_Unchecked_end@?$vector@PEAVbus_device@@V?$allocator@PEAVbus_device@@@std@@@std@@QEAAPEAPEAVbus_device@@XZ
	DD	0ffffffffH
xdata	ENDS
;	COMDAT CONST
CONST	SEGMENT
$cppxdata$?_Unchecked_end@?$vector@PEAVbus_device@@V?$allocator@PEAVbus_device@@@std@@@std@@QEAAPEAPEAVbus_device@@XZ DD 019930522H
	DD	00H
	DD	00H
	DD	00H
	DD	00H
	DD	01H
	DD	imagerel $ip2state$?_Unchecked_end@?$vector@PEAVbus_device@@V?$allocator@PEAVbus_device@@@std@@@std@@QEAAPEAPEAVbus_device@@XZ
	DD	0e8H
	DD	00H
	DD	05H
CONST	ENDS
;	COMDAT xdata
xdata	SEGMENT
$unwind$?_Unchecked_end@?$vector@PEAVbus_device@@V?$allocator@PEAVbus_device@@@std@@@std@@QEAAPEAPEAVbus_device@@XZ DD 025053519H
	DD	010e2313H
	DD	070070021H
	DD	05006H
	DD	imagerel __CxxFrameHandler3
	DD	imagerel $cppxdata$?_Unchecked_end@?$vector@PEAVbus_device@@V?$allocator@PEAVbus_device@@@std@@@std@@QEAAPEAPEAVbus_device@@XZ
xdata	ENDS
;	COMDAT xdata
xdata	SEGMENT
$ip2state$?_Unchecked_begin@?$vector@PEAVbus_device@@V?$allocator@PEAVbus_device@@@std@@@std@@QEAAPEAPEAVbus_device@@XZ DD imagerel ?_Unchecked_begin@?$vector@PEAVbus_device@@V?$allocator@PEAVbus_device@@@std@@@std@@QEAAPEAPEAVbus_device@@XZ
	DD	0ffffffffH
xdata	ENDS
;	COMDAT CONST
CONST	SEGMENT
$cppxdata$?_Unchecked_begin@?$vector@PEAVbus_device@@V?$allocator@PEAVbus_device@@@std@@@std@@QEAAPEAPEAVbus_device@@XZ DD 019930522H
	DD	00H
	DD	00H
	DD	00H
	DD	00H
	DD	01H
	DD	imagerel $ip2state$?_Unchecked_begin@?$vector@PEAVbus_device@@V?$allocator@PEAVbus_device@@@std@@@std@@QEAAPEAPEAVbus_device@@XZ
	DD	0e8H
	DD	00H
	DD	05H
CONST	ENDS
;	COMDAT xdata
xdata	SEGMENT
$unwind$?_Unchecked_begin@?$vector@PEAVbus_device@@V?$allocator@PEAVbus_device@@@std@@@std@@QEAAPEAPEAVbus_device@@XZ DD 025053519H
	DD	010e2313H
	DD	070070021H
	DD	05006H
	DD	imagerel __CxxFrameHandler3
	DD	imagerel $cppxdata$?_Unchecked_begin@?$vector@PEAVbus_device@@V?$allocator@PEAVbus_device@@@std@@@std@@QEAAPEAPEAVbus_device@@XZ
xdata	ENDS
;	COMDAT xdata
xdata	SEGMENT
$ip2state$?begin@?$vector@PEAVbus_device@@V?$allocator@PEAVbus_device@@@std@@@std@@QEAA?AV?$_Vector_iterator@V?$_Vector_val@U?$_Simple_types@PEAVbus_device@@@std@@@std@@@2@XZ DD imagerel ?begin@?$vector@PEAVbus_device@@V?$allocator@PEAVbus_device@@@std@@@std@@QEAA?AV?$_Vector_iterator@V?$_Vector_val@U?$_Simple_types@PEAVbus_device@@@std@@@std@@@2@XZ
	DD	0ffffffffH
xdata	ENDS
;	COMDAT CONST
CONST	SEGMENT
$cppxdata$?begin@?$vector@PEAVbus_device@@V?$allocator@PEAVbus_device@@@std@@@std@@QEAA?AV?$_Vector_iterator@V?$_Vector_val@U?$_Simple_types@PEAVbus_device@@@std@@@std@@@2@XZ DD 019930522H
	DD	00H
	DD	00H
	DD	00H
	DD	00H
	DD	01H
	DD	imagerel $ip2state$?begin@?$vector@PEAVbus_device@@V?$allocator@PEAVbus_device@@@std@@@std@@QEAA?AV?$_Vector_iterator@V?$_Vector_val@U?$_Simple_types@PEAVbus_device@@@std@@@std@@@2@XZ
	DD	0e8H
	DD	00H
	DD	05H
CONST	ENDS
;	COMDAT xdata
xdata	SEGMENT
$unwind$?begin@?$vector@PEAVbus_device@@V?$allocator@PEAVbus_device@@@std@@@std@@QEAA?AV?$_Vector_iterator@V?$_Vector_val@U?$_Simple_types@PEAVbus_device@@@std@@@std@@@2@XZ DD 025053a19H
	DD	01132318H
	DD	0700c0021H
	DD	0500bH
	DD	imagerel __CxxFrameHandler3
	DD	imagerel $cppxdata$?begin@?$vector@PEAVbus_device@@V?$allocator@PEAVbus_device@@@std@@@std@@QEAA?AV?$_Vector_iterator@V?$_Vector_val@U?$_Simple_types@PEAVbus_device@@@std@@@std@@@2@XZ
xdata	ENDS
;	COMDAT xdata
xdata	SEGMENT
$unwind$?dtor$0@?0??erase@?$vector@PEAVbus_device@@V?$allocator@PEAVbus_device@@@std@@@std@@QEAA?AV?$_Vector_iterator@V?$_Vector_val@U?$_Simple_types@PEAVbus_device@@@std@@@std@@@2@V?$_Vector_const_iterator@V?$_Vector_val@U?$_Simple_types@PEAVbus_device@@@std@@@std@@@2@@Z@4HA DD 031001H
	DD	0700c4210H
	DD	0500bH
xdata	ENDS
;	COMDAT xdata
xdata	SEGMENT
$ip2state$?erase@?$vector@PEAVbus_device@@V?$allocator@PEAVbus_device@@@std@@@std@@QEAA?AV?$_Vector_iterator@V?$_Vector_val@U?$_Simple_types@PEAVbus_device@@@std@@@std@@@2@V?$_Vector_const_iterator@V?$_Vector_val@U?$_Simple_types@PEAVbus_device@@@std@@@std@@@2@@Z DD imagerel ?erase@?$vector@PEAVbus_device@@V?$allocator@PEAVbus_device@@@std@@@std@@QEAA?AV?$_Vector_iterator@V?$_Vector_val@U?$_Simple_types@PEAVbus_device@@@std@@@std@@@2@V?$_Vector_const_iterator@V?$_Vector_val@U?$_Simple_types@PEAVbus_device@@@std@@@std@@@2@@Z
	DD	0ffffffffH
	DD	imagerel ?erase@?$vector@PEAVbus_device@@V?$allocator@PEAVbus_device@@@std@@@std@@QEAA?AV?$_Vector_iterator@V?$_Vector_val@U?$_Simple_types@PEAVbus_device@@@std@@@std@@@2@V?$_Vector_const_iterator@V?$_Vector_val@U?$_Simple_types@PEAVbus_device@@@std@@@std@@@2@@Z+73
	DD	00H
	DD	imagerel ?erase@?$vector@PEAVbus_device@@V?$allocator@PEAVbus_device@@@std@@@std@@QEAA?AV?$_Vector_iterator@V?$_Vector_val@U?$_Simple_types@PEAVbus_device@@@std@@@std@@@2@V?$_Vector_const_iterator@V?$_Vector_val@U?$_Simple_types@PEAVbus_device@@@std@@@std@@@2@@Z+563
	DD	0ffffffffH
xdata	ENDS
;	COMDAT xdata
xdata	SEGMENT
$stateUnwindMap$?erase@?$vector@PEAVbus_device@@V?$allocator@PEAVbus_device@@@std@@@std@@QEAA?AV?$_Vector_iterator@V?$_Vector_val@U?$_Simple_types@PEAVbus_device@@@std@@@std@@@2@V?$_Vector_const_iterator@V?$_Vector_val@U?$_Simple_types@PEAVbus_device@@@std@@@std@@@2@@Z DD 0ffffffffH
	DD	imagerel ?dtor$0@?0??erase@?$vector@PEAVbus_device@@V?$allocator@PEAVbus_device@@@std@@@std@@QEAA?AV?$_Vector_iterator@V?$_Vector_val@U?$_Simple_types@PEAVbus_device@@@std@@@std@@@2@V?$_Vector_const_iterator@V?$_Vector_val@U?$_Simple_types@PEAVbus_device@@@std@@@std@@@2@@Z@4HA
xdata	ENDS
;	COMDAT CONST
CONST	SEGMENT
$cppxdata$?erase@?$vector@PEAVbus_device@@V?$allocator@PEAVbus_device@@@std@@@std@@QEAA?AV?$_Vector_iterator@V?$_Vector_val@U?$_Simple_types@PEAVbus_device@@@std@@@std@@@2@V?$_Vector_const_iterator@V?$_Vector_val@U?$_Simple_types@PEAVbus_device@@@std@@@std@@@2@@Z DD 019930522H
	DD	01H
	DD	imagerel $stateUnwindMap$?erase@?$vector@PEAVbus_device@@V?$allocator@PEAVbus_device@@@std@@@std@@QEAA?AV?$_Vector_iterator@V?$_Vector_val@U?$_Simple_types@PEAVbus_device@@@std@@@std@@@2@V?$_Vector_const_iterator@V?$_Vector_val@U?$_Simple_types@PEAVbus_device@@@std@@@std@@@2@@Z
	DD	00H
	DD	00H
	DD	03H
	DD	imagerel $ip2state$?erase@?$vector@PEAVbus_device@@V?$allocator@PEAVbus_device@@@std@@@std@@QEAA?AV?$_Vector_iterator@V?$_Vector_val@U?$_Simple_types@PEAVbus_device@@@std@@@std@@@2@V?$_Vector_const_iterator@V?$_Vector_val@U?$_Simple_types@PEAVbus_device@@@std@@@std@@@2@@Z
	DD	0118H
	DD	00H
	DD	01H
CONST	ENDS
;	COMDAT xdata
xdata	SEGMENT
$unwind$?erase@?$vector@PEAVbus_device@@V?$allocator@PEAVbus_device@@@std@@@std@@QEAA?AV?$_Vector_iterator@V?$_Vector_val@U?$_Simple_types@PEAVbus_device@@@std@@@std@@@2@V?$_Vector_const_iterator@V?$_Vector_val@U?$_Simple_types@PEAVbus_device@@@std@@@std@@@2@@Z DD 035053f11H
	DD	0118331dH
	DD	070110027H
	DD	05010H
	DD	imagerel __CxxFrameHandler3
	DD	imagerel $cppxdata$?erase@?$vector@PEAVbus_device@@V?$allocator@PEAVbus_device@@@std@@@std@@QEAA?AV?$_Vector_iterator@V?$_Vector_val@U?$_Simple_types@PEAVbus_device@@@std@@@std@@@2@V?$_Vector_const_iterator@V?$_Vector_val@U?$_Simple_types@PEAVbus_device@@@std@@@std@@@2@@Z
xdata	ENDS
;	COMDAT xdata
xdata	SEGMENT
$unwind$?push_back@?$vector@PEAVbus_device@@V?$allocator@PEAVbus_device@@@std@@@std@@QEAAXAEBQEAVbus_device@@@Z DD 025052f01H
	DD	01132318H
	DD	0700c001dH
	DD	0500bH
xdata	ENDS
;	COMDAT xdata
xdata	SEGMENT
$ip2state$??1?$vector@PEAVbus_device@@V?$allocator@PEAVbus_device@@@std@@@std@@QEAA@XZ DD imagerel ??1?$vector@PEAVbus_device@@V?$allocator@PEAVbus_device@@@std@@@std@@QEAA@XZ
	DD	0ffffffffH
xdata	ENDS
;	COMDAT CONST
CONST	SEGMENT
$cppxdata$??1?$vector@PEAVbus_device@@V?$allocator@PEAVbus_device@@@std@@@std@@QEAA@XZ DD 019930522H
	DD	00H
	DD	00H
	DD	00H
	DD	00H
	DD	01H
	DD	imagerel $ip2state$??1?$vector@PEAVbus_device@@V?$allocator@PEAVbus_device@@@std@@@std@@QEAA@XZ
	DD	0e8H
	DD	00H
	DD	05H
CONST	ENDS
;	COMDAT xdata
xdata	SEGMENT
$unwind$??1?$vector@PEAVbus_device@@V?$allocator@PEAVbus_device@@@std@@@std@@QEAA@XZ DD 025053519H
	DD	010e2313H
	DD	070070021H
	DD	05006H
	DD	imagerel __CxxFrameHandler3
	DD	imagerel $cppxdata$??1?$vector@PEAVbus_device@@V?$allocator@PEAVbus_device@@@std@@@std@@QEAA@XZ
xdata	ENDS
;	COMDAT xdata
xdata	SEGMENT
$ip2state$??0?$vector@PEAVbus_device@@V?$allocator@PEAVbus_device@@@std@@@std@@QEAA@XZ DD imagerel ??0?$vector@PEAVbus_device@@V?$allocator@PEAVbus_device@@@std@@@std@@QEAA@XZ
	DD	0ffffffffH
xdata	ENDS
;	COMDAT CONST
CONST	SEGMENT
$cppxdata$??0?$vector@PEAVbus_device@@V?$allocator@PEAVbus_device@@@std@@@std@@QEAA@XZ DD 019930522H
	DD	00H
	DD	00H
	DD	00H
	DD	00H
	DD	01H
	DD	imagerel $ip2state$??0?$vector@PEAVbus_device@@V?$allocator@PEAVbus_device@@@std@@@std@@QEAA@XZ
	DD	0e8H
	DD	00H
	DD	05H
CONST	ENDS
;	COMDAT xdata
xdata	SEGMENT
$unwind$??0?$vector@PEAVbus_device@@V?$allocator@PEAVbus_device@@@std@@@std@@QEAA@XZ DD 025053519H
	DD	010e2313H
	DD	070070021H
	DD	05006H
	DD	imagerel __CxxFrameHandler3
	DD	imagerel $cppxdata$??0?$vector@PEAVbus_device@@V?$allocator@PEAVbus_device@@@std@@@std@@QEAA@XZ
xdata	ENDS
;	COMDAT xdata
xdata	SEGMENT
$ip2state$?_Get_second@?$_Compressed_pair@V?$allocator@PEAVbus_device@@@std@@V?$_Vector_val@U?$_Simple_types@PEAVbus_device@@@std@@@2@$00@std@@QEBAAEBV?$_Vector_val@U?$_Simple_types@PEAVbus_device@@@std@@@2@XZ DD imagerel ?_Get_second@?$_Compressed_pair@V?$allocator@PEAVbus_device@@@std@@V?$_Vector_val@U?$_Simple_types@PEAVbus_device@@@std@@@2@$00@std@@QEBAAEBV?$_Vector_val@U?$_Simple_types@PEAVbus_device@@@std@@@2@XZ
	DD	0ffffffffH
xdata	ENDS
;	COMDAT CONST
CONST	SEGMENT
$cppxdata$?_Get_second@?$_Compressed_pair@V?$allocator@PEAVbus_device@@@std@@V?$_Vector_val@U?$_Simple_types@PEAVbus_device@@@std@@@2@$00@std@@QEBAAEBV?$_Vector_val@U?$_Simple_types@PEAVbus_device@@@std@@@2@XZ DD 019930522H
	DD	00H
	DD	00H
	DD	00H
	DD	00H
	DD	01H
	DD	imagerel $ip2state$?_Get_second@?$_Compressed_pair@V?$allocator@PEAVbus_device@@@std@@V?$_Vector_val@U?$_Simple_types@PEAVbus_device@@@std@@@2@$00@std@@QEBAAEBV?$_Vector_val@U?$_Simple_types@PEAVbus_device@@@std@@@2@XZ
	DD	0e8H
	DD	00H
	DD	05H
CONST	ENDS
;	COMDAT xdata
xdata	SEGMENT
$unwind$?_Get_second@?$_Compressed_pair@V?$allocator@PEAVbus_device@@@std@@V?$_Vector_val@U?$_Simple_types@PEAVbus_device@@@std@@@2@$00@std@@QEBAAEBV?$_Vector_val@U?$_Simple_types@PEAVbus_device@@@std@@@2@XZ DD 025053519H
	DD	010e2313H
	DD	070070021H
	DD	05006H
	DD	imagerel __CxxFrameHandler3
	DD	imagerel $cppxdata$?_Get_second@?$_Compressed_pair@V?$allocator@PEAVbus_device@@@std@@V?$_Vector_val@U?$_Simple_types@PEAVbus_device@@@std@@@2@$00@std@@QEBAAEBV?$_Vector_val@U?$_Simple_types@PEAVbus_device@@@std@@@2@XZ
xdata	ENDS
;	COMDAT xdata
xdata	SEGMENT
$ip2state$?_Get_second@?$_Compressed_pair@V?$allocator@PEAVbus_device@@@std@@V?$_Vector_val@U?$_Simple_types@PEAVbus_device@@@std@@@2@$00@std@@QEAAAEAV?$_Vector_val@U?$_Simple_types@PEAVbus_device@@@std@@@2@XZ DD imagerel ?_Get_second@?$_Compressed_pair@V?$allocator@PEAVbus_device@@@std@@V?$_Vector_val@U?$_Simple_types@PEAVbus_device@@@std@@@2@$00@std@@QEAAAEAV?$_Vector_val@U?$_Simple_types@PEAVbus_device@@@std@@@2@XZ
	DD	0ffffffffH
xdata	ENDS
;	COMDAT CONST
CONST	SEGMENT
$cppxdata$?_Get_second@?$_Compressed_pair@V?$allocator@PEAVbus_device@@@std@@V?$_Vector_val@U?$_Simple_types@PEAVbus_device@@@std@@@2@$00@std@@QEAAAEAV?$_Vector_val@U?$_Simple_types@PEAVbus_device@@@std@@@2@XZ DD 019930522H
	DD	00H
	DD	00H
	DD	00H
	DD	00H
	DD	01H
	DD	imagerel $ip2state$?_Get_second@?$_Compressed_pair@V?$allocator@PEAVbus_device@@@std@@V?$_Vector_val@U?$_Simple_types@PEAVbus_device@@@std@@@2@$00@std@@QEAAAEAV?$_Vector_val@U?$_Simple_types@PEAVbus_device@@@std@@@2@XZ
	DD	0e8H
	DD	00H
	DD	05H
CONST	ENDS
;	COMDAT xdata
xdata	SEGMENT
$unwind$?_Get_second@?$_Compressed_pair@V?$allocator@PEAVbus_device@@@std@@V?$_Vector_val@U?$_Simple_types@PEAVbus_device@@@std@@@2@$00@std@@QEAAAEAV?$_Vector_val@U?$_Simple_types@PEAVbus_device@@@std@@@2@XZ DD 025053519H
	DD	010e2313H
	DD	070070021H
	DD	05006H
	DD	imagerel __CxxFrameHandler3
	DD	imagerel $cppxdata$?_Get_second@?$_Compressed_pair@V?$allocator@PEAVbus_device@@@std@@V?$_Vector_val@U?$_Simple_types@PEAVbus_device@@@std@@@2@$00@std@@QEAAAEAV?$_Vector_val@U?$_Simple_types@PEAVbus_device@@@std@@@2@XZ
xdata	ENDS
;	COMDAT xdata
xdata	SEGMENT
$ip2state$?_Get_first@?$_Compressed_pair@V?$allocator@PEAVbus_device@@@std@@V?$_Vector_val@U?$_Simple_types@PEAVbus_device@@@std@@@2@$00@std@@QEBAAEBV?$allocator@PEAVbus_device@@@2@XZ DD imagerel ?_Get_first@?$_Compressed_pair@V?$allocator@PEAVbus_device@@@std@@V?$_Vector_val@U?$_Simple_types@PEAVbus_device@@@std@@@2@$00@std@@QEBAAEBV?$allocator@PEAVbus_device@@@2@XZ
	DD	0ffffffffH
xdata	ENDS
;	COMDAT CONST
CONST	SEGMENT
$cppxdata$?_Get_first@?$_Compressed_pair@V?$allocator@PEAVbus_device@@@std@@V?$_Vector_val@U?$_Simple_types@PEAVbus_device@@@std@@@2@$00@std@@QEBAAEBV?$allocator@PEAVbus_device@@@2@XZ DD 019930522H
	DD	00H
	DD	00H
	DD	00H
	DD	00H
	DD	01H
	DD	imagerel $ip2state$?_Get_first@?$_Compressed_pair@V?$allocator@PEAVbus_device@@@std@@V?$_Vector_val@U?$_Simple_types@PEAVbus_device@@@std@@@2@$00@std@@QEBAAEBV?$allocator@PEAVbus_device@@@2@XZ
	DD	0e8H
	DD	00H
	DD	05H
CONST	ENDS
;	COMDAT xdata
xdata	SEGMENT
$unwind$?_Get_first@?$_Compressed_pair@V?$allocator@PEAVbus_device@@@std@@V?$_Vector_val@U?$_Simple_types@PEAVbus_device@@@std@@@2@$00@std@@QEBAAEBV?$allocator@PEAVbus_device@@@2@XZ DD 025053519H
	DD	010e2313H
	DD	070070021H
	DD	05006H
	DD	imagerel __CxxFrameHandler3
	DD	imagerel $cppxdata$?_Get_first@?$_Compressed_pair@V?$allocator@PEAVbus_device@@@std@@V?$_Vector_val@U?$_Simple_types@PEAVbus_device@@@std@@@2@$00@std@@QEBAAEBV?$allocator@PEAVbus_device@@@2@XZ
xdata	ENDS
;	COMDAT xdata
xdata	SEGMENT
$ip2state$?_Get_first@?$_Compressed_pair@V?$allocator@PEAVbus_device@@@std@@V?$_Vector_val@U?$_Simple_types@PEAVbus_device@@@std@@@2@$00@std@@QEAAAEAV?$allocator@PEAVbus_device@@@2@XZ DD imagerel ?_Get_first@?$_Compressed_pair@V?$allocator@PEAVbus_device@@@std@@V?$_Vector_val@U?$_Simple_types@PEAVbus_device@@@std@@@2@$00@std@@QEAAAEAV?$allocator@PEAVbus_device@@@2@XZ
	DD	0ffffffffH
xdata	ENDS
;	COMDAT CONST
CONST	SEGMENT
$cppxdata$?_Get_first@?$_Compressed_pair@V?$allocator@PEAVbus_device@@@std@@V?$_Vector_val@U?$_Simple_types@PEAVbus_device@@@std@@@2@$00@std@@QEAAAEAV?$allocator@PEAVbus_device@@@2@XZ DD 019930522H
	DD	00H
	DD	00H
	DD	00H
	DD	00H
	DD	01H
	DD	imagerel $ip2state$?_Get_first@?$_Compressed_pair@V?$allocator@PEAVbus_device@@@std@@V?$_Vector_val@U?$_Simple_types@PEAVbus_device@@@std@@@2@$00@std@@QEAAAEAV?$allocator@PEAVbus_device@@@2@XZ
	DD	0e8H
	DD	00H
	DD	05H
CONST	ENDS
;	COMDAT xdata
xdata	SEGMENT
$unwind$?_Get_first@?$_Compressed_pair@V?$allocator@PEAVbus_device@@@std@@V?$_Vector_val@U?$_Simple_types@PEAVbus_device@@@std@@@2@$00@std@@QEAAAEAV?$allocator@PEAVbus_device@@@2@XZ DD 025053519H
	DD	010e2313H
	DD	070070021H
	DD	05006H
	DD	imagerel __CxxFrameHandler3
	DD	imagerel $cppxdata$?_Get_first@?$_Compressed_pair@V?$allocator@PEAVbus_device@@@std@@V?$_Vector_val@U?$_Simple_types@PEAVbus_device@@@std@@@2@$00@std@@QEAAAEAV?$allocator@PEAVbus_device@@@2@XZ
xdata	ENDS
;	COMDAT xdata
xdata	SEGMENT
$unwind$??0?$_Vector_val@U?$_Simple_types@PEAVbus_device@@@std@@@std@@QEAA@XZ DD 025052a01H
	DD	010e2313H
	DD	07007001dH
	DD	05006H
xdata	ENDS
;	COMDAT xdata
xdata	SEGMENT
$ip2state$?_Myend@?$_Vector_alloc@U?$_Vec_base_types@PEAVbus_device@@V?$allocator@PEAVbus_device@@@std@@@std@@@std@@QEBAAEBQEAPEAVbus_device@@XZ DD imagerel ?_Myend@?$_Vector_alloc@U?$_Vec_base_types@PEAVbus_device@@V?$allocator@PEAVbus_device@@@std@@@std@@@std@@QEBAAEBQEAPEAVbus_device@@XZ
	DD	0ffffffffH
xdata	ENDS
;	COMDAT CONST
CONST	SEGMENT
$cppxdata$?_Myend@?$_Vector_alloc@U?$_Vec_base_types@PEAVbus_device@@V?$allocator@PEAVbus_device@@@std@@@std@@@std@@QEBAAEBQEAPEAVbus_device@@XZ DD 019930522H
	DD	00H
	DD	00H
	DD	00H
	DD	00H
	DD	01H
	DD	imagerel $ip2state$?_Myend@?$_Vector_alloc@U?$_Vec_base_types@PEAVbus_device@@V?$allocator@PEAVbus_device@@@std@@@std@@@std@@QEBAAEBQEAPEAVbus_device@@XZ
	DD	0e8H
	DD	00H
	DD	05H
CONST	ENDS
;	COMDAT xdata
xdata	SEGMENT
$unwind$?_Myend@?$_Vector_alloc@U?$_Vec_base_types@PEAVbus_device@@V?$allocator@PEAVbus_device@@@std@@@std@@@std@@QEBAAEBQEAPEAVbus_device@@XZ DD 025053519H
	DD	010e2313H
	DD	070070021H
	DD	05006H
	DD	imagerel __CxxFrameHandler3
	DD	imagerel $cppxdata$?_Myend@?$_Vector_alloc@U?$_Vec_base_types@PEAVbus_device@@V?$allocator@PEAVbus_device@@@std@@@std@@@std@@QEBAAEBQEAPEAVbus_device@@XZ
xdata	ENDS
;	COMDAT xdata
xdata	SEGMENT
$ip2state$?_Myend@?$_Vector_alloc@U?$_Vec_base_types@PEAVbus_device@@V?$allocator@PEAVbus_device@@@std@@@std@@@std@@QEAAAEAPEAPEAVbus_device@@XZ DD imagerel ?_Myend@?$_Vector_alloc@U?$_Vec_base_types@PEAVbus_device@@V?$allocator@PEAVbus_device@@@std@@@std@@@std@@QEAAAEAPEAPEAVbus_device@@XZ
	DD	0ffffffffH
xdata	ENDS
;	COMDAT CONST
CONST	SEGMENT
$cppxdata$?_Myend@?$_Vector_alloc@U?$_Vec_base_types@PEAVbus_device@@V?$allocator@PEAVbus_device@@@std@@@std@@@std@@QEAAAEAPEAPEAVbus_device@@XZ DD 019930522H
	DD	00H
	DD	00H
	DD	00H
	DD	00H
	DD	01H
	DD	imagerel $ip2state$?_Myend@?$_Vector_alloc@U?$_Vec_base_types@PEAVbus_device@@V?$allocator@PEAVbus_device@@@std@@@std@@@std@@QEAAAEAPEAPEAVbus_device@@XZ
	DD	0e8H
	DD	00H
	DD	05H
CONST	ENDS
;	COMDAT xdata
xdata	SEGMENT
$unwind$?_Myend@?$_Vector_alloc@U?$_Vec_base_types@PEAVbus_device@@V?$allocator@PEAVbus_device@@@std@@@std@@@std@@QEAAAEAPEAPEAVbus_device@@XZ DD 025053519H
	DD	010e2313H
	DD	070070021H
	DD	05006H
	DD	imagerel __CxxFrameHandler3
	DD	imagerel $cppxdata$?_Myend@?$_Vector_alloc@U?$_Vec_base_types@PEAVbus_device@@V?$allocator@PEAVbus_device@@@std@@@std@@@std@@QEAAAEAPEAPEAVbus_device@@XZ
xdata	ENDS
;	COMDAT xdata
xdata	SEGMENT
$ip2state$?_Mylast@?$_Vector_alloc@U?$_Vec_base_types@PEAVbus_device@@V?$allocator@PEAVbus_device@@@std@@@std@@@std@@QEBAAEBQEAPEAVbus_device@@XZ DD imagerel ?_Mylast@?$_Vector_alloc@U?$_Vec_base_types@PEAVbus_device@@V?$allocator@PEAVbus_device@@@std@@@std@@@std@@QEBAAEBQEAPEAVbus_device@@XZ
	DD	0ffffffffH
xdata	ENDS
;	COMDAT CONST
CONST	SEGMENT
$cppxdata$?_Mylast@?$_Vector_alloc@U?$_Vec_base_types@PEAVbus_device@@V?$allocator@PEAVbus_device@@@std@@@std@@@std@@QEBAAEBQEAPEAVbus_device@@XZ DD 019930522H
	DD	00H
	DD	00H
	DD	00H
	DD	00H
	DD	01H
	DD	imagerel $ip2state$?_Mylast@?$_Vector_alloc@U?$_Vec_base_types@PEAVbus_device@@V?$allocator@PEAVbus_device@@@std@@@std@@@std@@QEBAAEBQEAPEAVbus_device@@XZ
	DD	0e8H
	DD	00H
	DD	05H
CONST	ENDS
;	COMDAT xdata
xdata	SEGMENT
$unwind$?_Mylast@?$_Vector_alloc@U?$_Vec_base_types@PEAVbus_device@@V?$allocator@PEAVbus_device@@@std@@@std@@@std@@QEBAAEBQEAPEAVbus_device@@XZ DD 025053519H
	DD	010e2313H
	DD	070070021H
	DD	05006H
	DD	imagerel __CxxFrameHandler3
	DD	imagerel $cppxdata$?_Mylast@?$_Vector_alloc@U?$_Vec_base_types@PEAVbus_device@@V?$allocator@PEAVbus_device@@@std@@@std@@@std@@QEBAAEBQEAPEAVbus_device@@XZ
xdata	ENDS
;	COMDAT xdata
xdata	SEGMENT
$ip2state$?_Mylast@?$_Vector_alloc@U?$_Vec_base_types@PEAVbus_device@@V?$allocator@PEAVbus_device@@@std@@@std@@@std@@QEAAAEAPEAPEAVbus_device@@XZ DD imagerel ?_Mylast@?$_Vector_alloc@U?$_Vec_base_types@PEAVbus_device@@V?$allocator@PEAVbus_device@@@std@@@std@@@std@@QEAAAEAPEAPEAVbus_device@@XZ
	DD	0ffffffffH
xdata	ENDS
;	COMDAT CONST
CONST	SEGMENT
$cppxdata$?_Mylast@?$_Vector_alloc@U?$_Vec_base_types@PEAVbus_device@@V?$allocator@PEAVbus_device@@@std@@@std@@@std@@QEAAAEAPEAPEAVbus_device@@XZ DD 019930522H
	DD	00H
	DD	00H
	DD	00H
	DD	00H
	DD	01H
	DD	imagerel $ip2state$?_Mylast@?$_Vector_alloc@U?$_Vec_base_types@PEAVbus_device@@V?$allocator@PEAVbus_device@@@std@@@std@@@std@@QEAAAEAPEAPEAVbus_device@@XZ
	DD	0e8H
	DD	00H
	DD	05H
CONST	ENDS
;	COMDAT xdata
xdata	SEGMENT
$unwind$?_Mylast@?$_Vector_alloc@U?$_Vec_base_types@PEAVbus_device@@V?$allocator@PEAVbus_device@@@std@@@std@@@std@@QEAAAEAPEAPEAVbus_device@@XZ DD 025053519H
	DD	010e2313H
	DD	070070021H
	DD	05006H
	DD	imagerel __CxxFrameHandler3
	DD	imagerel $cppxdata$?_Mylast@?$_Vector_alloc@U?$_Vec_base_types@PEAVbus_device@@V?$allocator@PEAVbus_device@@@std@@@std@@@std@@QEAAAEAPEAPEAVbus_device@@XZ
xdata	ENDS
;	COMDAT xdata
xdata	SEGMENT
$ip2state$?_Myfirst@?$_Vector_alloc@U?$_Vec_base_types@PEAVbus_device@@V?$allocator@PEAVbus_device@@@std@@@std@@@std@@QEBAAEBQEAPEAVbus_device@@XZ DD imagerel ?_Myfirst@?$_Vector_alloc@U?$_Vec_base_types@PEAVbus_device@@V?$allocator@PEAVbus_device@@@std@@@std@@@std@@QEBAAEBQEAPEAVbus_device@@XZ
	DD	0ffffffffH
xdata	ENDS
;	COMDAT CONST
CONST	SEGMENT
$cppxdata$?_Myfirst@?$_Vector_alloc@U?$_Vec_base_types@PEAVbus_device@@V?$allocator@PEAVbus_device@@@std@@@std@@@std@@QEBAAEBQEAPEAVbus_device@@XZ DD 019930522H
	DD	00H
	DD	00H
	DD	00H
	DD	00H
	DD	01H
	DD	imagerel $ip2state$?_Myfirst@?$_Vector_alloc@U?$_Vec_base_types@PEAVbus_device@@V?$allocator@PEAVbus_device@@@std@@@std@@@std@@QEBAAEBQEAPEAVbus_device@@XZ
	DD	0e8H
	DD	00H
	DD	05H
CONST	ENDS
;	COMDAT xdata
xdata	SEGMENT
$unwind$?_Myfirst@?$_Vector_alloc@U?$_Vec_base_types@PEAVbus_device@@V?$allocator@PEAVbus_device@@@std@@@std@@@std@@QEBAAEBQEAPEAVbus_device@@XZ DD 025053519H
	DD	010e2313H
	DD	070070021H
	DD	05006H
	DD	imagerel __CxxFrameHandler3
	DD	imagerel $cppxdata$?_Myfirst@?$_Vector_alloc@U?$_Vec_base_types@PEAVbus_device@@V?$allocator@PEAVbus_device@@@std@@@std@@@std@@QEBAAEBQEAPEAVbus_device@@XZ
xdata	ENDS
;	COMDAT xdata
xdata	SEGMENT
$ip2state$?_Myfirst@?$_Vector_alloc@U?$_Vec_base_types@PEAVbus_device@@V?$allocator@PEAVbus_device@@@std@@@std@@@std@@QEAAAEAPEAPEAVbus_device@@XZ DD imagerel ?_Myfirst@?$_Vector_alloc@U?$_Vec_base_types@PEAVbus_device@@V?$allocator@PEAVbus_device@@@std@@@std@@@std@@QEAAAEAPEAPEAVbus_device@@XZ
	DD	0ffffffffH
xdata	ENDS
;	COMDAT CONST
CONST	SEGMENT
$cppxdata$?_Myfirst@?$_Vector_alloc@U?$_Vec_base_types@PEAVbus_device@@V?$allocator@PEAVbus_device@@@std@@@std@@@std@@QEAAAEAPEAPEAVbus_device@@XZ DD 019930522H
	DD	00H
	DD	00H
	DD	00H
	DD	00H
	DD	01H
	DD	imagerel $ip2state$?_Myfirst@?$_Vector_alloc@U?$_Vec_base_types@PEAVbus_device@@V?$allocator@PEAVbus_device@@@std@@@std@@@std@@QEAAAEAPEAPEAVbus_device@@XZ
	DD	0e8H
	DD	00H
	DD	05H
CONST	ENDS
;	COMDAT xdata
xdata	SEGMENT
$unwind$?_Myfirst@?$_Vector_alloc@U?$_Vec_base_types@PEAVbus_device@@V?$allocator@PEAVbus_device@@@std@@@std@@@std@@QEAAAEAPEAPEAVbus_device@@XZ DD 025053519H
	DD	010e2313H
	DD	070070021H
	DD	05006H
	DD	imagerel __CxxFrameHandler3
	DD	imagerel $cppxdata$?_Myfirst@?$_Vector_alloc@U?$_Vec_base_types@PEAVbus_device@@V?$allocator@PEAVbus_device@@@std@@@std@@@std@@QEAAAEAPEAPEAVbus_device@@XZ
xdata	ENDS
;	COMDAT xdata
xdata	SEGMENT
$ip2state$?_Get_data@?$_Vector_alloc@U?$_Vec_base_types@PEAVbus_device@@V?$allocator@PEAVbus_device@@@std@@@std@@@std@@QEBAAEBV?$_Vector_val@U?$_Simple_types@PEAVbus_device@@@std@@@2@XZ DD imagerel ?_Get_data@?$_Vector_alloc@U?$_Vec_base_types@PEAVbus_device@@V?$allocator@PEAVbus_device@@@std@@@std@@@std@@QEBAAEBV?$_Vector_val@U?$_Simple_types@PEAVbus_device@@@std@@@2@XZ
	DD	0ffffffffH
xdata	ENDS
;	COMDAT CONST
CONST	SEGMENT
$cppxdata$?_Get_data@?$_Vector_alloc@U?$_Vec_base_types@PEAVbus_device@@V?$allocator@PEAVbus_device@@@std@@@std@@@std@@QEBAAEBV?$_Vector_val@U?$_Simple_types@PEAVbus_device@@@std@@@2@XZ DD 019930522H
	DD	00H
	DD	00H
	DD	00H
	DD	00H
	DD	01H
	DD	imagerel $ip2state$?_Get_data@?$_Vector_alloc@U?$_Vec_base_types@PEAVbus_device@@V?$allocator@PEAVbus_device@@@std@@@std@@@std@@QEBAAEBV?$_Vector_val@U?$_Simple_types@PEAVbus_device@@@std@@@2@XZ
	DD	0e8H
	DD	00H
	DD	05H
CONST	ENDS
;	COMDAT xdata
xdata	SEGMENT
$unwind$?_Get_data@?$_Vector_alloc@U?$_Vec_base_types@PEAVbus_device@@V?$allocator@PEAVbus_device@@@std@@@std@@@std@@QEBAAEBV?$_Vector_val@U?$_Simple_types@PEAVbus_device@@@std@@@2@XZ DD 025053519H
	DD	010e2313H
	DD	070070021H
	DD	05006H
	DD	imagerel __CxxFrameHandler3
	DD	imagerel $cppxdata$?_Get_data@?$_Vector_alloc@U?$_Vec_base_types@PEAVbus_device@@V?$allocator@PEAVbus_device@@@std@@@std@@@std@@QEBAAEBV?$_Vector_val@U?$_Simple_types@PEAVbus_device@@@std@@@2@XZ
xdata	ENDS
;	COMDAT xdata
xdata	SEGMENT
$ip2state$?_Get_data@?$_Vector_alloc@U?$_Vec_base_types@PEAVbus_device@@V?$allocator@PEAVbus_device@@@std@@@std@@@std@@QEAAAEAV?$_Vector_val@U?$_Simple_types@PEAVbus_device@@@std@@@2@XZ DD imagerel ?_Get_data@?$_Vector_alloc@U?$_Vec_base_types@PEAVbus_device@@V?$allocator@PEAVbus_device@@@std@@@std@@@std@@QEAAAEAV?$_Vector_val@U?$_Simple_types@PEAVbus_device@@@std@@@2@XZ
	DD	0ffffffffH
xdata	ENDS
;	COMDAT CONST
CONST	SEGMENT
$cppxdata$?_Get_data@?$_Vector_alloc@U?$_Vec_base_types@PEAVbus_device@@V?$allocator@PEAVbus_device@@@std@@@std@@@std@@QEAAAEAV?$_Vector_val@U?$_Simple_types@PEAVbus_device@@@std@@@2@XZ DD 019930522H
	DD	00H
	DD	00H
	DD	00H
	DD	00H
	DD	01H
	DD	imagerel $ip2state$?_Get_data@?$_Vector_alloc@U?$_Vec_base_types@PEAVbus_device@@V?$allocator@PEAVbus_device@@@std@@@std@@@std@@QEAAAEAV?$_Vector_val@U?$_Simple_types@PEAVbus_device@@@std@@@2@XZ
	DD	0e8H
	DD	00H
	DD	05H
CONST	ENDS
;	COMDAT xdata
xdata	SEGMENT
$unwind$?_Get_data@?$_Vector_alloc@U?$_Vec_base_types@PEAVbus_device@@V?$allocator@PEAVbus_device@@@std@@@std@@@std@@QEAAAEAV?$_Vector_val@U?$_Simple_types@PEAVbus_device@@@std@@@2@XZ DD 025053519H
	DD	010e2313H
	DD	070070021H
	DD	05006H
	DD	imagerel __CxxFrameHandler3
	DD	imagerel $cppxdata$?_Get_data@?$_Vector_alloc@U?$_Vec_base_types@PEAVbus_device@@V?$allocator@PEAVbus_device@@@std@@@std@@@std@@QEAAAEAV?$_Vector_val@U?$_Simple_types@PEAVbus_device@@@std@@@2@XZ
xdata	ENDS
;	COMDAT xdata
xdata	SEGMENT
$ip2state$?_Getal@?$_Vector_alloc@U?$_Vec_base_types@PEAVbus_device@@V?$allocator@PEAVbus_device@@@std@@@std@@@std@@QEBAAEBV?$allocator@PEAVbus_device@@@2@XZ DD imagerel ?_Getal@?$_Vector_alloc@U?$_Vec_base_types@PEAVbus_device@@V?$allocator@PEAVbus_device@@@std@@@std@@@std@@QEBAAEBV?$allocator@PEAVbus_device@@@2@XZ
	DD	0ffffffffH
xdata	ENDS
;	COMDAT CONST
CONST	SEGMENT
$cppxdata$?_Getal@?$_Vector_alloc@U?$_Vec_base_types@PEAVbus_device@@V?$allocator@PEAVbus_device@@@std@@@std@@@std@@QEBAAEBV?$allocator@PEAVbus_device@@@2@XZ DD 019930522H
	DD	00H
	DD	00H
	DD	00H
	DD	00H
	DD	01H
	DD	imagerel $ip2state$?_Getal@?$_Vector_alloc@U?$_Vec_base_types@PEAVbus_device@@V?$allocator@PEAVbus_device@@@std@@@std@@@std@@QEBAAEBV?$allocator@PEAVbus_device@@@2@XZ
	DD	0e8H
	DD	00H
	DD	05H
CONST	ENDS
;	COMDAT xdata
xdata	SEGMENT
$unwind$?_Getal@?$_Vector_alloc@U?$_Vec_base_types@PEAVbus_device@@V?$allocator@PEAVbus_device@@@std@@@std@@@std@@QEBAAEBV?$allocator@PEAVbus_device@@@2@XZ DD 025053519H
	DD	010e2313H
	DD	070070021H
	DD	05006H
	DD	imagerel __CxxFrameHandler3
	DD	imagerel $cppxdata$?_Getal@?$_Vector_alloc@U?$_Vec_base_types@PEAVbus_device@@V?$allocator@PEAVbus_device@@@std@@@std@@@std@@QEBAAEBV?$allocator@PEAVbus_device@@@2@XZ
xdata	ENDS
;	COMDAT xdata
xdata	SEGMENT
$ip2state$?_Getal@?$_Vector_alloc@U?$_Vec_base_types@PEAVbus_device@@V?$allocator@PEAVbus_device@@@std@@@std@@@std@@QEAAAEAV?$allocator@PEAVbus_device@@@2@XZ DD imagerel ?_Getal@?$_Vector_alloc@U?$_Vec_base_types@PEAVbus_device@@V?$allocator@PEAVbus_device@@@std@@@std@@@std@@QEAAAEAV?$allocator@PEAVbus_device@@@2@XZ
	DD	0ffffffffH
xdata	ENDS
;	COMDAT CONST
CONST	SEGMENT
$cppxdata$?_Getal@?$_Vector_alloc@U?$_Vec_base_types@PEAVbus_device@@V?$allocator@PEAVbus_device@@@std@@@std@@@std@@QEAAAEAV?$allocator@PEAVbus_device@@@2@XZ DD 019930522H
	DD	00H
	DD	00H
	DD	00H
	DD	00H
	DD	01H
	DD	imagerel $ip2state$?_Getal@?$_Vector_alloc@U?$_Vec_base_types@PEAVbus_device@@V?$allocator@PEAVbus_device@@@std@@@std@@@std@@QEAAAEAV?$allocator@PEAVbus_device@@@2@XZ
	DD	0e8H
	DD	00H
	DD	05H
CONST	ENDS
;	COMDAT xdata
xdata	SEGMENT
$unwind$?_Getal@?$_Vector_alloc@U?$_Vec_base_types@PEAVbus_device@@V?$allocator@PEAVbus_device@@@std@@@std@@@std@@QEAAAEAV?$allocator@PEAVbus_device@@@2@XZ DD 025053519H
	DD	010e2313H
	DD	070070021H
	DD	05006H
	DD	imagerel __CxxFrameHandler3
	DD	imagerel $cppxdata$?_Getal@?$_Vector_alloc@U?$_Vec_base_types@PEAVbus_device@@V?$allocator@PEAVbus_device@@@std@@@std@@@std@@QEAAAEAV?$allocator@PEAVbus_device@@@2@XZ
xdata	ENDS
;	COMDAT xdata
xdata	SEGMENT
$unwind$?_Orphan_all@?$_Vector_alloc@U?$_Vec_base_types@PEAVbus_device@@V?$allocator@PEAVbus_device@@@std@@@std@@@std@@QEAAXXZ DD 025052a01H
	DD	010e2313H
	DD	07007001dH
	DD	05006H
xdata	ENDS
;	COMDAT xdata
xdata	SEGMENT
$ip2state$?_Myproxy@?$_Vector_alloc@U?$_Vec_base_types@PEAVbus_device@@V?$allocator@PEAVbus_device@@@std@@@std@@@std@@QEAAAEAPEAU_Container_proxy@2@XZ DD imagerel ?_Myproxy@?$_Vector_alloc@U?$_Vec_base_types@PEAVbus_device@@V?$allocator@PEAVbus_device@@@std@@@std@@@std@@QEAAAEAPEAU_Container_proxy@2@XZ
	DD	0ffffffffH
xdata	ENDS
;	COMDAT CONST
CONST	SEGMENT
$cppxdata$?_Myproxy@?$_Vector_alloc@U?$_Vec_base_types@PEAVbus_device@@V?$allocator@PEAVbus_device@@@std@@@std@@@std@@QEAAAEAPEAU_Container_proxy@2@XZ DD 019930522H
	DD	00H
	DD	00H
	DD	00H
	DD	00H
	DD	01H
	DD	imagerel $ip2state$?_Myproxy@?$_Vector_alloc@U?$_Vec_base_types@PEAVbus_device@@V?$allocator@PEAVbus_device@@@std@@@std@@@std@@QEAAAEAPEAU_Container_proxy@2@XZ
	DD	0e8H
	DD	00H
	DD	05H
CONST	ENDS
;	COMDAT xdata
xdata	SEGMENT
$unwind$?_Myproxy@?$_Vector_alloc@U?$_Vec_base_types@PEAVbus_device@@V?$allocator@PEAVbus_device@@@std@@@std@@@std@@QEAAAEAPEAU_Container_proxy@2@XZ DD 025053519H
	DD	010e2313H
	DD	070070021H
	DD	05006H
	DD	imagerel __CxxFrameHandler3
	DD	imagerel $cppxdata$?_Myproxy@?$_Vector_alloc@U?$_Vec_base_types@PEAVbus_device@@V?$allocator@PEAVbus_device@@@std@@@std@@@std@@QEAAAEAPEAU_Container_proxy@2@XZ
xdata	ENDS
;	COMDAT xdata
xdata	SEGMENT
$unwind$?_Getpfirst@?$_Vector_alloc@U?$_Vec_base_types@PEAVbus_device@@V?$allocator@PEAVbus_device@@@std@@@std@@@std@@QEBAPEAPEAU_Iterator_base12@2@XZ DD 025052a01H
	DD	010e2313H
	DD	07007001dH
	DD	05006H
xdata	ENDS
;	COMDAT xdata
xdata	SEGMENT
$unwind$?_Free_proxy@?$_Vector_alloc@U?$_Vec_base_types@PEAVbus_device@@V?$allocator@PEAVbus_device@@@std@@@std@@@std@@QEAAXXZ DD 025053b19H
	DD	010e2313H
	DD	070070021H
	DD	05006H
	DD	imagerel __GSHandlerCheck
	DD	0f8H
xdata	ENDS
;	COMDAT CONST
CONST	SEGMENT
?_Free_proxy@?$_Vector_alloc@U?$_Vec_base_types@PEAVbus_device@@V?$allocator@PEAVbus_device@@@std@@@std@@@std@@QEAAXXZ$rtcName$0 DB 05fH ; std::_Vector_alloc<std::_Vec_base_types<bus_device *,std::allocator<bus_device *> > >::_Free_proxy
	DB	050H
	DB	072H
	DB	06fH
	DB	078H
	DB	079H
	DB	05fH
	DB	061H
	DB	06cH
	DB	06cH
	DB	06fH
	DB	063H
	DB	061H
	DB	074H
	DB	06fH
	DB	072H
	DB	00H
	ORG $+15
?_Free_proxy@?$_Vector_alloc@U?$_Vec_base_types@PEAVbus_device@@V?$allocator@PEAVbus_device@@@std@@@std@@@std@@QEAAXXZ$rtcVarDesc DD 024H ; std::_Vector_alloc<std::_Vec_base_types<bus_device *,std::allocator<bus_device *> > >::_Free_proxy
	DD	01H
	DQ	FLAT:?_Free_proxy@?$_Vector_alloc@U?$_Vec_base_types@PEAVbus_device@@V?$allocator@PEAVbus_device@@@std@@@std@@@std@@QEAAXXZ$rtcName$0
	ORG $+48
?_Free_proxy@?$_Vector_alloc@U?$_Vec_base_types@PEAVbus_device@@V?$allocator@PEAVbus_device@@@std@@@std@@@std@@QEAAXXZ$rtcFrameData DD 01H ; std::_Vector_alloc<std::_Vec_base_types<bus_device *,std::allocator<bus_device *> > >::_Free_proxy
	DD	00H
	DQ	FLAT:?_Free_proxy@?$_Vector_alloc@U?$_Vec_base_types@PEAVbus_device@@V?$allocator@PEAVbus_device@@@std@@@std@@@std@@QEAAXXZ$rtcVarDesc
CONST	ENDS
;	COMDAT xdata
xdata	SEGMENT
$unwind$?_Alloc_proxy@?$_Vector_alloc@U?$_Vec_base_types@PEAVbus_device@@V?$allocator@PEAVbus_device@@@std@@@std@@@std@@QEAAXXZ DD 025053b19H
	DD	010e2313H
	DD	070070029H
	DD	05006H
	DD	imagerel __GSHandlerCheck
	DD	0130H
xdata	ENDS
;	COMDAT CONST
CONST	SEGMENT
?_Alloc_proxy@?$_Vector_alloc@U?$_Vec_base_types@PEAVbus_device@@V?$allocator@PEAVbus_device@@@std@@@std@@@std@@QEAAXXZ$rtcName$0 DB 05fH ; std::_Vector_alloc<std::_Vec_base_types<bus_device *,std::allocator<bus_device *> > >::_Alloc_proxy
	DB	050H
	DB	072H
	DB	06fH
	DB	078H
	DB	079H
	DB	05fH
	DB	061H
	DB	06cH
	DB	06cH
	DB	06fH
	DB	063H
	DB	061H
	DB	074H
	DB	06fH
	DB	072H
	DB	00H
	ORG $+15
?_Alloc_proxy@?$_Vector_alloc@U?$_Vec_base_types@PEAVbus_device@@V?$allocator@PEAVbus_device@@@std@@@std@@@std@@QEAAXXZ$rtcVarDesc DD 024H ; std::_Vector_alloc<std::_Vec_base_types<bus_device *,std::allocator<bus_device *> > >::_Alloc_proxy
	DD	01H
	DQ	FLAT:?_Alloc_proxy@?$_Vector_alloc@U?$_Vec_base_types@PEAVbus_device@@V?$allocator@PEAVbus_device@@@std@@@std@@@std@@QEAAXXZ$rtcName$0
	ORG $+48
?_Alloc_proxy@?$_Vector_alloc@U?$_Vec_base_types@PEAVbus_device@@V?$allocator@PEAVbus_device@@@std@@@std@@@std@@QEAAXXZ$rtcFrameData DD 01H ; std::_Vector_alloc<std::_Vec_base_types<bus_device *,std::allocator<bus_device *> > >::_Alloc_proxy
	DD	00H
	DQ	FLAT:?_Alloc_proxy@?$_Vector_alloc@U?$_Vec_base_types@PEAVbus_device@@V?$allocator@PEAVbus_device@@@std@@@std@@@std@@QEAAXXZ$rtcVarDesc
CONST	ENDS
;	COMDAT xdata
xdata	SEGMENT
$ip2state$??1?$_Vector_alloc@U?$_Vec_base_types@PEAVbus_device@@V?$allocator@PEAVbus_device@@@std@@@std@@@std@@QEAA@XZ DD imagerel ??1?$_Vector_alloc@U?$_Vec_base_types@PEAVbus_device@@V?$allocator@PEAVbus_device@@@std@@@std@@@std@@QEAA@XZ
	DD	0ffffffffH
xdata	ENDS
;	COMDAT CONST
CONST	SEGMENT
$cppxdata$??1?$_Vector_alloc@U?$_Vec_base_types@PEAVbus_device@@V?$allocator@PEAVbus_device@@@std@@@std@@@std@@QEAA@XZ DD 019930522H
	DD	00H
	DD	00H
	DD	00H
	DD	00H
	DD	01H
	DD	imagerel $ip2state$??1?$_Vector_alloc@U?$_Vec_base_types@PEAVbus_device@@V?$allocator@PEAVbus_device@@@std@@@std@@@std@@QEAA@XZ
	DD	0e8H
	DD	00H
	DD	05H
CONST	ENDS
;	COMDAT xdata
xdata	SEGMENT
$unwind$??1?$_Vector_alloc@U?$_Vec_base_types@PEAVbus_device@@V?$allocator@PEAVbus_device@@@std@@@std@@@std@@QEAA@XZ DD 025053519H
	DD	010e2313H
	DD	070070021H
	DD	05006H
	DD	imagerel __CxxFrameHandler3
	DD	imagerel $cppxdata$??1?$_Vector_alloc@U?$_Vec_base_types@PEAVbus_device@@V?$allocator@PEAVbus_device@@@std@@@std@@@std@@QEAA@XZ
xdata	ENDS
;	COMDAT xdata
xdata	SEGMENT
$unwind$??0?$_Vector_alloc@U?$_Vec_base_types@PEAVbus_device@@V?$allocator@PEAVbus_device@@@std@@@std@@@std@@QEAA@XZ DD 025052a01H
	DD	010e2313H
	DD	070070021H
	DD	05006H
xdata	ENDS
;	COMDAT xdata
xdata	SEGMENT
$ip2state$?max_size@?$_Default_allocator_traits@V?$allocator@PEAVbus_device@@@std@@@std@@SA_KAEBV?$allocator@PEAVbus_device@@@2@@Z DD imagerel ?max_size@?$_Default_allocator_traits@V?$allocator@PEAVbus_device@@@std@@@std@@SA_KAEBV?$allocator@PEAVbus_device@@@2@@Z
	DD	0ffffffffH
xdata	ENDS
;	COMDAT CONST
CONST	SEGMENT
$cppxdata$?max_size@?$_Default_allocator_traits@V?$allocator@PEAVbus_device@@@std@@@std@@SA_KAEBV?$allocator@PEAVbus_device@@@2@@Z DD 019930522H
	DD	00H
	DD	00H
	DD	00H
	DD	00H
	DD	01H
	DD	imagerel $ip2state$?max_size@?$_Default_allocator_traits@V?$allocator@PEAVbus_device@@@std@@@std@@SA_KAEBV?$allocator@PEAVbus_device@@@2@@Z
	DD	0e8H
	DD	00H
	DD	05H
CONST	ENDS
;	COMDAT xdata
xdata	SEGMENT
$unwind$?max_size@?$_Default_allocator_traits@V?$allocator@PEAVbus_device@@@std@@@std@@SA_KAEBV?$allocator@PEAVbus_device@@@2@@Z DD 025053519H
	DD	010e2313H
	DD	070070021H
	DD	05006H
	DD	imagerel __CxxFrameHandler3
	DD	imagerel $cppxdata$?max_size@?$_Default_allocator_traits@V?$allocator@PEAVbus_device@@@std@@@std@@SA_KAEBV?$allocator@PEAVbus_device@@@2@@Z
xdata	ENDS
;	COMDAT xdata
xdata	SEGMENT
$unwind$?allocate@?$allocator@PEAVbus_device@@@std@@QEAAPEAPEAVbus_device@@_K@Z DD 025052f01H
	DD	01132318H
	DD	0700c001dH
	DD	0500bH
xdata	ENDS
;	COMDAT xdata
xdata	SEGMENT
$unwind$?deallocate@?$allocator@PEAVbus_device@@@std@@QEAAXQEAPEAVbus_device@@_K@Z DD 025053401H
	DD	0118231dH
	DD	07011001dH
	DD	05010H
xdata	ENDS
;	COMDAT xdata
xdata	SEGMENT
$ip2state$??0?$allocator@PEAVbus_device@@@std@@QEAA@XZ DD imagerel ??0?$allocator@PEAVbus_device@@@std@@QEAA@XZ
	DD	0ffffffffH
xdata	ENDS
;	COMDAT CONST
CONST	SEGMENT
$cppxdata$??0?$allocator@PEAVbus_device@@@std@@QEAA@XZ DD 019930522H
	DD	00H
	DD	00H
	DD	00H
	DD	00H
	DD	01H
	DD	imagerel $ip2state$??0?$allocator@PEAVbus_device@@@std@@QEAA@XZ
	DD	0e8H
	DD	00H
	DD	05H
CONST	ENDS
;	COMDAT xdata
xdata	SEGMENT
$unwind$??0?$allocator@PEAVbus_device@@@std@@QEAA@XZ DD 025053519H
	DD	010e2313H
	DD	070070021H
	DD	05006H
	DD	imagerel __CxxFrameHandler3
	DD	imagerel $cppxdata$??0?$allocator@PEAVbus_device@@@std@@QEAA@XZ
xdata	ENDS
;	COMDAT xdata
xdata	SEGMENT
$unwind$??_Gbus_device@@UEAAPEAXI@Z DD 025052e01H
	DD	01122317H
	DD	0700b001dH
	DD	0500aH
xdata	ENDS
;	COMDAT xdata
xdata	SEGMENT
$unwind$?read@bus_device@@UEAAEHH@Z DD 025053301H
	DD	0117231cH
	DD	07010001dH
	DD	0500fH
xdata	ENDS
;	COMDAT xdata
xdata	SEGMENT
$unwind$?write@bus_device@@UEAAXHHE@Z DD 025053801H
	DD	011c2321H
	DD	07015001dH
	DD	05014H
xdata	ENDS
;	COMDAT xdata
xdata	SEGMENT
$unwind$?resetpins_to_default@bus_device@@QEAAXXZ DD 025052a01H
	DD	010e2313H
	DD	070070021H
	DD	05006H
xdata	ENDS
;	COMDAT xdata
xdata	SEGMENT
$unwind$?vccpin@bus_device@@QEAAXH@Z DD 025052e01H
	DD	01122317H
	DD	0700b001dH
	DD	0500aH
xdata	ENDS
;	COMDAT xdata
xdata	SEGMENT
$unwind$?groundpin@bus_device@@QEAAXH@Z DD 025052e01H
	DD	01122317H
	DD	0700b001dH
	DD	0500aH
xdata	ENDS
;	COMDAT xdata
xdata	SEGMENT
$unwind$?swappins@bus_device@@QEAAXHH@Z DD 025053301H
	DD	0117231cH
	DD	070100021H
	DD	0500fH
xdata	ENDS
;	COMDAT xdata
xdata	SEGMENT
$unwind$?compute_addr_from_layout@bus_device@@QEAAGG@Z DD 025052f01H
	DD	01132318H
	DD	0700c0025H
	DD	0500bH
xdata	ENDS
;	COMDAT xdata
xdata	SEGMENT
$ip2state$??1bus_device@@UEAA@XZ DD imagerel ??1bus_device@@UEAA@XZ
	DD	0ffffffffH
xdata	ENDS
;	COMDAT CONST
CONST	SEGMENT
$cppxdata$??1bus_device@@UEAA@XZ DD 019930522H
	DD	00H
	DD	00H
	DD	00H
	DD	00H
	DD	01H
	DD	imagerel $ip2state$??1bus_device@@UEAA@XZ
	DD	0e8H
	DD	00H
	DD	05H
CONST	ENDS
;	COMDAT xdata
xdata	SEGMENT
$unwind$??1bus_device@@UEAA@XZ DD 025053519H
	DD	010e2313H
	DD	070070021H
	DD	05006H
	DD	imagerel __CxxFrameHandler3
	DD	imagerel $cppxdata$??1bus_device@@UEAA@XZ
xdata	ENDS
;	COMDAT xdata
xdata	SEGMENT
$unwind$?dtor$0@?0???0bus_device@@QEAA@XZ@4HA DD 031001H
	DD	0700c4210H
	DD	0500bH
xdata	ENDS
;	COMDAT xdata
xdata	SEGMENT
$ip2state$??0bus_device@@QEAA@XZ DD imagerel ??0bus_device@@QEAA@XZ
	DD	0ffffffffH
	DD	imagerel ??0bus_device@@QEAA@XZ+78
	DD	00H
	DD	imagerel ??0bus_device@@QEAA@XZ+214
	DD	0ffffffffH
xdata	ENDS
;	COMDAT xdata
xdata	SEGMENT
$stateUnwindMap$??0bus_device@@QEAA@XZ DD 0ffffffffH
	DD	imagerel ?dtor$0@?0???0bus_device@@QEAA@XZ@4HA
xdata	ENDS
;	COMDAT CONST
CONST	SEGMENT
$cppxdata$??0bus_device@@QEAA@XZ DD 019930522H
	DD	01H
	DD	imagerel $stateUnwindMap$??0bus_device@@QEAA@XZ
	DD	00H
	DD	00H
	DD	03H
	DD	imagerel $ip2state$??0bus_device@@QEAA@XZ
	DD	0108H
	DD	00H
	DD	01H
CONST	ENDS
;	COMDAT xdata
xdata	SEGMENT
$unwind$??0bus_device@@QEAA@XZ DD 025053511H
	DD	010e2313H
	DD	070070025H
	DD	05006H
	DD	imagerel __CxxFrameHandler3
	DD	imagerel $cppxdata$??0bus_device@@QEAA@XZ
xdata	ENDS
;	COMDAT xdata
xdata	SEGMENT
$unwind$?dma@device@@UEAAXPEAE_N1@Z DD 025053901H
	DD	011d2322H
	DD	07016001dH
	DD	05015H
xdata	ENDS
;	COMDAT xdata
xdata	SEGMENT
$unwind$?get_device_descriptor@device@@QEAAPEADXZ DD 025052a01H
	DD	010e2313H
	DD	07007001dH
	DD	05006H
xdata	ENDS
;	COMDAT xdata
xdata	SEGMENT
$unwind$?rundevice@device@@UEAAHH@Z DD 025052e01H
	DD	01122317H
	DD	0700b001dH
	DD	0500aH
xdata	ENDS
;	COMDAT xdata
xdata	SEGMENT
$ip2state$??1device@@QEAA@XZ DD imagerel ??1device@@QEAA@XZ
	DD	0ffffffffH
xdata	ENDS
;	COMDAT CONST
CONST	SEGMENT
$cppxdata$??1device@@QEAA@XZ DD 019930522H
	DD	00H
	DD	00H
	DD	00H
	DD	00H
	DD	01H
	DD	imagerel $ip2state$??1device@@QEAA@XZ
	DD	0e8H
	DD	00H
	DD	05H
CONST	ENDS
;	COMDAT xdata
xdata	SEGMENT
$unwind$??1device@@QEAA@XZ DD 025053519H
	DD	010e2313H
	DD	070070021H
	DD	05006H
	DD	imagerel __CxxFrameHandler3
	DD	imagerel $cppxdata$??1device@@QEAA@XZ
xdata	ENDS
;	COMDAT xdata
xdata	SEGMENT
$unwind$??0device@@QEAA@XZ DD 025052a01H
	DD	010e2313H
	DD	07007001dH
	DD	05006H
xdata	ENDS
;	COMDAT xdata
xdata	SEGMENT
$ip2state$??$_Min_value@_K@std@@YAAEB_KAEB_K0@Z DD imagerel ??$_Min_value@_K@std@@YAAEB_KAEB_K0@Z
	DD	0ffffffffH
xdata	ENDS
;	COMDAT CONST
CONST	SEGMENT
$cppxdata$??$_Min_value@_K@std@@YAAEB_KAEB_K0@Z DD 019930522H
	DD	00H
	DD	00H
	DD	00H
	DD	00H
	DD	01H
	DD	imagerel $ip2state$??$_Min_value@_K@std@@YAAEB_KAEB_K0@Z
	DD	0108H
	DD	00H
	DD	05H
CONST	ENDS
;	COMDAT xdata
xdata	SEGMENT
$unwind$??$_Min_value@_K@std@@YAAEB_KAEB_K0@Z DD 025053a19H
	DD	01132318H
	DD	0700c0025H
	DD	0500bH
	DD	imagerel __CxxFrameHandler3
	DD	imagerel $cppxdata$??$_Min_value@_K@std@@YAAEB_KAEB_K0@Z
xdata	ENDS
;	COMDAT xdata
xdata	SEGMENT
$unwind$?_Adjust_manually_vector_aligned@std@@YAXAEAPEAXAEA_K@Z DD 035052f01H
	DD	01133318H
	DD	0700c002fH
	DD	0500bH
xdata	ENDS
;	COMDAT xdata
xdata	SEGMENT
$unwind$?_Allocate@_Default_allocate_traits@std@@SAPEAX_K@Z DD 025052a01H
	DD	010e2313H
	DD	07007001dH
	DD	05006H
xdata	ENDS
;	COMDAT xdata
xdata	SEGMENT
$ip2state$?_Orphan_me@_Iterator_base12@std@@QEAAXXZ DD imagerel ?_Orphan_me@_Iterator_base12@std@@QEAAXXZ
	DD	0ffffffffH
xdata	ENDS
;	COMDAT CONST
CONST	SEGMENT
$cppxdata$?_Orphan_me@_Iterator_base12@std@@QEAAXXZ DD 019930522H
	DD	00H
	DD	00H
	DD	00H
	DD	00H
	DD	01H
	DD	imagerel $ip2state$?_Orphan_me@_Iterator_base12@std@@QEAAXXZ
	DD	0118H
	DD	00H
	DD	05H
CONST	ENDS
;	COMDAT xdata
xdata	SEGMENT
$unwind$?_Orphan_me@_Iterator_base12@std@@QEAAXXZ DD 035053519H
	DD	010e3313H
	DD	070070027H
	DD	05006H
	DD	imagerel __CxxFrameHandler3
	DD	imagerel $cppxdata$?_Orphan_me@_Iterator_base12@std@@QEAAXXZ
xdata	ENDS
;	COMDAT xdata
xdata	SEGMENT
$ip2state$?_Getpnext@_Iterator_base12@std@@QEAAPEAPEAU12@XZ DD imagerel ?_Getpnext@_Iterator_base12@std@@QEAAPEAPEAU12@XZ
	DD	0ffffffffH
xdata	ENDS
;	COMDAT CONST
CONST	SEGMENT
$cppxdata$?_Getpnext@_Iterator_base12@std@@QEAAPEAPEAU12@XZ DD 019930522H
	DD	00H
	DD	00H
	DD	00H
	DD	00H
	DD	01H
	DD	imagerel $ip2state$?_Getpnext@_Iterator_base12@std@@QEAAPEAPEAU12@XZ
	DD	0e8H
	DD	00H
	DD	05H
CONST	ENDS
;	COMDAT xdata
xdata	SEGMENT
$unwind$?_Getpnext@_Iterator_base12@std@@QEAAPEAPEAU12@XZ DD 025053519H
	DD	010e2313H
	DD	070070021H
	DD	05006H
	DD	imagerel __CxxFrameHandler3
	DD	imagerel $cppxdata$?_Getpnext@_Iterator_base12@std@@QEAAPEAPEAU12@XZ
xdata	ENDS
;	COMDAT xdata
xdata	SEGMENT
$ip2state$?_Getcont@_Iterator_base12@std@@QEBAPEBU_Container_base12@2@XZ DD imagerel ?_Getcont@_Iterator_base12@std@@QEBAPEBU_Container_base12@2@XZ
	DD	0ffffffffH
xdata	ENDS
;	COMDAT CONST
CONST	SEGMENT
$cppxdata$?_Getcont@_Iterator_base12@std@@QEBAPEBU_Container_base12@2@XZ DD 019930522H
	DD	00H
	DD	00H
	DD	00H
	DD	00H
	DD	01H
	DD	imagerel $ip2state$?_Getcont@_Iterator_base12@std@@QEBAPEBU_Container_base12@2@XZ
	DD	0e8H
	DD	00H
	DD	05H
CONST	ENDS
;	COMDAT xdata
xdata	SEGMENT
$unwind$?_Getcont@_Iterator_base12@std@@QEBAPEBU_Container_base12@2@XZ DD 025053519H
	DD	010e2313H
	DD	070070021H
	DD	05006H
	DD	imagerel __CxxFrameHandler3
	DD	imagerel $cppxdata$?_Getcont@_Iterator_base12@std@@QEBAPEBU_Container_base12@2@XZ
xdata	ENDS
;	COMDAT xdata
xdata	SEGMENT
$ip2state$?_Clrcont@_Iterator_base12@std@@QEAAXXZ DD imagerel ?_Clrcont@_Iterator_base12@std@@QEAAXXZ
	DD	0ffffffffH
xdata	ENDS
;	COMDAT CONST
CONST	SEGMENT
$cppxdata$?_Clrcont@_Iterator_base12@std@@QEAAXXZ DD 019930522H
	DD	00H
	DD	00H
	DD	00H
	DD	00H
	DD	01H
	DD	imagerel $ip2state$?_Clrcont@_Iterator_base12@std@@QEAAXXZ
	DD	0e8H
	DD	00H
	DD	05H
CONST	ENDS
;	COMDAT xdata
xdata	SEGMENT
$unwind$?_Clrcont@_Iterator_base12@std@@QEAAXXZ DD 025053519H
	DD	010e2313H
	DD	070070021H
	DD	05006H
	DD	imagerel __CxxFrameHandler3
	DD	imagerel $cppxdata$?_Clrcont@_Iterator_base12@std@@QEAAXXZ
xdata	ENDS
;	COMDAT xdata
xdata	SEGMENT
$ip2state$?_Adopt@_Iterator_base12@std@@QEAAXPEBU_Container_base12@2@@Z DD imagerel ?_Adopt@_Iterator_base12@std@@QEAAXPEBU_Container_base12@2@@Z
	DD	0ffffffffH
xdata	ENDS
;	COMDAT xdata
xdata	SEGMENT
$unwind$?_Adopt@_Iterator_base12@std@@QEAAXPEBU_Container_base12@2@@Z DD 025054b19H
	DD	01132318H
	DD	0700c002dH
	DD	0500bH
	DD	imagerel __GSHandlerCheck_EH
	DD	imagerel $cppxdata$?_Adopt@_Iterator_base12@std@@QEAAXPEBU_Container_base12@2@@Z
	DD	015bH
xdata	ENDS
;	COMDAT CONST
CONST	SEGMENT
?_Adopt@_Iterator_base12@std@@QEAAXPEBU_Container_base12@2@@Z$rtcName$0 DB 05fH ; std::_Iterator_base12::_Adopt
	DB	04cH
	DB	06fH
	DB	063H
	DB	06bH
	DB	00H
	ORG $+2
?_Adopt@_Iterator_base12@std@@QEAAXPEBU_Container_base12@2@@Z$rtcName$1 DB 05fH ; std::_Iterator_base12::_Adopt
	DB	04cH
	DB	06fH
	DB	063H
	DB	06bH
	DB	00H
	ORG $+2
?_Adopt@_Iterator_base12@std@@QEAAXPEBU_Container_base12@2@@Z$rtcVarDesc DD 064H ; std::_Iterator_base12::_Adopt
	DD	04H
	DQ	FLAT:?_Adopt@_Iterator_base12@std@@QEAAXPEBU_Container_base12@2@@Z$rtcName$1
	DD	024H
	DD	04H
	DQ	FLAT:?_Adopt@_Iterator_base12@std@@QEAAXPEBU_Container_base12@2@@Z$rtcName$0
	ORG $+96
?_Adopt@_Iterator_base12@std@@QEAAXPEBU_Container_base12@2@@Z$rtcFrameData DD 02H ; std::_Iterator_base12::_Adopt
	DD	00H
	DQ	FLAT:?_Adopt@_Iterator_base12@std@@QEAAXPEBU_Container_base12@2@@Z$rtcVarDesc
$cppxdata$?_Adopt@_Iterator_base12@std@@QEAAXPEBU_Container_base12@2@@Z DD 019930522H
	DD	00H
	DD	00H
	DD	00H
	DD	00H
	DD	01H
	DD	imagerel $ip2state$?_Adopt@_Iterator_base12@std@@QEAAXPEBU_Container_base12@2@@Z
	DD	0148H
	DD	00H
	DD	05H
CONST	ENDS
;	COMDAT xdata
xdata	SEGMENT
$ip2state$??1_Iterator_base12@std@@QEAA@XZ DD imagerel ??1_Iterator_base12@std@@QEAA@XZ
	DD	0ffffffffH
xdata	ENDS
;	COMDAT xdata
xdata	SEGMENT
$unwind$??1_Iterator_base12@std@@QEAA@XZ DD 025054619H
	DD	010e2313H
	DD	070070025H
	DD	05006H
	DD	imagerel __GSHandlerCheck_EH
	DD	imagerel $cppxdata$??1_Iterator_base12@std@@QEAA@XZ
	DD	011bH
xdata	ENDS
;	COMDAT CONST
CONST	SEGMENT
??1_Iterator_base12@std@@QEAA@XZ$rtcName$0 DB 05fH	; std::_Iterator_base12::~_Iterator_base12
	DB	04cH
	DB	06fH
	DB	063H
	DB	06bH
	DB	00H
	ORG $+10
??1_Iterator_base12@std@@QEAA@XZ$rtcVarDesc DD 024H	; std::_Iterator_base12::~_Iterator_base12
	DD	04H
	DQ	FLAT:??1_Iterator_base12@std@@QEAA@XZ$rtcName$0
	ORG $+48
??1_Iterator_base12@std@@QEAA@XZ$rtcFrameData DD 01H	; std::_Iterator_base12::~_Iterator_base12
	DD	00H
	DQ	FLAT:??1_Iterator_base12@std@@QEAA@XZ$rtcVarDesc
$cppxdata$??1_Iterator_base12@std@@QEAA@XZ DD 019930522H
	DD	00H
	DD	00H
	DD	00H
	DD	00H
	DD	01H
	DD	imagerel $ip2state$??1_Iterator_base12@std@@QEAA@XZ
	DD	0108H
	DD	00H
	DD	05H
CONST	ENDS
;	COMDAT xdata
xdata	SEGMENT
$ip2state$??4_Iterator_base12@std@@QEAAAEAU01@AEBU01@@Z DD imagerel ??4_Iterator_base12@std@@QEAAAEAU01@AEBU01@@Z
	DD	0ffffffffH
xdata	ENDS
;	COMDAT xdata
xdata	SEGMENT
$unwind$??4_Iterator_base12@std@@QEAAAEAU01@AEBU01@@Z DD 025054b19H
	DD	01132318H
	DD	0700c0025H
	DD	0500bH
	DD	imagerel __GSHandlerCheck_EH
	DD	imagerel $cppxdata$??4_Iterator_base12@std@@QEAAAEAU01@AEBU01@@Z
	DD	011bH
xdata	ENDS
;	COMDAT CONST
CONST	SEGMENT
??4_Iterator_base12@std@@QEAAAEAU01@AEBU01@@Z$rtcName$0 DB 05fH ; std::_Iterator_base12::operator=
	DB	04cH
	DB	06fH
	DB	063H
	DB	06bH
	DB	00H
	ORG $+10
??4_Iterator_base12@std@@QEAAAEAU01@AEBU01@@Z$rtcVarDesc DD 024H ; std::_Iterator_base12::operator=
	DD	04H
	DQ	FLAT:??4_Iterator_base12@std@@QEAAAEAU01@AEBU01@@Z$rtcName$0
	ORG $+48
??4_Iterator_base12@std@@QEAAAEAU01@AEBU01@@Z$rtcFrameData DD 01H ; std::_Iterator_base12::operator=
	DD	00H
	DQ	FLAT:??4_Iterator_base12@std@@QEAAAEAU01@AEBU01@@Z$rtcVarDesc
$cppxdata$??4_Iterator_base12@std@@QEAAAEAU01@AEBU01@@Z DD 019930522H
	DD	00H
	DD	00H
	DD	00H
	DD	00H
	DD	01H
	DD	imagerel $ip2state$??4_Iterator_base12@std@@QEAAAEAU01@AEBU01@@Z
	DD	0108H
	DD	00H
	DD	05H
CONST	ENDS
;	COMDAT xdata
xdata	SEGMENT
$ip2state$??0_Iterator_base12@std@@QEAA@AEBU01@@Z DD imagerel ??0_Iterator_base12@std@@QEAA@AEBU01@@Z
	DD	0ffffffffH
xdata	ENDS
;	COMDAT CONST
CONST	SEGMENT
$cppxdata$??0_Iterator_base12@std@@QEAA@AEBU01@@Z DD 019930522H
	DD	00H
	DD	00H
	DD	00H
	DD	00H
	DD	01H
	DD	imagerel $ip2state$??0_Iterator_base12@std@@QEAA@AEBU01@@Z
	DD	0e8H
	DD	00H
	DD	05H
CONST	ENDS
;	COMDAT xdata
xdata	SEGMENT
$unwind$??0_Iterator_base12@std@@QEAA@AEBU01@@Z DD 025053a19H
	DD	01132318H
	DD	0700c0021H
	DD	0500bH
	DD	imagerel __CxxFrameHandler3
	DD	imagerel $cppxdata$??0_Iterator_base12@std@@QEAA@AEBU01@@Z
xdata	ENDS
;	COMDAT xdata
xdata	SEGMENT
$ip2state$??0_Iterator_base12@std@@QEAA@XZ DD imagerel ??0_Iterator_base12@std@@QEAA@XZ
	DD	0ffffffffH
xdata	ENDS
;	COMDAT CONST
CONST	SEGMENT
$cppxdata$??0_Iterator_base12@std@@QEAA@XZ DD 019930522H
	DD	00H
	DD	00H
	DD	00H
	DD	00H
	DD	01H
	DD	imagerel $ip2state$??0_Iterator_base12@std@@QEAA@XZ
	DD	0e8H
	DD	00H
	DD	05H
CONST	ENDS
;	COMDAT xdata
xdata	SEGMENT
$unwind$??0_Iterator_base12@std@@QEAA@XZ DD 025053519H
	DD	010e2313H
	DD	070070021H
	DD	05006H
	DD	imagerel __CxxFrameHandler3
	DD	imagerel $cppxdata$??0_Iterator_base12@std@@QEAA@XZ
xdata	ENDS
;	COMDAT xdata
xdata	SEGMENT
$ip2state$?_Orphan_all@_Container_base12@std@@QEAAXXZ DD imagerel ?_Orphan_all@_Container_base12@std@@QEAAXXZ
	DD	0ffffffffH
xdata	ENDS
;	COMDAT xdata
xdata	SEGMENT
$unwind$?_Orphan_all@_Container_base12@std@@QEAAXXZ DD 025054619H
	DD	010e2313H
	DD	070070029H
	DD	05006H
	DD	imagerel __GSHandlerCheck_EH
	DD	imagerel $cppxdata$?_Orphan_all@_Container_base12@std@@QEAAXXZ
	DD	013bH
xdata	ENDS
;	COMDAT CONST
CONST	SEGMENT
?_Orphan_all@_Container_base12@std@@QEAAXXZ$rtcName$0 DB 05fH ; std::_Container_base12::_Orphan_all
	DB	04cH
	DB	06fH
	DB	063H
	DB	06bH
	DB	00H
	ORG $+10
?_Orphan_all@_Container_base12@std@@QEAAXXZ$rtcVarDesc DD 024H ; std::_Container_base12::_Orphan_all
	DD	04H
	DQ	FLAT:?_Orphan_all@_Container_base12@std@@QEAAXXZ$rtcName$0
	ORG $+48
?_Orphan_all@_Container_base12@std@@QEAAXXZ$rtcFrameData DD 01H ; std::_Container_base12::_Orphan_all
	DD	00H
	DQ	FLAT:?_Orphan_all@_Container_base12@std@@QEAAXXZ$rtcVarDesc
$cppxdata$?_Orphan_all@_Container_base12@std@@QEAAXXZ DD 019930522H
	DD	00H
	DD	00H
	DD	00H
	DD	00H
	DD	01H
	DD	imagerel $ip2state$?_Orphan_all@_Container_base12@std@@QEAAXXZ
	DD	0128H
	DD	00H
	DD	05H
CONST	ENDS
;	COMDAT xdata
xdata	SEGMENT
$ip2state$?_Getpfirst@_Container_base12@std@@QEBAPEAPEAU_Iterator_base12@2@XZ DD imagerel ?_Getpfirst@_Container_base12@std@@QEBAPEAPEAU_Iterator_base12@2@XZ
	DD	0ffffffffH
xdata	ENDS
;	COMDAT CONST
CONST	SEGMENT
$cppxdata$?_Getpfirst@_Container_base12@std@@QEBAPEAPEAU_Iterator_base12@2@XZ DD 019930522H
	DD	00H
	DD	00H
	DD	00H
	DD	00H
	DD	01H
	DD	imagerel $ip2state$?_Getpfirst@_Container_base12@std@@QEBAPEAPEAU_Iterator_base12@2@XZ
	DD	0e8H
	DD	00H
	DD	05H
CONST	ENDS
;	COMDAT xdata
xdata	SEGMENT
$unwind$?_Getpfirst@_Container_base12@std@@QEBAPEAPEAU_Iterator_base12@2@XZ DD 025053519H
	DD	010e2313H
	DD	070070021H
	DD	05006H
	DD	imagerel __CxxFrameHandler3
	DD	imagerel $cppxdata$?_Getpfirst@_Container_base12@std@@QEBAPEAPEAU_Iterator_base12@2@XZ
xdata	ENDS
;	COMDAT xdata
xdata	SEGMENT
$unwind$??0_Container_base12@std@@QEAA@XZ DD 025052a01H
	DD	010e2313H
	DD	07007001dH
	DD	05006H
xdata	ENDS
;	COMDAT xdata
xdata	SEGMENT
$ip2state$??0_Container_proxy@std@@QEAA@XZ DD imagerel ??0_Container_proxy@std@@QEAA@XZ
	DD	0ffffffffH
xdata	ENDS
;	COMDAT CONST
CONST	SEGMENT
$cppxdata$??0_Container_proxy@std@@QEAA@XZ DD 019930522H
	DD	00H
	DD	00H
	DD	00H
	DD	00H
	DD	01H
	DD	imagerel $ip2state$??0_Container_proxy@std@@QEAA@XZ
	DD	0e8H
	DD	00H
	DD	05H
CONST	ENDS
;	COMDAT xdata
xdata	SEGMENT
$unwind$??0_Container_proxy@std@@QEAA@XZ DD 025053519H
	DD	010e2313H
	DD	070070021H
	DD	05006H
	DD	imagerel __CxxFrameHandler3
	DD	imagerel $cppxdata$??0_Container_proxy@std@@QEAA@XZ
xdata	ENDS
;	COMDAT xdata
xdata	SEGMENT
$ip2state$?eof@?$char_traits@D@std@@SAHXZ DD imagerel ?eof@?$char_traits@D@std@@SAHXZ
	DD	0ffffffffH
xdata	ENDS
;	COMDAT CONST
CONST	SEGMENT
$cppxdata$?eof@?$char_traits@D@std@@SAHXZ DD 019930522H
	DD	00H
	DD	00H
	DD	00H
	DD	00H
	DD	01H
	DD	imagerel $ip2state$?eof@?$char_traits@D@std@@SAHXZ
	DD	0e8H
	DD	00H
	DD	05H
CONST	ENDS
;	COMDAT xdata
xdata	SEGMENT
$unwind$?eof@?$char_traits@D@std@@SAHXZ DD 025052919H
	DD	010a230fH
	DD	070030021H
	DD	05002H
	DD	imagerel __CxxFrameHandler3
	DD	imagerel $cppxdata$?eof@?$char_traits@D@std@@SAHXZ
xdata	ENDS
;	COMDAT xdata
xdata	SEGMENT
$ip2state$?eq_int_type@?$char_traits@D@std@@SA_NAEBH0@Z DD imagerel ?eq_int_type@?$char_traits@D@std@@SA_NAEBH0@Z
	DD	0ffffffffH
xdata	ENDS
;	COMDAT CONST
CONST	SEGMENT
$cppxdata$?eq_int_type@?$char_traits@D@std@@SA_NAEBH0@Z DD 019930522H
	DD	00H
	DD	00H
	DD	00H
	DD	00H
	DD	01H
	DD	imagerel $ip2state$?eq_int_type@?$char_traits@D@std@@SA_NAEBH0@Z
	DD	0e8H
	DD	00H
	DD	05H
CONST	ENDS
;	COMDAT xdata
xdata	SEGMENT
$unwind$?eq_int_type@?$char_traits@D@std@@SA_NAEBH0@Z DD 025053a19H
	DD	01132318H
	DD	0700c0021H
	DD	0500bH
	DD	imagerel __CxxFrameHandler3
	DD	imagerel $cppxdata$?eq_int_type@?$char_traits@D@std@@SA_NAEBH0@Z
xdata	ENDS
;	COMDAT xdata
xdata	SEGMENT
$ip2state$?length@?$char_traits@D@std@@SA_KQEBD@Z DD imagerel ?length@?$char_traits@D@std@@SA_KQEBD@Z
	DD	0ffffffffH
xdata	ENDS
;	COMDAT CONST
CONST	SEGMENT
$cppxdata$?length@?$char_traits@D@std@@SA_KQEBD@Z DD 019930522H
	DD	00H
	DD	00H
	DD	00H
	DD	00H
	DD	01H
	DD	imagerel $ip2state$?length@?$char_traits@D@std@@SA_KQEBD@Z
	DD	0e8H
	DD	00H
	DD	05H
CONST	ENDS
;	COMDAT xdata
xdata	SEGMENT
$unwind$?length@?$char_traits@D@std@@SA_KQEBD@Z DD 025053519H
	DD	010e2313H
	DD	070070021H
	DD	05006H
	DD	imagerel __CxxFrameHandler3
	DD	imagerel $cppxdata$?length@?$char_traits@D@std@@SA_KQEBD@Z
xdata	ENDS
;	COMDAT xdata
xdata	SEGMENT
$ip2state$?max@?$numeric_limits@_J@std@@SA_JXZ DD imagerel ?max@?$numeric_limits@_J@std@@SA_JXZ
	DD	0ffffffffH
xdata	ENDS
;	COMDAT CONST
CONST	SEGMENT
$cppxdata$?max@?$numeric_limits@_J@std@@SA_JXZ DD 019930522H
	DD	00H
	DD	00H
	DD	00H
	DD	00H
	DD	01H
	DD	imagerel $ip2state$?max@?$numeric_limits@_J@std@@SA_JXZ
	DD	0e8H
	DD	00H
	DD	05H
CONST	ENDS
;	COMDAT xdata
xdata	SEGMENT
$unwind$?max@?$numeric_limits@_J@std@@SA_JXZ DD 025052919H
	DD	010a230fH
	DD	070030021H
	DD	05002H
	DD	imagerel __CxxFrameHandler3
	DD	imagerel $cppxdata$?max@?$numeric_limits@_J@std@@SA_JXZ
xdata	ENDS
;	COMDAT xdata
xdata	SEGMENT
$ip2state$??2@YAPEAX_KPEAX@Z DD imagerel ??2@YAPEAX_KPEAX@Z
	DD	0ffffffffH
xdata	ENDS
;	COMDAT CONST
CONST	SEGMENT
$cppxdata$??2@YAPEAX_KPEAX@Z DD 019930522H
	DD	00H
	DD	00H
	DD	00H
	DD	00H
	DD	01H
	DD	imagerel $ip2state$??2@YAPEAX_KPEAX@Z
	DD	0e8H
	DD	00H
	DD	05H
CONST	ENDS
;	COMDAT xdata
xdata	SEGMENT
$unwind$??2@YAPEAX_KPEAX@Z DD 025053a19H
	DD	01132318H
	DD	0700c0021H
	DD	0500bH
	DD	imagerel __CxxFrameHandler3
	DD	imagerel $cppxdata$??2@YAPEAX_KPEAX@Z
xdata	ENDS
;	COMDAT xdata
xdata	SEGMENT
$unwind$?__empty_global_delete@@YAXPEAX_K@Z DD 025052f01H
	DD	01132318H
	DD	0700c001dH
	DD	0500bH
xdata	ENDS
;	COMDAT xdata
xdata	SEGMENT
$unwind$?__empty_global_delete@@YAXPEAX@Z DD 025052a01H
	DD	010e2313H
	DD	07007001dH
	DD	05006H
xdata	ENDS
; Function compile flags: /Odt
;	COMDAT __JustMyCode_Default
_TEXT	SEGMENT
__JustMyCode_Default PROC				; COMDAT
	ret	0
__JustMyCode_Default ENDP
_TEXT	ENDS
; Function compile flags: /Odtp /RTCsu /ZI
; File c:\program files (x86)\microsoft visual studio\2017\community\vc\tools\msvc\14.16.27023\include\xutility
;	COMDAT ??$_Seek_wrapped@PEAVbus_device@@@std@@YAXAEAPEAPEAVbus_device@@QEAPEAV1@@Z
_TEXT	SEGMENT
_It$ = 224
_UIt$ = 232
??$_Seek_wrapped@PEAVbus_device@@@std@@YAXAEAPEAPEAVbus_device@@QEAPEAV1@@Z PROC ; std::_Seek_wrapped<bus_device *>, COMDAT

; 871  : 	{

$LN3:
	mov	QWORD PTR [rsp+16], rdx
	mov	QWORD PTR [rsp+8], rcx
	push	rbp
	push	rdi
	sub	rsp, 232				; 000000e8H
	lea	rbp, QWORD PTR [rsp+32]
	mov	rdi, rsp
	mov	ecx, 58					; 0000003aH
	mov	eax, -858993460				; ccccccccH
	rep stosd
	mov	rcx, QWORD PTR [rsp+264]
	lea	rcx, OFFSET FLAT:__CDB00636_xutility
	call	__CheckForDebuggerJustMyCode

; 872  : 	_It = _UIt;

	mov	rax, QWORD PTR _It$[rbp]
	mov	rcx, QWORD PTR _UIt$[rbp]
	mov	QWORD PTR [rax], rcx

; 873  : 	}

	lea	rsp, QWORD PTR [rbp+200]
	pop	rdi
	pop	rbp
	ret	0
??$_Seek_wrapped@PEAVbus_device@@@std@@YAXAEAPEAPEAVbus_device@@QEAPEAV1@@Z ENDP ; std::_Seek_wrapped<bus_device *>
_TEXT	ENDS
; Function compile flags: /Odtp /RTCsu /ZI
; File c:\program files (x86)\microsoft visual studio\2017\community\vc\tools\msvc\14.16.27023\include\xmemory
;	COMDAT ??$_Uninitialized_move_al_unchecked@PEAVbus_device@@PEAV1@V?$allocator@PEAVbus_device@@@std@@@std@@YAPEAPEAVbus_device@@QEAPEAV1@00AEAV?$allocator@PEAVbus_device@@@0@U_Really_trivial_ptr_iterator_tag@0@U?$integral_constant@_N$00@0@@Z
_TEXT	SEGMENT
_First$ = 224
_Last$ = 232
_Dest$ = 240
__formal$ = 248
__formal$ = 256
__formal$ = 264
??$_Uninitialized_move_al_unchecked@PEAVbus_device@@PEAV1@V?$allocator@PEAVbus_device@@@std@@@std@@YAPEAPEAVbus_device@@QEAPEAV1@00AEAV?$allocator@PEAVbus_device@@@0@U_Really_trivial_ptr_iterator_tag@0@U?$integral_constant@_N$00@0@@Z PROC ; std::_Uninitialized_move_al_unchecked<bus_device *,bus_device *,std::allocator<bus_device *> >, COMDAT

; 243  : 	{	// move [_First, _Last) to raw _Dest, using default _Alloc construct, memmove optimization

$LN3:
	mov	QWORD PTR [rsp+32], r9
	mov	QWORD PTR [rsp+24], r8
	mov	QWORD PTR [rsp+16], rdx
	mov	QWORD PTR [rsp+8], rcx
	push	rbp
	push	rdi
	sub	rsp, 232				; 000000e8H
	lea	rbp, QWORD PTR [rsp+32]
	mov	rdi, rsp
	mov	ecx, 58					; 0000003aH
	mov	eax, -858993460				; ccccccccH
	rep stosd
	mov	rcx, QWORD PTR [rsp+264]
	lea	rcx, OFFSET FLAT:__8FA60561_xmemory
	call	__CheckForDebuggerJustMyCode

; 244  : 	return (_Copy_memmove(_First, _Last, _Dest));

	mov	r8, QWORD PTR _Dest$[rbp]
	mov	rdx, QWORD PTR _Last$[rbp]
	mov	rcx, QWORD PTR _First$[rbp]
	call	??$_Copy_memmove@PEAPEAVbus_device@@PEAPEAV1@@std@@YAPEAPEAVbus_device@@PEAPEAV1@00@Z ; std::_Copy_memmove<bus_device * *,bus_device * *>

; 245  : 	}

	lea	rsp, QWORD PTR [rbp+200]
	pop	rdi
	pop	rbp
	ret	0
??$_Uninitialized_move_al_unchecked@PEAVbus_device@@PEAV1@V?$allocator@PEAVbus_device@@@std@@@std@@YAPEAPEAVbus_device@@QEAPEAV1@00AEAV?$allocator@PEAVbus_device@@@0@U_Really_trivial_ptr_iterator_tag@0@U?$integral_constant@_N$00@0@@Z ENDP ; std::_Uninitialized_move_al_unchecked<bus_device *,bus_device *,std::allocator<bus_device *> >
_TEXT	ENDS
; Function compile flags: /Odtp /RTCsu /ZI
; File c:\program files (x86)\microsoft visual studio\2017\community\vc\tools\msvc\14.16.27023\include\xutility
;	COMDAT ??$_Get_unwrapped_n@PEAVbus_device@@_J$0A@@std@@YAPEAPEAVbus_device@@QEAPEAV1@_J@Z
_TEXT	SEGMENT
_Src$ = 224
__formal$ = 232
??$_Get_unwrapped_n@PEAVbus_device@@_J$0A@@std@@YAPEAPEAVbus_device@@QEAPEAV1@_J@Z PROC ; std::_Get_unwrapped_n<bus_device *,__int64,0>, COMDAT

; 808  : 	{

$LN3:
	mov	QWORD PTR [rsp+16], rdx
	mov	QWORD PTR [rsp+8], rcx
	push	rbp
	push	rdi
	sub	rsp, 232				; 000000e8H
	lea	rbp, QWORD PTR [rsp+32]
	mov	rdi, rsp
	mov	ecx, 58					; 0000003aH
	mov	eax, -858993460				; ccccccccH
	rep stosd
	mov	rcx, QWORD PTR [rsp+264]
	lea	rcx, OFFSET FLAT:__CDB00636_xutility
	call	__CheckForDebuggerJustMyCode

; 809  : 	return (_Src);

	mov	rax, QWORD PTR _Src$[rbp]

; 810  : 	}

	lea	rsp, QWORD PTR [rbp+200]
	pop	rdi
	pop	rbp
	ret	0
??$_Get_unwrapped_n@PEAVbus_device@@_J$0A@@std@@YAPEAPEAVbus_device@@QEAPEAV1@_J@Z ENDP ; std::_Get_unwrapped_n<bus_device *,__int64,0>
_TEXT	ENDS
; Function compile flags: /Odtp /RTCsu /ZI
; File c:\program files (x86)\microsoft visual studio\2017\community\vc\tools\msvc\14.16.27023\include\xutility
;	COMDAT ??$_Idl_distance1@PEAPEAVbus_device@@PEAPEAV1@@std@@YA_JAEBQEAPEAVbus_device@@0Urandom_access_iterator_tag@0@@Z
_TEXT	SEGMENT
_First$ = 224
_Last$ = 232
__formal$ = 240
??$_Idl_distance1@PEAPEAVbus_device@@PEAPEAV1@@std@@YA_JAEBQEAPEAVbus_device@@0Urandom_access_iterator_tag@0@@Z PROC ; std::_Idl_distance1<bus_device * *,bus_device * *>, COMDAT

; 967  : 	{	// _Idl_distance for random-access iterators

$LN3:
	mov	BYTE PTR [rsp+24], r8b
	mov	QWORD PTR [rsp+16], rdx
	mov	QWORD PTR [rsp+8], rcx
	push	rbp
	push	rdi
	sub	rsp, 232				; 000000e8H
	lea	rbp, QWORD PTR [rsp+32]
	mov	rdi, rsp
	mov	ecx, 58					; 0000003aH
	mov	eax, -858993460				; ccccccccH
	rep stosd
	mov	rcx, QWORD PTR [rsp+264]
	lea	rcx, OFFSET FLAT:__CDB00636_xutility
	call	__CheckForDebuggerJustMyCode

; 968  : 	return (static_cast<_Iter_diff_t<_Checked>>(_Last - _First));

	mov	rax, QWORD PTR _Last$[rbp]
	mov	rcx, QWORD PTR _First$[rbp]
	mov	rcx, QWORD PTR [rcx]
	mov	rax, QWORD PTR [rax]
	sub	rax, rcx
	sar	rax, 3

; 969  : 	}

	lea	rsp, QWORD PTR [rbp+200]
	pop	rdi
	pop	rbp
	ret	0
??$_Idl_distance1@PEAPEAVbus_device@@PEAPEAV1@@std@@YA_JAEBQEAPEAVbus_device@@0Urandom_access_iterator_tag@0@@Z ENDP ; std::_Idl_distance1<bus_device * *,bus_device * *>
_TEXT	ENDS
; Function compile flags: /Odtp /RTCsu /ZI
; File c:\program files (x86)\microsoft visual studio\2017\community\vc\tools\msvc\14.16.27023\include\xutility
;	COMDAT ??$_Idl_distance@PEAPEAVbus_device@@PEAPEAV1@@std@@YA@AEBQEAPEAVbus_device@@0@Z
_TEXT	SEGMENT
$T1 = 196
_First$ = 256
_Last$ = 264
??$_Idl_distance@PEAPEAVbus_device@@PEAPEAV1@@std@@YA@AEBQEAPEAVbus_device@@0@Z PROC ; std::_Idl_distance<bus_device * *,bus_device * *>, COMDAT

; 974  : 	{	// tries to get the distance between _First and _Last if they are random-access iterators

$LN3:
	mov	QWORD PTR [rsp+16], rdx
	mov	QWORD PTR [rsp+8], rcx
	push	rbp
	push	rdi
	sub	rsp, 264				; 00000108H
	lea	rbp, QWORD PTR [rsp+32]
	mov	rdi, rsp
	mov	ecx, 66					; 00000042H
	mov	eax, -858993460				; ccccccccH
	rep stosd
	mov	rcx, QWORD PTR [rsp+296]
	lea	rcx, OFFSET FLAT:__CDB00636_xutility
	call	__CheckForDebuggerJustMyCode

; 975  : 	return (_Idl_distance1<_Checked>(_First, _Last, _Iter_cat_t<_Iter>()));

	movzx	r8d, BYTE PTR $T1[rbp]
	mov	rdx, QWORD PTR _Last$[rbp]
	mov	rcx, QWORD PTR _First$[rbp]
	call	??$_Idl_distance1@PEAPEAVbus_device@@PEAPEAV1@@std@@YA_JAEBQEAPEAVbus_device@@0Urandom_access_iterator_tag@0@@Z ; std::_Idl_distance1<bus_device * *,bus_device * *>

; 976  : 	}

	lea	rsp, QWORD PTR [rbp+232]
	pop	rdi
	pop	rbp
	ret	0
??$_Idl_distance@PEAPEAVbus_device@@PEAPEAV1@@std@@YA@AEBQEAPEAVbus_device@@0@Z ENDP ; std::_Idl_distance<bus_device * *,bus_device * *>
_TEXT	ENDS
; Function compile flags: /Odtp /RTCsu /ZI
; File c:\program files (x86)\microsoft visual studio\2017\community\vc\tools\msvc\14.16.27023\include\xutility
;	COMDAT ??$_Get_unwrapped@PEAVbus_device@@@std@@YAPEAPEAVbus_device@@QEAPEAV1@@Z
_TEXT	SEGMENT
_Ptr$ = 224
??$_Get_unwrapped@PEAVbus_device@@@std@@YAPEAPEAVbus_device@@QEAPEAV1@@Z PROC ; std::_Get_unwrapped<bus_device *>, COMDAT

; 662  : 	{	// special case already-unwrapped pointers

$LN3:
	mov	QWORD PTR [rsp+8], rcx
	push	rbp
	push	rdi
	sub	rsp, 232				; 000000e8H
	lea	rbp, QWORD PTR [rsp+32]
	mov	rdi, rsp
	mov	ecx, 58					; 0000003aH
	mov	eax, -858993460				; ccccccccH
	rep stosd
	mov	rcx, QWORD PTR [rsp+264]
	lea	rcx, OFFSET FLAT:__CDB00636_xutility
	call	__CheckForDebuggerJustMyCode

; 663  : 	return (_Ptr);

	mov	rax, QWORD PTR _Ptr$[rbp]

; 664  : 	}

	lea	rsp, QWORD PTR [rbp+200]
	pop	rdi
	pop	rbp
	ret	0
??$_Get_unwrapped@PEAVbus_device@@@std@@YAPEAPEAVbus_device@@QEAPEAV1@@Z ENDP ; std::_Get_unwrapped<bus_device *>
_TEXT	ENDS
; Function compile flags: /Odtp /RTCsu /ZI
; File c:\program files (x86)\microsoft visual studio\2017\community\vc\tools\msvc\14.16.27023\include\xutility
;	COMDAT ??$_Copy_memmove@PEAPEAVbus_device@@PEAPEAV1@@std@@YAPEAPEAVbus_device@@PEAPEAV1@00@Z
_TEXT	SEGMENT
_First_ch$ = 8
_Last_ch$ = 40
_Dest_ch$ = 72
_Count$ = 104
_First$ = 352
_Last$ = 360
_Dest$ = 368
??$_Copy_memmove@PEAPEAVbus_device@@PEAPEAV1@@std@@YAPEAPEAVbus_device@@PEAPEAV1@00@Z PROC ; std::_Copy_memmove<bus_device * *,bus_device * *>, COMDAT

; 2398 : 	{	// implement copy-like function as memmove

$LN3:
	mov	QWORD PTR [rsp+24], r8
	mov	QWORD PTR [rsp+16], rdx
	mov	QWORD PTR [rsp+8], rcx
	push	rbp
	push	rdi
	sub	rsp, 360				; 00000168H
	lea	rbp, QWORD PTR [rsp+32]
	mov	rdi, rsp
	mov	ecx, 90					; 0000005aH
	mov	eax, -858993460				; ccccccccH
	rep stosd
	mov	rcx, QWORD PTR [rsp+392]
	lea	rcx, OFFSET FLAT:__CDB00636_xutility
	call	__CheckForDebuggerJustMyCode

; 2399 : 	const char * const _First_ch = const_cast<const char *>(reinterpret_cast<const volatile char *>(_First));

	mov	rax, QWORD PTR _First$[rbp]
	mov	QWORD PTR _First_ch$[rbp], rax

; 2400 : 	const char * const _Last_ch = const_cast<const char *>(reinterpret_cast<const volatile char *>(_Last));

	mov	rax, QWORD PTR _Last$[rbp]
	mov	QWORD PTR _Last_ch$[rbp], rax

; 2401 : 	char * const _Dest_ch = const_cast<char *>(reinterpret_cast<volatile char *>(_Dest));

	mov	rax, QWORD PTR _Dest$[rbp]
	mov	QWORD PTR _Dest_ch$[rbp], rax

; 2402 : 	const auto _Count = static_cast<size_t>(_Last_ch - _First_ch);

	mov	rax, QWORD PTR _First_ch$[rbp]
	mov	rcx, QWORD PTR _Last_ch$[rbp]
	sub	rcx, rax
	mov	rax, rcx
	mov	QWORD PTR _Count$[rbp], rax

; 2403 : 	_CSTD memmove(_Dest_ch, _First_ch, _Count);

	mov	r8, QWORD PTR _Count$[rbp]
	mov	rdx, QWORD PTR _First_ch$[rbp]
	mov	rcx, QWORD PTR _Dest_ch$[rbp]
	call	memmove

; 2404 : 	return (reinterpret_cast<_OutIt>(_Dest_ch + _Count));

	mov	rax, QWORD PTR _Count$[rbp]
	mov	rcx, QWORD PTR _Dest_ch$[rbp]
	add	rcx, rax
	mov	rax, rcx

; 2405 : 	}

	lea	rsp, QWORD PTR [rbp+328]
	pop	rdi
	pop	rbp
	ret	0
??$_Copy_memmove@PEAPEAVbus_device@@PEAPEAV1@@std@@YAPEAPEAVbus_device@@PEAPEAV1@00@Z ENDP ; std::_Copy_memmove<bus_device * *,bus_device * *>
_TEXT	ENDS
; Function compile flags: /Odtp /RTCsu /ZI
; File c:\program files (x86)\microsoft visual studio\2017\community\vc\tools\msvc\14.16.27023\include\xmemory0
;	COMDAT ??$_Get_size_of_n@$07@std@@YA_K_K@Z
_TEXT	SEGMENT
_Max_possible$ = 8
_Result$ = 40
_Count$ = 288
??$_Get_size_of_n@$07@std@@YA_K_K@Z PROC		; std::_Get_size_of_n<8>, COMDAT

; 23   : 	{	// gets the size of _Count copies of a type sized _Ty_size

$LN4:
	mov	QWORD PTR [rsp+8], rcx
	push	rbp
	push	rdi
	sub	rsp, 296				; 00000128H
	lea	rbp, QWORD PTR [rsp+32]
	mov	rdi, rsp
	mov	ecx, 74					; 0000004aH
	mov	eax, -858993460				; ccccccccH
	rep stosd
	mov	rcx, QWORD PTR [rsp+328]
	lea	rcx, OFFSET FLAT:__1CE3C767_xmemory0
	call	__CheckForDebuggerJustMyCode

; 24   : 	constexpr size_t _Max_possible = static_cast<size_t>(-1) / _Ty_size;

	mov	rax, 2305843009213693951		; 1fffffffffffffffH
	mov	QWORD PTR _Max_possible$[rbp], rax

; 25   : 	size_t _Result = _Count * _Ty_size;

	mov	rax, QWORD PTR _Count$[rbp]
	shl	rax, 3
	mov	QWORD PTR _Result$[rbp], rax

; 26   : 	if (_Max_possible < _Count)

	mov	rax, 2305843009213693951		; 1fffffffffffffffH
	cmp	QWORD PTR _Count$[rbp], rax
	jbe	SHORT $LN2@Get_size_o

; 27   : 		{	// multiply overflow, try allocating all of memory and assume the
; 28   : 			// allocation function will throw bad_alloc
; 29   : 		_Result = static_cast<size_t>(-1);

	mov	QWORD PTR _Result$[rbp], -1
$LN2@Get_size_o:

; 30   : 		}
; 31   : 
; 32   : 	return (_Result);

	mov	rax, QWORD PTR _Result$[rbp]

; 33   : 	}

	lea	rsp, QWORD PTR [rbp+264]
	pop	rdi
	pop	rbp
	ret	0
??$_Get_size_of_n@$07@std@@YA_K_K@Z ENDP		; std::_Get_size_of_n<8>
_TEXT	ENDS
; Function compile flags: /Odtp /RTCsu /ZI
; File c:\program files (x86)\microsoft visual studio\2017\community\vc\tools\msvc\14.16.27023\include\xmemory
;	COMDAT ??$_Uninitialized_move@PEAPEAVbus_device@@PEAPEAV1@V?$allocator@PEAVbus_device@@@std@@@std@@YAPEAPEAVbus_device@@QEAPEAV1@0PEAPEAV1@AEAV?$allocator@PEAVbus_device@@@0@@Z
_TEXT	SEGMENT
_UFirst$ = 8
_ULast$ = 40
_UDest$ = 72
$T6 = 292
$T7 = 324
__$ArrayPad$ = 344
_First$ = 384
_Last$ = 392
_Dest$ = 400
_Al$ = 408
??$_Uninitialized_move@PEAPEAVbus_device@@PEAPEAV1@V?$allocator@PEAVbus_device@@@std@@@std@@YAPEAPEAVbus_device@@QEAPEAV1@0PEAPEAV1@AEAV?$allocator@PEAVbus_device@@@0@@Z PROC ; std::_Uninitialized_move<bus_device * *,bus_device * *,std::allocator<bus_device *> >, COMDAT

; 251  : 	{	// move [_First, _Last) to raw _Dest, using _Al

$LN3:
	mov	QWORD PTR [rsp+32], r9
	mov	QWORD PTR [rsp+24], r8
	mov	QWORD PTR [rsp+16], rdx
	mov	QWORD PTR [rsp+8], rcx
	push	rbp
	push	rdi
	sub	rsp, 408				; 00000198H
	lea	rbp, QWORD PTR [rsp+48]
	mov	rdi, rsp
	mov	ecx, 102				; 00000066H
	mov	eax, -858993460				; ccccccccH
	rep stosd
	mov	rcx, QWORD PTR [rsp+440]
	mov	rax, QWORD PTR __security_cookie
	xor	rax, rbp
	mov	QWORD PTR __$ArrayPad$[rbp], rax
	lea	rcx, OFFSET FLAT:__8FA60561_xmemory
	call	__CheckForDebuggerJustMyCode

; 252  : 		// note: only called internally from elsewhere in the STL
; 253  : 	const auto _UFirst = _Get_unwrapped(_First);

	mov	rcx, QWORD PTR _First$[rbp]
	call	??$_Get_unwrapped@PEAVbus_device@@@std@@YAPEAPEAVbus_device@@QEAPEAV1@@Z ; std::_Get_unwrapped<bus_device *>
	mov	QWORD PTR _UFirst$[rbp], rax

; 254  : 	const auto _ULast = _Get_unwrapped(_Last);

	mov	rcx, QWORD PTR _Last$[rbp]
	call	??$_Get_unwrapped@PEAVbus_device@@@std@@YAPEAPEAVbus_device@@QEAPEAV1@@Z ; std::_Get_unwrapped<bus_device *>
	mov	QWORD PTR _ULast$[rbp], rax

; 255  : 	const auto _UDest = _Get_unwrapped_n(_Dest, _Idl_distance<_InIt>(_UFirst, _ULast));

	lea	rdx, QWORD PTR _ULast$[rbp]
	lea	rcx, QWORD PTR _UFirst$[rbp]
	call	??$_Idl_distance@PEAPEAVbus_device@@PEAPEAV1@@std@@YA@AEBQEAPEAVbus_device@@0@Z ; std::_Idl_distance<bus_device * *,bus_device * *>
	mov	rdx, rax
	mov	rcx, QWORD PTR _Dest$[rbp]
	call	??$_Get_unwrapped_n@PEAVbus_device@@_J$0A@@std@@YAPEAPEAVbus_device@@QEAPEAV1@_J@Z ; std::_Get_unwrapped_n<bus_device *,__int64,0>
	mov	QWORD PTR _UDest$[rbp], rax

; 256  : 	_Seek_wrapped(_Dest,

	lea	r8, QWORD PTR _UDest$[rbp]
	lea	rdx, QWORD PTR _UFirst$[rbp]
	lea	rcx, QWORD PTR $T7[rbp]
	call	??$_Ptr_move_cat@PEAVbus_device@@PEAV1@@std@@YA?AU_Really_trivial_ptr_iterator_tag@0@AEBQEAPEAVbus_device@@0@Z ; std::_Ptr_move_cat<bus_device *,bus_device *>
	movzx	ecx, BYTE PTR $T6[rbp]
	mov	BYTE PTR [rsp+40], cl
	movzx	eax, BYTE PTR [rax]
	mov	BYTE PTR [rsp+32], al
	mov	r9, QWORD PTR _Al$[rbp]
	mov	r8, QWORD PTR _UDest$[rbp]
	mov	rdx, QWORD PTR _ULast$[rbp]
	mov	rcx, QWORD PTR _UFirst$[rbp]
	call	??$_Uninitialized_move_al_unchecked@PEAVbus_device@@PEAV1@V?$allocator@PEAVbus_device@@@std@@@std@@YAPEAPEAVbus_device@@QEAPEAV1@00AEAV?$allocator@PEAVbus_device@@@0@U_Really_trivial_ptr_iterator_tag@0@U?$integral_constant@_N$00@0@@Z ; std::_Uninitialized_move_al_unchecked<bus_device *,bus_device *,std::allocator<bus_device *> >
	mov	rdx, rax
	lea	rcx, QWORD PTR _Dest$[rbp]
	call	??$_Seek_wrapped@PEAVbus_device@@@std@@YAXAEAPEAPEAVbus_device@@QEAPEAV1@@Z ; std::_Seek_wrapped<bus_device *>

; 257  : 		_Uninitialized_move_al_unchecked(_UFirst, _ULast, _UDest, _Al,
; 258  : 			_Ptr_move_cat(_UFirst, _UDest),
; 259  : 			_Uses_default_construct_t<_Alloc, decltype(_Unfancy(_UDest)), decltype(_STD move(*_UFirst))>()));
; 260  : 	return (_Dest);

	mov	rax, QWORD PTR _Dest$[rbp]

; 261  : 	}

	mov	rdi, rax
	lea	rcx, QWORD PTR [rbp-48]
	lea	rdx, OFFSET FLAT:??$_Uninitialized_move@PEAPEAVbus_device@@PEAPEAV1@V?$allocator@PEAVbus_device@@@std@@@std@@YAPEAPEAVbus_device@@QEAPEAV1@0PEAPEAV1@AEAV?$allocator@PEAVbus_device@@@0@@Z$rtcFrameData
	call	_RTC_CheckStackVars
	mov	rax, rdi
	mov	rcx, QWORD PTR __$ArrayPad$[rbp]
	xor	rcx, rbp
	call	__security_check_cookie
	lea	rsp, QWORD PTR [rbp+360]
	pop	rdi
	pop	rbp
	ret	0
??$_Uninitialized_move@PEAPEAVbus_device@@PEAPEAV1@V?$allocator@PEAVbus_device@@@std@@@std@@YAPEAPEAVbus_device@@QEAPEAV1@0PEAPEAV1@AEAV?$allocator@PEAVbus_device@@@0@@Z ENDP ; std::_Uninitialized_move<bus_device * *,bus_device * *,std::allocator<bus_device *> >
_TEXT	ENDS
; Function compile flags: /Odtp /RTCsu /ZI
; File c:\program files (x86)\microsoft visual studio\2017\community\vc\tools\msvc\14.16.27023\include\xmemory0
;	COMDAT ??$_Destroy_range1@V?$allocator@PEAVbus_device@@@std@@@std@@YAXPEAPEAVbus_device@@0AEAV?$allocator@PEAVbus_device@@@0@U?$integral_constant@_N$00@0@@Z
_TEXT	SEGMENT
__formal$ = 224
__formal$ = 232
__formal$ = 240
__formal$ = 248
??$_Destroy_range1@V?$allocator@PEAVbus_device@@@std@@@std@@YAXPEAPEAVbus_device@@0AEAV?$allocator@PEAVbus_device@@@0@U?$integral_constant@_N$00@0@@Z PROC ; std::_Destroy_range1<std::allocator<bus_device *> >, COMDAT

; 1145 : 	{	// destroy [_First, _Last), trivially destructible and default destroy

$LN3:
	mov	BYTE PTR [rsp+32], r9b
	mov	QWORD PTR [rsp+24], r8
	mov	QWORD PTR [rsp+16], rdx
	mov	QWORD PTR [rsp+8], rcx
	push	rbp
	push	rdi
	sub	rsp, 232				; 000000e8H
	lea	rbp, QWORD PTR [rsp+32]
	mov	rdi, rsp
	mov	ecx, 58					; 0000003aH
	mov	eax, -858993460				; ccccccccH
	rep stosd
	mov	rcx, QWORD PTR [rsp+264]
	lea	rcx, OFFSET FLAT:__1CE3C767_xmemory0
	call	__CheckForDebuggerJustMyCode

; 1146 : 		// nothing to do
; 1147 : 	}

	lea	rsp, QWORD PTR [rbp+200]
	pop	rdi
	pop	rbp
	ret	0
??$_Destroy_range1@V?$allocator@PEAVbus_device@@@std@@@std@@YAXPEAPEAVbus_device@@0AEAV?$allocator@PEAVbus_device@@@0@U?$integral_constant@_N$00@0@@Z ENDP ; std::_Destroy_range1<std::allocator<bus_device *> >
_TEXT	ENDS
; Function compile flags: /Odtp /RTCsu /ZI
; File c:\program files (x86)\microsoft visual studio\2017\community\vc\tools\msvc\14.16.27023\include\type_traits
;	COMDAT ??$forward@U_Container_proxy@std@@@std@@YA$$QEAU_Container_proxy@0@AEAU10@@Z
_TEXT	SEGMENT
$T1 = 200
_Arg$ = 256
??$forward@U_Container_proxy@std@@@std@@YA$$QEAU_Container_proxy@0@AEAU10@@Z PROC ; std::forward<std::_Container_proxy>, COMDAT

; 1573 : 	{	// forward an lvalue as either an lvalue or an rvalue

$LN3:
	mov	QWORD PTR [rsp+8], rcx
	push	rbp
	push	rdi
	sub	rsp, 264				; 00000108H
	lea	rbp, QWORD PTR [rsp+32]
	mov	rdi, rsp
	mov	ecx, 66					; 00000042H
	mov	eax, -858993460				; ccccccccH
	rep stosd
	mov	rcx, QWORD PTR [rsp+296]
	mov	QWORD PTR $T1[rbp], -2
	lea	rcx, OFFSET FLAT:__5ECFF36E_type_traits
	call	__CheckForDebuggerJustMyCode
	npad	1

; 1574 : 	return (static_cast<_Ty&&>(_Arg));

	mov	rax, QWORD PTR _Arg$[rbp]

; 1575 : 	}

	lea	rsp, QWORD PTR [rbp+232]
	pop	rdi
	pop	rbp
	ret	0
??$forward@U_Container_proxy@std@@@std@@YA$$QEAU_Container_proxy@0@AEAU10@@Z ENDP ; std::forward<std::_Container_proxy>
_TEXT	ENDS
; Function compile flags: /Odtp /RTCsu /ZI
; File c:\program files (x86)\microsoft visual studio\2017\community\vc\tools\msvc\14.16.27023\include\xmemory0
;	COMDAT ??$_Allocate_manually_vector_aligned@U_Default_allocate_traits@std@@@std@@YAPEAX_K@Z
_TEXT	SEGMENT
_Block_size$ = 8
_Ptr_container$ = 40
_Ptr$ = 72
_Bytes$ = 320
??$_Allocate_manually_vector_aligned@U_Default_allocate_traits@std@@@std@@YAPEAX_K@Z PROC ; std::_Allocate_manually_vector_aligned<std::_Default_allocate_traits>, COMDAT

; 92   : 	{	// allocate _Bytes manually aligned to at least _Big_allocation_alignment

$LN13:
	mov	QWORD PTR [rsp+8], rcx
	push	rbp
	push	rdi
	sub	rsp, 344				; 00000158H
	lea	rbp, QWORD PTR [rsp+48]
	mov	rdi, rsp
	mov	ecx, 86					; 00000056H
	mov	eax, -858993460				; ccccccccH
	rep stosd
	mov	rcx, QWORD PTR [rsp+376]
	lea	rcx, OFFSET FLAT:__1CE3C767_xmemory0
	call	__CheckForDebuggerJustMyCode

; 93   : 	size_t _Block_size = _Non_user_size + _Bytes;

	mov	rax, QWORD PTR _Bytes$[rbp]
	add	rax, 47					; 0000002fH
	mov	QWORD PTR _Block_size$[rbp], rax

; 94   : 	if (_Block_size <= _Bytes)

	mov	rax, QWORD PTR _Bytes$[rbp]
	cmp	QWORD PTR _Block_size$[rbp], rax
	ja	SHORT $LN8@Allocate_m

; 95   : 		{	// add overflow, try allocating all of memory and assume the
; 96   : 			// allocation function will throw bad_alloc
; 97   : 		_Block_size = static_cast<size_t>(-1);

	mov	QWORD PTR _Block_size$[rbp], -1
$LN8@Allocate_m:

; 98   : 		}
; 99   : 
; 100  : 	const uintptr_t _Ptr_container = reinterpret_cast<uintptr_t>(_Traits::_Allocate(_Block_size));

	mov	rcx, QWORD PTR _Block_size$[rbp]
	call	?_Allocate@_Default_allocate_traits@std@@SAPEAX_K@Z ; std::_Default_allocate_traits::_Allocate
	mov	QWORD PTR _Ptr_container$[rbp], rax
$LN4@Allocate_m:

; 101  : 	_STL_VERIFY(_Ptr_container != 0, "invalid argument");	// validate even in release since we're doing p[-1]

	cmp	QWORD PTR _Ptr_container$[rbp], 0
	je	SHORT $LN9@Allocate_m
	jmp	SHORT $LN10@Allocate_m
$LN9@Allocate_m:
$LN7@Allocate_m:
	lea	rax, OFFSET FLAT:??_C@_0BB@FCMFBGOM@invalid?5argument@
	mov	QWORD PTR [rsp+40], rax
	lea	rax, OFFSET FLAT:??_C@_02DKCKIIND@?$CFs@
	mov	QWORD PTR [rsp+32], rax
	xor	r9d, r9d
	mov	r8d, 101				; 00000065H
	lea	rdx, OFFSET FLAT:??_C@_0GJ@FFDBCFBF@c?3?2program?5files?5?$CIx86?$CJ?2microsof@
	mov	ecx, 2
	call	QWORD PTR __imp__CrtDbgReport
	cmp	eax, 1
	jne	SHORT $LN12@Allocate_m
	int	3
	xor	eax, eax
$LN12@Allocate_m:
	mov	QWORD PTR [rsp+32], 0
	mov	r9d, 101				; 00000065H
	lea	r8, OFFSET FLAT:??_C@_1NC@PIOGAKBO@?$AAc?$AA?3?$AA?2?$AAp?$AAr?$AAo?$AAg?$AAr?$AAa?$AAm?$AA?5?$AAf?$AAi?$AAl?$AAe@
	lea	rdx, OFFSET FLAT:??_C@_1EO@GFNCMDLA@?$AAs?$AAt?$AAd?$AA?3?$AA?3?$AA_?$AAA?$AAl?$AAl?$AAo?$AAc?$AAa?$AAt?$AAe?$AA_@
	lea	rcx, OFFSET FLAT:??_C@_1CG@JNLFBNGN@?$AA?$CC?$AAi?$AAn?$AAv?$AAa?$AAl?$AAi?$AAd?$AA?5?$AAa?$AAr?$AAg?$AAu?$AAm?$AAe@
	call	QWORD PTR __imp__invalid_parameter
	xor	eax, eax
	test	eax, eax
	jne	SHORT $LN7@Allocate_m
$LN10@Allocate_m:
	xor	eax, eax
	test	eax, eax
	jne	SHORT $LN4@Allocate_m

; 102  : 	void * const _Ptr = reinterpret_cast<void *>((_Ptr_container + _Non_user_size)
; 103  : 		& ~(_Big_allocation_alignment - 1));

	mov	rax, QWORD PTR _Ptr_container$[rbp]
	add	rax, 47					; 0000002fH
	and	rax, -32				; ffffffffffffffe0H
	mov	QWORD PTR _Ptr$[rbp], rax

; 104  : 	static_cast<uintptr_t *>(_Ptr)[-1] = _Ptr_container;

	mov	eax, 8
	imul	rax, rax, -1
	mov	rcx, QWORD PTR _Ptr$[rbp]
	mov	rdx, QWORD PTR _Ptr_container$[rbp]
	mov	QWORD PTR [rcx+rax], rdx

; 105  : 
; 106  :   #ifdef _DEBUG
; 107  : 	static_cast<uintptr_t *>(_Ptr)[-2] = _Big_allocation_sentinel;

	mov	eax, 8
	imul	rax, rax, -2
	mov	rcx, QWORD PTR _Ptr$[rbp]
	mov	rdx, -361700864190383366		; fafafafafafafafaH
	mov	QWORD PTR [rcx+rax], rdx

; 108  :   #endif /* _DEBUG */
; 109  : 	return (_Ptr);

	mov	rax, QWORD PTR _Ptr$[rbp]

; 110  : 	}

	lea	rsp, QWORD PTR [rbp+296]
	pop	rdi
	pop	rbp
	ret	0
??$_Allocate_manually_vector_aligned@U_Default_allocate_traits@std@@@std@@YAPEAX_K@Z ENDP ; std::_Allocate_manually_vector_aligned<std::_Default_allocate_traits>
_TEXT	ENDS
; Function compile flags: /Odtp /RTCsu /ZI
; File c:\program files (x86)\microsoft visual studio\2017\community\vc\tools\msvc\14.16.27023\include\xutility
;	COMDAT ??$_Move_unchecked1@PEAPEAVbus_device@@PEAPEAV1@@std@@YAPEAPEAVbus_device@@PEAPEAV1@00U_Trivially_copyable_ptr_iterator_tag@0@@Z
_TEXT	SEGMENT
_First$ = 224
_Last$ = 232
_Dest$ = 240
__formal$ = 248
??$_Move_unchecked1@PEAPEAVbus_device@@PEAPEAV1@@std@@YAPEAPEAVbus_device@@PEAPEAV1@00U_Trivially_copyable_ptr_iterator_tag@0@@Z PROC ; std::_Move_unchecked1<bus_device * *,bus_device * *>, COMDAT

; 2726 : 	{	// move [_First, _Last) to [_Dest, ...), memmove optimization

$LN3:
	mov	BYTE PTR [rsp+32], r9b
	mov	QWORD PTR [rsp+24], r8
	mov	QWORD PTR [rsp+16], rdx
	mov	QWORD PTR [rsp+8], rcx
	push	rbp
	push	rdi
	sub	rsp, 232				; 000000e8H
	lea	rbp, QWORD PTR [rsp+32]
	mov	rdi, rsp
	mov	ecx, 58					; 0000003aH
	mov	eax, -858993460				; ccccccccH
	rep stosd
	mov	rcx, QWORD PTR [rsp+264]
	lea	rcx, OFFSET FLAT:__CDB00636_xutility
	call	__CheckForDebuggerJustMyCode

; 2727 : 	return (_Copy_memmove(_First, _Last, _Dest));

	mov	r8, QWORD PTR _Dest$[rbp]
	mov	rdx, QWORD PTR _Last$[rbp]
	mov	rcx, QWORD PTR _First$[rbp]
	call	??$_Copy_memmove@PEAPEAVbus_device@@PEAPEAV1@@std@@YAPEAPEAVbus_device@@PEAPEAV1@00@Z ; std::_Copy_memmove<bus_device * *,bus_device * *>

; 2728 : 	}

	lea	rsp, QWORD PTR [rbp+200]
	pop	rdi
	pop	rbp
	ret	0
??$_Move_unchecked1@PEAPEAVbus_device@@PEAPEAV1@@std@@YAPEAPEAVbus_device@@PEAPEAV1@00U_Trivially_copyable_ptr_iterator_tag@0@@Z ENDP ; std::_Move_unchecked1<bus_device * *,bus_device * *>
_TEXT	ENDS
; Function compile flags: /Odtp /RTCsu /ZI
; File c:\program files (x86)\microsoft visual studio\2017\community\vc\tools\msvc\14.16.27023\include\xutility
;	COMDAT ??$_Ptr_move_cat@PEAVbus_device@@PEAV1@@std@@YA?AU_Really_trivial_ptr_iterator_tag@0@AEBQEAPEAVbus_device@@0@Z
_TEXT	SEGMENT
__$ReturnUdt$ = 224
__formal$ = 232
__formal$ = 240
??$_Ptr_move_cat@PEAVbus_device@@PEAV1@@std@@YA?AU_Really_trivial_ptr_iterator_tag@0@AEBQEAPEAVbus_device@@0@Z PROC ; std::_Ptr_move_cat<bus_device *,bus_device *>, COMDAT

; 1086 : 	{	// return pointer move optimization category for pointers

$LN3:
	mov	QWORD PTR [rsp+24], r8
	mov	QWORD PTR [rsp+16], rdx
	mov	QWORD PTR [rsp+8], rcx
	push	rbp
	push	rdi
	sub	rsp, 232				; 000000e8H
	lea	rbp, QWORD PTR [rsp+32]
	mov	rdi, rsp
	mov	ecx, 58					; 0000003aH
	mov	eax, -858993460				; ccccccccH
	rep stosd
	mov	rcx, QWORD PTR [rsp+264]
	lea	rcx, OFFSET FLAT:__CDB00636_xutility
	call	__CheckForDebuggerJustMyCode

; 1087 : 	return {};

	mov	rax, QWORD PTR __$ReturnUdt$[rbp]

; 1088 : 	}

	lea	rsp, QWORD PTR [rbp+200]
	pop	rdi
	pop	rbp
	ret	0
??$_Ptr_move_cat@PEAVbus_device@@PEAV1@@std@@YA?AU_Really_trivial_ptr_iterator_tag@0@AEBQEAPEAVbus_device@@0@Z ENDP ; std::_Ptr_move_cat<bus_device *,bus_device *>
_TEXT	ENDS
; Function compile flags: /Odtp /RTCsu /ZI
; File c:\program files (x86)\microsoft visual studio\2017\community\vc\tools\msvc\14.16.27023\include\xmemory0
;	COMDAT ??$_Get_size_of_n@$0BA@@std@@YA_K_K@Z
_TEXT	SEGMENT
_Max_possible$ = 8
_Result$ = 40
_Count$ = 288
??$_Get_size_of_n@$0BA@@std@@YA_K_K@Z PROC		; std::_Get_size_of_n<16>, COMDAT

; 23   : 	{	// gets the size of _Count copies of a type sized _Ty_size

$LN4:
	mov	QWORD PTR [rsp+8], rcx
	push	rbp
	push	rdi
	sub	rsp, 296				; 00000128H
	lea	rbp, QWORD PTR [rsp+32]
	mov	rdi, rsp
	mov	ecx, 74					; 0000004aH
	mov	eax, -858993460				; ccccccccH
	rep stosd
	mov	rcx, QWORD PTR [rsp+328]
	lea	rcx, OFFSET FLAT:__1CE3C767_xmemory0
	call	__CheckForDebuggerJustMyCode

; 24   : 	constexpr size_t _Max_possible = static_cast<size_t>(-1) / _Ty_size;

	mov	rax, 1152921504606846975		; 0fffffffffffffffH
	mov	QWORD PTR _Max_possible$[rbp], rax

; 25   : 	size_t _Result = _Count * _Ty_size;

	imul	rax, QWORD PTR _Count$[rbp], 16
	mov	QWORD PTR _Result$[rbp], rax

; 26   : 	if (_Max_possible < _Count)

	mov	rax, 1152921504606846975		; 0fffffffffffffffH
	cmp	QWORD PTR _Count$[rbp], rax
	jbe	SHORT $LN2@Get_size_o

; 27   : 		{	// multiply overflow, try allocating all of memory and assume the
; 28   : 			// allocation function will throw bad_alloc
; 29   : 		_Result = static_cast<size_t>(-1);

	mov	QWORD PTR _Result$[rbp], -1
$LN2@Get_size_o:

; 30   : 		}
; 31   : 
; 32   : 	return (_Result);

	mov	rax, QWORD PTR _Result$[rbp]

; 33   : 	}

	lea	rsp, QWORD PTR [rbp+264]
	pop	rdi
	pop	rbp
	ret	0
??$_Get_size_of_n@$0BA@@std@@YA_K_K@Z ENDP		; std::_Get_size_of_n<16>
_TEXT	ENDS
; Function compile flags: /Odtp /RTCsu /ZI
; File c:\program files (x86)\microsoft visual studio\2017\community\vc\tools\msvc\14.16.27023\include\xmemory0
;	COMDAT ??$_Destroy_range@V?$allocator@PEAVbus_device@@@std@@@std@@YAXPEAPEAVbus_device@@0AEAV?$allocator@PEAVbus_device@@@0@@Z
_TEXT	SEGMENT
$T1 = 196
_First$ = 256
_Last$ = 264
_Al$ = 272
??$_Destroy_range@V?$allocator@PEAVbus_device@@@std@@@std@@YAXPEAPEAVbus_device@@0AEAV?$allocator@PEAVbus_device@@@0@@Z PROC ; std::_Destroy_range<std::allocator<bus_device *> >, COMDAT

; 1154 : 	{	// destroy [_First, _Last), choose optimization

$LN3:
	mov	QWORD PTR [rsp+24], r8
	mov	QWORD PTR [rsp+16], rdx
	mov	QWORD PTR [rsp+8], rcx
	push	rbp
	push	rdi
	sub	rsp, 264				; 00000108H
	lea	rbp, QWORD PTR [rsp+32]
	mov	rdi, rsp
	mov	ecx, 66					; 00000042H
	mov	eax, -858993460				; ccccccccH
	rep stosd
	mov	rcx, QWORD PTR [rsp+296]
	lea	rcx, OFFSET FLAT:__1CE3C767_xmemory0
	call	__CheckForDebuggerJustMyCode

; 1155 : 		// note that this is an optimization for debug mode codegen;
; 1156 : 		// in release mode the BE removes all of this
; 1157 : 	using _Val = typename _Alloc::value_type;
; 1158 : 	_Destroy_range1(_First, _Last, _Al, bool_constant<conjunction_v<

	lea	rax, QWORD PTR $T1[rbp]
	mov	rdi, rax
	xor	eax, eax
	mov	ecx, 1
	rep stosb
	movzx	r9d, BYTE PTR $T1[rbp]
	mov	r8, QWORD PTR _Al$[rbp]
	mov	rdx, QWORD PTR _Last$[rbp]
	mov	rcx, QWORD PTR _First$[rbp]
	call	??$_Destroy_range1@V?$allocator@PEAVbus_device@@@std@@@std@@YAXPEAPEAVbus_device@@0AEAV?$allocator@PEAVbus_device@@@0@U?$integral_constant@_N$00@0@@Z ; std::_Destroy_range1<std::allocator<bus_device *> >

; 1159 : 		is_trivially_destructible<_Val>,
; 1160 : 		_Uses_default_destroy<_Alloc, _Val *>>>{});
; 1161 : 	}

	lea	rsp, QWORD PTR [rbp+232]
	pop	rdi
	pop	rbp
	ret	0
??$_Destroy_range@V?$allocator@PEAVbus_device@@@std@@@std@@YAXPEAPEAVbus_device@@0AEAV?$allocator@PEAVbus_device@@@0@@Z ENDP ; std::_Destroy_range<std::allocator<bus_device *> >
_TEXT	ENDS
; Function compile flags: /Odtp /RTCsu /ZI
; File c:\program files (x86)\microsoft visual studio\2017\community\vc\tools\msvc\14.16.27023\include\xmemory0
;	COMDAT ??$construct@U_Container_proxy@std@@U12@@?$_Default_allocator_traits@V?$allocator@U_Container_proxy@std@@@std@@@std@@SAXAEAV?$allocator@U_Container_proxy@std@@@1@QEAU_Container_proxy@1@$$QEAU31@@Z
_TEXT	SEGMENT
$T1 = 200
__formal$ = 256
_Ptr$ = 264
<_Args_0>$ = 272
??$construct@U_Container_proxy@std@@U12@@?$_Default_allocator_traits@V?$allocator@U_Container_proxy@std@@@std@@@std@@SAXAEAV?$allocator@U_Container_proxy@std@@@1@QEAU_Container_proxy@1@$$QEAU31@@Z PROC ; std::_Default_allocator_traits<std::allocator<std::_Container_proxy> >::construct<std::_Container_proxy,std::_Container_proxy>, COMDAT

; 879  : 		{	// construct _Objty(_Types...) at _Ptr

$LN3:
	mov	QWORD PTR [rsp+24], r8
	mov	QWORD PTR [rsp+16], rdx
	mov	QWORD PTR [rsp+8], rcx
	push	rbp
	push	rsi
	push	rdi
	sub	rsp, 256				; 00000100H
	lea	rbp, QWORD PTR [rsp+32]
	mov	rdi, rsp
	mov	ecx, 64					; 00000040H
	mov	eax, -858993460				; ccccccccH
	rep stosd
	mov	rcx, QWORD PTR [rsp+296]
	lea	rcx, OFFSET FLAT:__1CE3C767_xmemory0
	call	__CheckForDebuggerJustMyCode
	mov	rdx, QWORD PTR _Ptr$[rbp]
	mov	ecx, 16
	call	??2@YAPEAX_KPEAX@Z			; operator new
	mov	QWORD PTR $T1[rbp], rax
	mov	rcx, QWORD PTR <_Args_0>$[rbp]
	call	??$forward@U_Container_proxy@std@@@std@@YA$$QEAU_Container_proxy@0@AEAU10@@Z ; std::forward<std::_Container_proxy>
	mov	rdi, QWORD PTR $T1[rbp]
	mov	rsi, rax
	mov	ecx, 16
	rep movsb

; 880  : 		::new (const_cast<void *>(static_cast<const volatile void *>(_Ptr)))
; 881  : 			_Objty(_STD forward<_Types>(_Args)...);
; 882  : 		}

	lea	rsp, QWORD PTR [rbp+224]
	pop	rdi
	pop	rsi
	pop	rbp
	ret	0
??$construct@U_Container_proxy@std@@U12@@?$_Default_allocator_traits@V?$allocator@U_Container_proxy@std@@@std@@@std@@SAXAEAV?$allocator@U_Container_proxy@std@@@1@QEAU_Container_proxy@1@$$QEAU31@@Z ENDP ; std::_Default_allocator_traits<std::allocator<std::_Container_proxy> >::construct<std::_Container_proxy,std::_Container_proxy>
_TEXT	ENDS
; Function compile flags: /Odtp /RTCsu /ZI
; File c:\program files (x86)\microsoft visual studio\2017\community\vc\tools\msvc\14.16.27023\include\xstddef
;	COMDAT ??$_Unfancy@U_Container_proxy@std@@@std@@YAPEAU_Container_proxy@0@PEAU10@@Z
_TEXT	SEGMENT
_Ptr$ = 224
??$_Unfancy@U_Container_proxy@std@@@std@@YAPEAU_Container_proxy@0@PEAU10@@Z PROC ; std::_Unfancy<std::_Container_proxy>, COMDAT

; 345  : 	{	// do nothing for plain pointers

$LN3:
	mov	QWORD PTR [rsp+8], rcx
	push	rbp
	push	rdi
	sub	rsp, 232				; 000000e8H
	lea	rbp, QWORD PTR [rsp+32]
	mov	rdi, rsp
	mov	ecx, 58					; 0000003aH
	mov	eax, -858993460				; ccccccccH
	rep stosd
	mov	rcx, QWORD PTR [rsp+264]
	lea	rcx, OFFSET FLAT:__122CF1B0_xstddef
	call	__CheckForDebuggerJustMyCode

; 346  : 	return (_Ptr);

	mov	rax, QWORD PTR _Ptr$[rbp]

; 347  : 	}

	lea	rsp, QWORD PTR [rbp+200]
	pop	rdi
	pop	rbp
	ret	0
??$_Unfancy@U_Container_proxy@std@@@std@@YAPEAU_Container_proxy@0@PEAU10@@Z ENDP ; std::_Unfancy<std::_Container_proxy>
_TEXT	ENDS
; Function compile flags: /Odtp /RTCsu /ZI
; File c:\program files (x86)\microsoft visual studio\2017\community\vc\tools\msvc\14.16.27023\include\xmemory0
;	COMDAT ??$_Deallocate_plain@V?$allocator@U_Container_proxy@std@@@std@@$0A@@std@@YAXAEAV?$allocator@U_Container_proxy@std@@@0@QEAU_Container_proxy@0@@Z
_TEXT	SEGMENT
_Al$ = 224
_Ptr$ = 232
??$_Deallocate_plain@V?$allocator@U_Container_proxy@std@@@std@@$0A@@std@@YAXAEAV?$allocator@U_Container_proxy@std@@@0@QEAU_Container_proxy@0@@Z PROC ; std::_Deallocate_plain<std::allocator<std::_Container_proxy>,0>, COMDAT

; 1212 : 	{	// deallocate a plain pointer using an allocator, non-fancy pointers special case

$LN3:
	mov	QWORD PTR [rsp+16], rdx
	mov	QWORD PTR [rsp+8], rcx
	push	rbp
	push	rdi
	sub	rsp, 232				; 000000e8H
	lea	rbp, QWORD PTR [rsp+32]
	mov	rdi, rsp
	mov	ecx, 58					; 0000003aH
	mov	eax, -858993460				; ccccccccH
	rep stosd
	mov	rcx, QWORD PTR [rsp+264]
	lea	rcx, OFFSET FLAT:__1CE3C767_xmemory0
	call	__CheckForDebuggerJustMyCode

; 1213 : 	allocator_traits<_Alloc>::deallocate(_Al, _Ptr, 1);

	mov	r8d, 1
	mov	rdx, QWORD PTR _Ptr$[rbp]
	mov	rcx, QWORD PTR _Al$[rbp]
	call	?deallocate@?$_Default_allocator_traits@V?$allocator@U_Container_proxy@std@@@std@@@std@@SAXAEAV?$allocator@U_Container_proxy@std@@@2@QEAU_Container_proxy@2@_K@Z ; std::_Default_allocator_traits<std::allocator<std::_Container_proxy> >::deallocate

; 1214 : 	}

	lea	rsp, QWORD PTR [rbp+200]
	pop	rdi
	pop	rbp
	ret	0
??$_Deallocate_plain@V?$allocator@U_Container_proxy@std@@@std@@$0A@@std@@YAXAEAV?$allocator@U_Container_proxy@std@@@0@QEAU_Container_proxy@0@@Z ENDP ; std::_Deallocate_plain<std::allocator<std::_Container_proxy>,0>
_TEXT	ENDS
; Function compile flags: /Odtp /RTCsu /ZI
; File c:\program files (x86)\microsoft visual studio\2017\community\vc\tools\msvc\14.16.27023\include\xmemory0
;	COMDAT ??$destroy@U_Container_proxy@std@@@?$_Default_allocator_traits@V?$allocator@U_Container_proxy@std@@@std@@@std@@SAXAEAV?$allocator@U_Container_proxy@std@@@1@QEAU_Container_proxy@1@@Z
_TEXT	SEGMENT
__formal$ = 224
_Ptr$ = 232
??$destroy@U_Container_proxy@std@@@?$_Default_allocator_traits@V?$allocator@U_Container_proxy@std@@@std@@@std@@SAXAEAV?$allocator@U_Container_proxy@std@@@1@QEAU_Container_proxy@1@@Z PROC ; std::_Default_allocator_traits<std::allocator<std::_Container_proxy> >::destroy<std::_Container_proxy>, COMDAT

; 886  : 		{	// destroy object at _Ptr

$LN3:
	mov	QWORD PTR [rsp+16], rdx
	mov	QWORD PTR [rsp+8], rcx
	push	rbp
	push	rdi
	sub	rsp, 232				; 000000e8H
	lea	rbp, QWORD PTR [rsp+32]
	mov	rdi, rsp
	mov	ecx, 58					; 0000003aH
	mov	eax, -858993460				; ccccccccH
	rep stosd
	mov	rcx, QWORD PTR [rsp+264]
	lea	rcx, OFFSET FLAT:__1CE3C767_xmemory0
	call	__CheckForDebuggerJustMyCode

; 887  : 		_Ptr->~_Uty();
; 888  : 		}

	lea	rsp, QWORD PTR [rbp+200]
	pop	rdi
	pop	rbp
	ret	0
??$destroy@U_Container_proxy@std@@@?$_Default_allocator_traits@V?$allocator@U_Container_proxy@std@@@std@@@std@@SAXAEAV?$allocator@U_Container_proxy@std@@@1@QEAU_Container_proxy@1@@Z ENDP ; std::_Default_allocator_traits<std::allocator<std::_Container_proxy> >::destroy<std::_Container_proxy>
_TEXT	ENDS
; Function compile flags: /Odtp /RTCsu /ZI
; File c:\program files (x86)\microsoft visual studio\2017\community\vc\tools\msvc\14.16.27023\include\xmemory0
;	COMDAT ?deallocate@?$_Default_allocator_traits@V?$allocator@U_Container_proxy@std@@@std@@@std@@SAXAEAV?$allocator@U_Container_proxy@std@@@2@QEAU_Container_proxy@2@_K@Z
_TEXT	SEGMENT
__formal$ = 224
_Ptr$ = 232
_Count$ = 240
?deallocate@?$_Default_allocator_traits@V?$allocator@U_Container_proxy@std@@@std@@@std@@SAXAEAV?$allocator@U_Container_proxy@std@@@2@QEAU_Container_proxy@2@_K@Z PROC ; std::_Default_allocator_traits<std::allocator<std::_Container_proxy> >::deallocate, COMDAT

; 871  : 		{	// deallocate _Count elements at _Ptr

$LN3:
	mov	QWORD PTR [rsp+24], r8
	mov	QWORD PTR [rsp+16], rdx
	mov	QWORD PTR [rsp+8], rcx
	push	rbp
	push	rdi
	sub	rsp, 232				; 000000e8H
	lea	rbp, QWORD PTR [rsp+32]
	mov	rdi, rsp
	mov	ecx, 58					; 0000003aH
	mov	eax, -858993460				; ccccccccH
	rep stosd
	mov	rcx, QWORD PTR [rsp+264]
	lea	rcx, OFFSET FLAT:__1CE3C767_xmemory0
	call	__CheckForDebuggerJustMyCode

; 872  : 		// no overflow check on the following multiply; we assume _Allocate did that check
; 873  : 		_Deallocate<_New_alignof<value_type>>(_Ptr, sizeof(value_type) * _Count);

	imul	rax, QWORD PTR _Count$[rbp], 16
	mov	rdx, rax
	mov	rcx, QWORD PTR _Ptr$[rbp]
	call	??$_Deallocate@$0BA@$0A@@std@@YAXPEAX_K@Z ; std::_Deallocate<16,0>

; 874  : 		}

	lea	rsp, QWORD PTR [rbp+200]
	pop	rdi
	pop	rbp
	ret	0
?deallocate@?$_Default_allocator_traits@V?$allocator@U_Container_proxy@std@@@std@@@std@@SAXAEAV?$allocator@U_Container_proxy@std@@@2@QEAU_Container_proxy@2@_K@Z ENDP ; std::_Default_allocator_traits<std::allocator<std::_Container_proxy> >::deallocate
_TEXT	ENDS
; Function compile flags: /Odtp /RTCsu /ZI
; File c:\program files (x86)\microsoft visual studio\2017\community\vc\tools\msvc\14.16.27023\include\xmemory0
;	COMDAT ??$?0PEAVbus_device@@@?$allocator@U_Container_proxy@std@@@std@@QEAA@AEBV?$allocator@PEAVbus_device@@@1@@Z
_TEXT	SEGMENT
$T1 = 200
this$ = 256
__formal$ = 264
??$?0PEAVbus_device@@@?$allocator@U_Container_proxy@std@@@std@@QEAA@AEBV?$allocator@PEAVbus_device@@@1@@Z PROC ; std::allocator<std::_Container_proxy>::allocator<std::_Container_proxy><bus_device *>, COMDAT

; 986  : 		{	// construct from a related allocator (do nothing)

$LN3:
	mov	QWORD PTR [rsp+16], rdx
	mov	QWORD PTR [rsp+8], rcx
	push	rbp
	push	rdi
	sub	rsp, 264				; 00000108H
	lea	rbp, QWORD PTR [rsp+32]
	mov	rdi, rsp
	mov	ecx, 66					; 00000042H
	mov	eax, -858993460				; ccccccccH
	rep stosd
	mov	rcx, QWORD PTR [rsp+296]
	mov	QWORD PTR $T1[rbp], -2
	lea	rcx, OFFSET FLAT:__1CE3C767_xmemory0
	call	__CheckForDebuggerJustMyCode
	npad	1

; 987  : 		}

	mov	rax, QWORD PTR this$[rbp]
	lea	rsp, QWORD PTR [rbp+232]
	pop	rdi
	pop	rbp
	ret	0
??$?0PEAVbus_device@@@?$allocator@U_Container_proxy@std@@@std@@QEAA@AEBV?$allocator@PEAVbus_device@@@1@@Z ENDP ; std::allocator<std::_Container_proxy>::allocator<std::_Container_proxy><bus_device *>
_TEXT	ENDS
; Function compile flags: /Odtp /RTCsu /ZI
; File c:\program files (x86)\microsoft visual studio\2017\community\vc\tools\msvc\14.16.27023\include\xmemory0
;	COMDAT ?allocate@?$allocator@U_Container_proxy@std@@@std@@QEAAPEAU_Container_proxy@2@_K@Z
_TEXT	SEGMENT
this$ = 224
_Count$ = 232
?allocate@?$allocator@U_Container_proxy@std@@@std@@QEAAPEAU_Container_proxy@2@_K@Z PROC ; std::allocator<std::_Container_proxy>::allocate, COMDAT

; 996  : 		{	// allocate array of _Count elements

$LN3:
	mov	QWORD PTR [rsp+16], rdx
	mov	QWORD PTR [rsp+8], rcx
	push	rbp
	push	rdi
	sub	rsp, 232				; 000000e8H
	lea	rbp, QWORD PTR [rsp+32]
	mov	rdi, rsp
	mov	ecx, 58					; 0000003aH
	mov	eax, -858993460				; ccccccccH
	rep stosd
	mov	rcx, QWORD PTR [rsp+264]
	lea	rcx, OFFSET FLAT:__1CE3C767_xmemory0
	call	__CheckForDebuggerJustMyCode

; 997  : 		return (static_cast<_Ty *>(_Allocate<_New_alignof<_Ty>>(_Get_size_of_n<sizeof(_Ty)>(_Count))));

	mov	rcx, QWORD PTR _Count$[rbp]
	call	??$_Get_size_of_n@$0BA@@std@@YA_K_K@Z	; std::_Get_size_of_n<16>
	mov	rcx, rax
	call	??$_Allocate@$0BA@U_Default_allocate_traits@std@@$0A@@std@@YAPEAX_K@Z ; std::_Allocate<16,std::_Default_allocate_traits,0>

; 998  : 		}

	lea	rsp, QWORD PTR [rbp+200]
	pop	rdi
	pop	rbp
	ret	0
?allocate@?$allocator@U_Container_proxy@std@@@std@@QEAAPEAU_Container_proxy@2@_K@Z ENDP ; std::allocator<std::_Container_proxy>::allocate
_TEXT	ENDS
; Function compile flags: /Odtp /RTCsu /ZI
; File c:\program files (x86)\microsoft visual studio\2017\community\vc\tools\msvc\14.16.27023\include\xmemory0
;	COMDAT ??$_Deallocate@$0BA@$0A@@std@@YAXPEAX_K@Z
_TEXT	SEGMENT
_Ptr$ = 224
_Bytes$ = 232
??$_Deallocate@$0BA@$0A@@std@@YAXPEAX_K@Z PROC		; std::_Deallocate<16,0>, COMDAT

; 199  : 	{	// deallocate storage allocated by _Allocate when !_HAS_ALIGNED_NEW || _Align <= __STDCPP_DEFAULT_NEW_ALIGNMENT__

$LN4:
	mov	QWORD PTR [rsp+16], rdx
	mov	QWORD PTR [rsp+8], rcx
	push	rbp
	push	rdi
	sub	rsp, 232				; 000000e8H
	lea	rbp, QWORD PTR [rsp+32]
	mov	rdi, rsp
	mov	ecx, 58					; 0000003aH
	mov	eax, -858993460				; ccccccccH
	rep stosd
	mov	rcx, QWORD PTR [rsp+264]
	lea	rcx, OFFSET FLAT:__1CE3C767_xmemory0
	call	__CheckForDebuggerJustMyCode

; 200  :  #if defined(_M_IX86) || defined(_M_X64)
; 201  : 	if (_Bytes >= _Big_allocation_threshold)

	cmp	QWORD PTR _Bytes$[rbp], 4096		; 00001000H
	jb	SHORT $LN2@Deallocate

; 202  : 		{	// boost the alignment of big allocations to help autovectorization
; 203  : 		_Adjust_manually_vector_aligned(_Ptr, _Bytes);

	lea	rdx, QWORD PTR _Bytes$[rbp]
	lea	rcx, QWORD PTR _Ptr$[rbp]
	call	?_Adjust_manually_vector_aligned@std@@YAXAEAPEAXAEA_K@Z ; std::_Adjust_manually_vector_aligned
$LN2@Deallocate:

; 204  : 		}
; 205  :  #endif /* defined(_M_IX86) || defined(_M_X64) */
; 206  : 
; 207  : 	::operator delete(_Ptr, _Bytes);

	mov	rdx, QWORD PTR _Bytes$[rbp]
	mov	rcx, QWORD PTR _Ptr$[rbp]
	call	??3@YAXPEAX_K@Z				; operator delete

; 208  : 	}

	lea	rsp, QWORD PTR [rbp+200]
	pop	rdi
	pop	rbp
	ret	0
??$_Deallocate@$0BA@$0A@@std@@YAXPEAX_K@Z ENDP		; std::_Deallocate<16,0>
_TEXT	ENDS
; Function compile flags: /Odtp /RTCsu /ZI
; File c:\program files (x86)\microsoft visual studio\2017\community\vc\tools\msvc\14.16.27023\include\xmemory0
;	COMDAT ??$_Allocate@$0BA@U_Default_allocate_traits@std@@$0A@@std@@YAPEAX_K@Z
_TEXT	SEGMENT
_Bytes$ = 224
??$_Allocate@$0BA@U_Default_allocate_traits@std@@$0A@@std@@YAPEAX_K@Z PROC ; std::_Allocate<16,std::_Default_allocate_traits,0>, COMDAT

; 180  : 	{	// allocate _Bytes when !_HAS_ALIGNED_NEW || _Align <= __STDCPP_DEFAULT_NEW_ALIGNMENT__

$LN5:
	mov	QWORD PTR [rsp+8], rcx
	push	rbp
	push	rdi
	sub	rsp, 232				; 000000e8H
	lea	rbp, QWORD PTR [rsp+32]
	mov	rdi, rsp
	mov	ecx, 58					; 0000003aH
	mov	eax, -858993460				; ccccccccH
	rep stosd
	mov	rcx, QWORD PTR [rsp+264]
	lea	rcx, OFFSET FLAT:__1CE3C767_xmemory0
	call	__CheckForDebuggerJustMyCode

; 181  :  #if defined(_M_IX86) || defined(_M_X64)
; 182  : 	if (_Bytes >= _Big_allocation_threshold)

	cmp	QWORD PTR _Bytes$[rbp], 4096		; 00001000H
	jb	SHORT $LN2@Allocate

; 183  : 		{	// boost the alignment of big allocations to help autovectorization
; 184  : 		return (_Allocate_manually_vector_aligned<_Traits>(_Bytes));

	mov	rcx, QWORD PTR _Bytes$[rbp]
	call	??$_Allocate_manually_vector_aligned@U_Default_allocate_traits@std@@@std@@YAPEAX_K@Z ; std::_Allocate_manually_vector_aligned<std::_Default_allocate_traits>
	jmp	SHORT $LN1@Allocate
$LN2@Allocate:

; 185  : 		}
; 186  :  #endif /* defined(_M_IX86) || defined(_M_X64) */
; 187  : 
; 188  : 	if (_Bytes != 0)

	cmp	QWORD PTR _Bytes$[rbp], 0
	je	SHORT $LN3@Allocate

; 189  : 		{
; 190  : 		return (_Traits::_Allocate(_Bytes));

	mov	rcx, QWORD PTR _Bytes$[rbp]
	call	?_Allocate@_Default_allocate_traits@std@@SAPEAX_K@Z ; std::_Default_allocate_traits::_Allocate
	jmp	SHORT $LN1@Allocate
$LN3@Allocate:

; 191  : 		}
; 192  : 
; 193  : 	return (nullptr);

	xor	eax, eax
$LN1@Allocate:

; 194  : 	}

	lea	rsp, QWORD PTR [rbp+200]
	pop	rdi
	pop	rbp
	ret	0
??$_Allocate@$0BA@U_Default_allocate_traits@std@@$0A@@std@@YAPEAX_K@Z ENDP ; std::_Allocate<16,std::_Default_allocate_traits,0>
_TEXT	ENDS
; Function compile flags: /Odtp /RTCsu /ZI
; File c:\program files (x86)\microsoft visual studio\2017\community\vc\tools\msvc\14.16.27023\include\xutility
;	COMDAT ??$?0$$V@?$_Compressed_pair@V?$allocator@PEAVbus_device@@@std@@V?$_Vector_val@U?$_Simple_types@PEAVbus_device@@@std@@@2@$00@std@@QEAA@U_Zero_then_variadic_args_t@1@@Z
_TEXT	SEGMENT
this$ = 224
__formal$ = 232
??$?0$$V@?$_Compressed_pair@V?$allocator@PEAVbus_device@@@std@@V?$_Vector_val@U?$_Simple_types@PEAVbus_device@@@std@@@2@$00@std@@QEAA@U_Zero_then_variadic_args_t@1@@Z PROC ; std::_Compressed_pair<std::allocator<bus_device *>,std::_Vector_val<std::_Simple_types<bus_device *> >,1>::_Compressed_pair<std::allocator<bus_device *>,std::_Vector_val<std::_Simple_types<bus_device *> >,1><>, COMDAT

; 277  : 		: _Ty1(), _Myval2(_STD forward<_Other2>(_Val2)...)

$LN3:
	mov	BYTE PTR [rsp+16], dl
	mov	QWORD PTR [rsp+8], rcx
	push	rbp
	push	rdi
	sub	rsp, 232				; 000000e8H
	lea	rbp, QWORD PTR [rsp+32]
	mov	rdi, rsp
	mov	ecx, 58					; 0000003aH
	mov	eax, -858993460				; ccccccccH
	rep stosd
	mov	rcx, QWORD PTR [rsp+264]
	lea	rcx, OFFSET FLAT:__CDB00636_xutility
	call	__CheckForDebuggerJustMyCode
	mov	rcx, QWORD PTR this$[rbp]
	call	??0?$allocator@PEAVbus_device@@@std@@QEAA@XZ ; std::allocator<bus_device *>::allocator<bus_device *>
	mov	rax, QWORD PTR this$[rbp]
	mov	rcx, rax
	call	??0?$_Vector_val@U?$_Simple_types@PEAVbus_device@@@std@@@std@@QEAA@XZ ; std::_Vector_val<std::_Simple_types<bus_device *> >::_Vector_val<std::_Simple_types<bus_device *> >

; 278  : 		{	// construct from forwarded values
; 279  : 		}

	mov	rax, QWORD PTR this$[rbp]
	lea	rsp, QWORD PTR [rbp+200]
	pop	rdi
	pop	rbp
	ret	0
??$?0$$V@?$_Compressed_pair@V?$allocator@PEAVbus_device@@@std@@V?$_Vector_val@U?$_Simple_types@PEAVbus_device@@@std@@@2@$00@std@@QEAA@U_Zero_then_variadic_args_t@1@@Z ENDP ; std::_Compressed_pair<std::allocator<bus_device *>,std::_Vector_val<std::_Simple_types<bus_device *> >,1>::_Compressed_pair<std::allocator<bus_device *>,std::_Vector_val<std::_Simple_types<bus_device *> >,1><>
_TEXT	ENDS
; Function compile flags: /Odtp /RTCsu /ZI
; File c:\program files (x86)\microsoft visual studio\2017\community\vc\tools\msvc\14.16.27023\include\ostream
;	COMDAT ??Bsentry@?$basic_ostream@DU?$char_traits@D@std@@@std@@QEBA_NXZ
_TEXT	SEGMENT
this$ = 224
??Bsentry@?$basic_ostream@DU?$char_traits@D@std@@@std@@QEBA_NXZ PROC ; std::basic_ostream<char,std::char_traits<char> >::sentry::operator bool, COMDAT

; 152  : 			{	// test if stream state okay

$LN3:
	mov	QWORD PTR [rsp+8], rcx
	push	rbp
	push	rdi
	sub	rsp, 232				; 000000e8H
	lea	rbp, QWORD PTR [rsp+32]
	mov	rdi, rsp
	mov	ecx, 58					; 0000003aH
	mov	eax, -858993460				; ccccccccH
	rep stosd
	mov	rcx, QWORD PTR [rsp+264]
	lea	rcx, OFFSET FLAT:__375B2D08_ostream
	call	__CheckForDebuggerJustMyCode

; 153  : 			return (_Ok);

	mov	rax, QWORD PTR this$[rbp]
	movzx	eax, BYTE PTR [rax+8]

; 154  : 			}

	lea	rsp, QWORD PTR [rbp+200]
	pop	rdi
	pop	rbp
	ret	0
??Bsentry@?$basic_ostream@DU?$char_traits@D@std@@@std@@QEBA_NXZ ENDP ; std::basic_ostream<char,std::char_traits<char> >::sentry::operator bool
_TEXT	ENDS
; Function compile flags: /Odtp /RTCsu /ZI
; File c:\program files (x86)\microsoft visual studio\2017\community\vc\tools\msvc\14.16.27023\include\ostream
;	COMDAT ??1sentry@?$basic_ostream@DU?$char_traits@D@std@@@std@@QEAA@XZ
_TEXT	SEGMENT
$T1 = 200
this$ = 256
??1sentry@?$basic_ostream@DU?$char_traits@D@std@@@std@@QEAA@XZ PROC ; std::basic_ostream<char,std::char_traits<char> >::sentry::~sentry, COMDAT

; 135  : 			{	// destroy the object

$LN4:
	mov	QWORD PTR [rsp+8], rcx
	push	rbp
	push	rdi
	sub	rsp, 264				; 00000108H
	lea	rbp, QWORD PTR [rsp+32]
	mov	rdi, rsp
	mov	ecx, 66					; 00000042H
	mov	eax, -858993460				; ccccccccH
	rep stosd
	mov	rcx, QWORD PTR [rsp+296]
	mov	QWORD PTR $T1[rbp], -2
	lea	rcx, OFFSET FLAT:__375B2D08_ostream
	call	__CheckForDebuggerJustMyCode
	npad	1

; 136  :  #if _HAS_EXCEPTIONS
; 137  : 			if (!_STD uncaught_exception())	// TRANSITION, OS#15518458

	call	?uncaught_exception@std@@YA_NXZ		; std::uncaught_exception
	npad	1
	movzx	eax, al
	test	eax, eax
	jne	SHORT $LN2@sentry

; 138  : 				{
; 139  : 				this->_Myostr._Osfx();

	mov	rax, QWORD PTR this$[rbp]
	mov	rcx, QWORD PTR [rax]
	call	QWORD PTR __imp_?_Osfx@?$basic_ostream@DU?$char_traits@D@std@@@std@@QEAAXXZ
	npad	1
$LN2@sentry:

; 140  : 				}
; 141  :  #else /* _HAS_EXCEPTIONS */
; 142  : 			this->_Myostr._Osfx();
; 143  :  #endif /* _HAS_EXCEPTIONS */
; 144  : 			}

	mov	rcx, QWORD PTR this$[rbp]
	call	??1_Sentry_base@?$basic_ostream@DU?$char_traits@D@std@@@std@@QEAA@XZ ; std::basic_ostream<char,std::char_traits<char> >::_Sentry_base::~_Sentry_base
	npad	1
	lea	rsp, QWORD PTR [rbp+232]
	pop	rdi
	pop	rbp
	ret	0
??1sentry@?$basic_ostream@DU?$char_traits@D@std@@@std@@QEAA@XZ ENDP ; std::basic_ostream<char,std::char_traits<char> >::sentry::~sentry
_TEXT	ENDS
; Function compile flags: /Odtp /RTCsu /ZI
; File c:\program files (x86)\microsoft visual studio\2017\community\vc\tools\msvc\14.16.27023\include\ostream
;	COMDAT ??0sentry@?$basic_ostream@DU?$char_traits@D@std@@@std@@QEAA@AEAV12@@Z
_TEXT	SEGMENT
$T1 = 200
this$ = 256
_Ostr$ = 264
??0sentry@?$basic_ostream@DU?$char_traits@D@std@@@std@@QEAA@AEAV12@@Z PROC ; std::basic_ostream<char,std::char_traits<char> >::sentry::sentry, COMDAT

; 121  : 			{	// construct locking and testing stream

$LN5:
	mov	QWORD PTR [rsp+16], rdx
	mov	QWORD PTR [rsp+8], rcx
	push	rbp
	push	rdi
	sub	rsp, 264				; 00000108H
	lea	rbp, QWORD PTR [rsp+32]
	mov	rdi, rsp
	mov	ecx, 66					; 00000042H
	mov	eax, -858993460				; ccccccccH
	rep stosd
	mov	rcx, QWORD PTR [rsp+296]
	mov	QWORD PTR $T1[rbp], -2
	lea	rcx, OFFSET FLAT:__375B2D08_ostream
	call	__CheckForDebuggerJustMyCode

; 120  : 			: _Sentry_base(_Ostr)

	mov	rdx, QWORD PTR _Ostr$[rbp]
	mov	rcx, QWORD PTR this$[rbp]
	call	??0_Sentry_base@?$basic_ostream@DU?$char_traits@D@std@@@std@@QEAA@AEAV12@@Z ; std::basic_ostream<char,std::char_traits<char> >::_Sentry_base::_Sentry_base
	npad	1

; 122  : 			if (_Ostr.good() && _Ostr.tie() != nullptr && _Ostr.tie() != &_Ostr)

	mov	rax, QWORD PTR _Ostr$[rbp]
	mov	rax, QWORD PTR [rax]
	movsxd	rax, DWORD PTR [rax+4]
	mov	rcx, QWORD PTR _Ostr$[rbp]
	add	rcx, rax
	mov	rax, rcx
	mov	rcx, rax
	call	QWORD PTR __imp_?good@ios_base@std@@QEBA_NXZ
	movzx	eax, al
	test	eax, eax
	je	$LN2@sentry
	mov	rax, QWORD PTR _Ostr$[rbp]
	mov	rax, QWORD PTR [rax]
	movsxd	rax, DWORD PTR [rax+4]
	mov	rcx, QWORD PTR _Ostr$[rbp]
	add	rcx, rax
	mov	rax, rcx
	mov	rcx, rax
	call	QWORD PTR __imp_?tie@?$basic_ios@DU?$char_traits@D@std@@@std@@QEBAPEAV?$basic_ostream@DU?$char_traits@D@std@@@2@XZ
	test	rax, rax
	je	SHORT $LN2@sentry
	mov	rax, QWORD PTR _Ostr$[rbp]
	mov	rax, QWORD PTR [rax]
	movsxd	rax, DWORD PTR [rax+4]
	mov	rcx, QWORD PTR _Ostr$[rbp]
	add	rcx, rax
	mov	rax, rcx
	mov	rcx, rax
	call	QWORD PTR __imp_?tie@?$basic_ios@DU?$char_traits@D@std@@@std@@QEBAPEAV?$basic_ostream@DU?$char_traits@D@std@@@2@XZ
	cmp	rax, QWORD PTR _Ostr$[rbp]
	je	SHORT $LN2@sentry

; 123  : 				_Ostr.tie()->flush();

	mov	rax, QWORD PTR _Ostr$[rbp]
	mov	rax, QWORD PTR [rax]
	movsxd	rax, DWORD PTR [rax+4]
	mov	rcx, QWORD PTR _Ostr$[rbp]
	add	rcx, rax
	mov	rax, rcx
	mov	rcx, rax
	call	QWORD PTR __imp_?tie@?$basic_ios@DU?$char_traits@D@std@@@std@@QEBAPEAV?$basic_ostream@DU?$char_traits@D@std@@@2@XZ
	mov	rcx, rax
	call	QWORD PTR __imp_?flush@?$basic_ostream@DU?$char_traits@D@std@@@std@@QEAAAEAV12@XZ
$LN2@sentry:

; 124  : 			_Ok = _Ostr.good();	// store test only after flushing tie

	mov	rax, QWORD PTR _Ostr$[rbp]
	mov	rax, QWORD PTR [rax]
	movsxd	rax, DWORD PTR [rax+4]
	mov	rcx, QWORD PTR _Ostr$[rbp]
	add	rcx, rax
	mov	rax, rcx
	mov	rcx, rax
	call	QWORD PTR __imp_?good@ios_base@std@@QEBA_NXZ
	mov	rcx, QWORD PTR this$[rbp]
	mov	BYTE PTR [rcx+8], al

; 125  : 			}

	mov	rax, QWORD PTR this$[rbp]
	lea	rsp, QWORD PTR [rbp+232]
	pop	rdi
	pop	rbp
	ret	0
??0sentry@?$basic_ostream@DU?$char_traits@D@std@@@std@@QEAA@AEAV12@@Z ENDP ; std::basic_ostream<char,std::char_traits<char> >::sentry::sentry
_TEXT	ENDS
;	COMDAT text$x
text$x	SEGMENT
$T1 = 200
this$ = 256
_Ostr$ = 264
?dtor$0@?0???0sentry@?$basic_ostream@DU?$char_traits@D@std@@@std@@QEAA@AEAV12@@Z@4HA PROC ; `std::basic_ostream<char,std::char_traits<char> >::sentry::sentry'::`1'::dtor$0
	mov	QWORD PTR [rsp+8], rcx
	mov	QWORD PTR [rsp+16], rdx
	push	rbp
	push	rdi
	sub	rsp, 40					; 00000028H
	lea	rbp, QWORD PTR [rdx+32]
	mov	rcx, QWORD PTR this$[rbp]
	call	??1_Sentry_base@?$basic_ostream@DU?$char_traits@D@std@@@std@@QEAA@XZ ; std::basic_ostream<char,std::char_traits<char> >::_Sentry_base::~_Sentry_base
	add	rsp, 40					; 00000028H
	pop	rdi
	pop	rbp
	ret	0
?dtor$0@?0???0sentry@?$basic_ostream@DU?$char_traits@D@std@@@std@@QEAA@AEAV12@@Z@4HA ENDP ; `std::basic_ostream<char,std::char_traits<char> >::sentry::sentry'::`1'::dtor$0
text$x	ENDS
; Function compile flags: /Odtp /RTCsu /ZI
;	COMDAT text$x
text$x	SEGMENT
$T1 = 200
this$ = 256
_Ostr$ = 264
?dtor$0@?0???0sentry@?$basic_ostream@DU?$char_traits@D@std@@@std@@QEAA@AEAV12@@Z@4HA PROC ; `std::basic_ostream<char,std::char_traits<char> >::sentry::sentry'::`1'::dtor$0
	mov	QWORD PTR [rsp+8], rcx
	mov	QWORD PTR [rsp+16], rdx
	push	rbp
	push	rdi
	sub	rsp, 40					; 00000028H
	lea	rbp, QWORD PTR [rdx+32]
	mov	rcx, QWORD PTR this$[rbp]
	call	??1_Sentry_base@?$basic_ostream@DU?$char_traits@D@std@@@std@@QEAA@XZ ; std::basic_ostream<char,std::char_traits<char> >::_Sentry_base::~_Sentry_base
	add	rsp, 40					; 00000028H
	pop	rdi
	pop	rbp
	ret	0
?dtor$0@?0???0sentry@?$basic_ostream@DU?$char_traits@D@std@@@std@@QEAA@AEAV12@@Z@4HA ENDP ; `std::basic_ostream<char,std::char_traits<char> >::sentry::sentry'::`1'::dtor$0
text$x	ENDS
; Function compile flags: /Odtp /RTCsu /ZI
; File c:\program files (x86)\microsoft visual studio\2017\community\vc\tools\msvc\14.16.27023\include\ostream
;	COMDAT ??1_Sentry_base@?$basic_ostream@DU?$char_traits@D@std@@@std@@QEAA@XZ
_TEXT	SEGMENT
$T1 = 200
tv87 = 216
tv72 = 216
tv94 = 224
this$ = 272
??1_Sentry_base@?$basic_ostream@DU?$char_traits@D@std@@@std@@QEAA@XZ PROC ; std::basic_ostream<char,std::char_traits<char> >::_Sentry_base::~_Sentry_base, COMDAT

; 105  : 			{	// destroy after unlocking

$LN4:
	mov	QWORD PTR [rsp+8], rcx
	push	rbp
	push	rdi
	sub	rsp, 280				; 00000118H
	lea	rbp, QWORD PTR [rsp+32]
	mov	rdi, rsp
	mov	ecx, 70					; 00000046H
	mov	eax, -858993460				; ccccccccH
	rep stosd
	mov	rcx, QWORD PTR [rsp+312]
	mov	QWORD PTR $T1[rbp], -2
	lea	rcx, OFFSET FLAT:__375B2D08_ostream
	call	__CheckForDebuggerJustMyCode
	npad	1

; 106  : 			if (_Myostr.rdbuf() != nullptr)

	mov	rax, QWORD PTR this$[rbp]
	mov	rax, QWORD PTR [rax]
	mov	QWORD PTR tv72[rbp], rax
	mov	rax, QWORD PTR tv72[rbp]
	mov	rax, QWORD PTR [rax]
	movsxd	rax, DWORD PTR [rax+4]
	mov	rcx, QWORD PTR tv72[rbp]
	add	rcx, rax
	mov	rax, rcx
	mov	rcx, rax
	call	QWORD PTR __imp_?rdbuf@?$basic_ios@DU?$char_traits@D@std@@@std@@QEBAPEAV?$basic_streambuf@DU?$char_traits@D@std@@@2@XZ
	npad	1
	test	rax, rax
	je	SHORT $LN2@Sentry_bas

; 107  : 				_Myostr.rdbuf()->_Unlock();

	mov	rax, QWORD PTR this$[rbp]
	mov	rax, QWORD PTR [rax]
	mov	QWORD PTR tv87[rbp], rax
	mov	rax, QWORD PTR tv87[rbp]
	mov	rax, QWORD PTR [rax]
	movsxd	rax, DWORD PTR [rax+4]
	mov	rcx, QWORD PTR tv87[rbp]
	add	rcx, rax
	mov	rax, rcx
	mov	rcx, rax
	call	QWORD PTR __imp_?rdbuf@?$basic_ios@DU?$char_traits@D@std@@@std@@QEBAPEAV?$basic_streambuf@DU?$char_traits@D@std@@@2@XZ
	npad	1
	mov	QWORD PTR tv94[rbp], rax
	mov	rax, QWORD PTR tv94[rbp]
	mov	rax, QWORD PTR [rax]
	mov	rcx, QWORD PTR tv94[rbp]
	call	QWORD PTR [rax+16]
	npad	1
$LN2@Sentry_bas:

; 108  : 			}

	lea	rsp, QWORD PTR [rbp+248]
	pop	rdi
	pop	rbp
	ret	0
??1_Sentry_base@?$basic_ostream@DU?$char_traits@D@std@@@std@@QEAA@XZ ENDP ; std::basic_ostream<char,std::char_traits<char> >::_Sentry_base::~_Sentry_base
_TEXT	ENDS
; Function compile flags: /Odtp /RTCsu /ZI
; File c:\program files (x86)\microsoft visual studio\2017\community\vc\tools\msvc\14.16.27023\include\ostream
;	COMDAT ??0_Sentry_base@?$basic_ostream@DU?$char_traits@D@std@@@std@@QEAA@AEAV12@@Z
_TEXT	SEGMENT
tv88 = 192
tv73 = 192
tv95 = 200
this$ = 240
_Ostr$ = 248
??0_Sentry_base@?$basic_ostream@DU?$char_traits@D@std@@@std@@QEAA@AEAV12@@Z PROC ; std::basic_ostream<char,std::char_traits<char> >::_Sentry_base::_Sentry_base, COMDAT

; 99   : 			{	// lock the stream buffer, if there

$LN4:
	mov	QWORD PTR [rsp+16], rdx
	mov	QWORD PTR [rsp+8], rcx
	push	rbp
	push	rdi
	sub	rsp, 248				; 000000f8H
	lea	rbp, QWORD PTR [rsp+32]
	mov	rdi, rsp
	mov	ecx, 62					; 0000003eH
	mov	eax, -858993460				; ccccccccH
	rep stosd
	mov	rcx, QWORD PTR [rsp+280]
	lea	rcx, OFFSET FLAT:__375B2D08_ostream
	call	__CheckForDebuggerJustMyCode

; 98   : 			: _Myostr(_Ostr)

	mov	rax, QWORD PTR this$[rbp]
	mov	rcx, QWORD PTR _Ostr$[rbp]
	mov	QWORD PTR [rax], rcx

; 100  : 			if (_Myostr.rdbuf() != nullptr)

	mov	rax, QWORD PTR this$[rbp]
	mov	rax, QWORD PTR [rax]
	mov	QWORD PTR tv73[rbp], rax
	mov	rax, QWORD PTR tv73[rbp]
	mov	rax, QWORD PTR [rax]
	movsxd	rax, DWORD PTR [rax+4]
	mov	rcx, QWORD PTR tv73[rbp]
	add	rcx, rax
	mov	rax, rcx
	mov	rcx, rax
	call	QWORD PTR __imp_?rdbuf@?$basic_ios@DU?$char_traits@D@std@@@std@@QEBAPEAV?$basic_streambuf@DU?$char_traits@D@std@@@2@XZ
	test	rax, rax
	je	SHORT $LN2@Sentry_bas

; 101  : 				_Myostr.rdbuf()->_Lock();

	mov	rax, QWORD PTR this$[rbp]
	mov	rax, QWORD PTR [rax]
	mov	QWORD PTR tv88[rbp], rax
	mov	rax, QWORD PTR tv88[rbp]
	mov	rax, QWORD PTR [rax]
	movsxd	rax, DWORD PTR [rax+4]
	mov	rcx, QWORD PTR tv88[rbp]
	add	rcx, rax
	mov	rax, rcx
	mov	rcx, rax
	call	QWORD PTR __imp_?rdbuf@?$basic_ios@DU?$char_traits@D@std@@@std@@QEBAPEAV?$basic_streambuf@DU?$char_traits@D@std@@@2@XZ
	mov	QWORD PTR tv95[rbp], rax
	mov	rax, QWORD PTR tv95[rbp]
	mov	rax, QWORD PTR [rax]
	mov	rcx, QWORD PTR tv95[rbp]
	call	QWORD PTR [rax+8]
$LN2@Sentry_bas:

; 102  : 			}

	mov	rax, QWORD PTR this$[rbp]
	lea	rsp, QWORD PTR [rbp+216]
	pop	rdi
	pop	rbp
	ret	0
??0_Sentry_base@?$basic_ostream@DU?$char_traits@D@std@@@std@@QEAA@AEAV12@@Z ENDP ; std::basic_ostream<char,std::char_traits<char> >::_Sentry_base::_Sentry_base
_TEXT	ENDS
; Function compile flags: /Odtp /RTCsu /ZI
; File c:\program files (x86)\microsoft visual studio\2017\community\vc\tools\msvc\14.16.27023\include\vector
;	COMDAT ??$_Emplace_reallocate@AEBQEAVbus_device@@@?$vector@PEAVbus_device@@V?$allocator@PEAVbus_device@@@std@@@std@@QEAAPEAPEAVbus_device@@QEAPEAV2@AEBQEAV2@@Z
_TEXT	SEGMENT
_Whereoff$ = 8
_Al$ = 40
_Oldsize$ = 72
_Newsize$ = 104
_Newcapacity$ = 136
_Newvec$ = 168
_Constructed_last$ = 200
_Constructed_first$ = 232
$T1 = 456
tv207 = 472
tv176 = 472
tv153 = 472
this$ = 512
_Whereptr$ = 520
<_Val_0>$ = 528
??$_Emplace_reallocate@AEBQEAVbus_device@@@?$vector@PEAVbus_device@@V?$allocator@PEAVbus_device@@@std@@@std@@QEAAPEAPEAVbus_device@@QEAPEAV2@AEBQEAV2@@Z PROC ; std::vector<bus_device *,std::allocator<bus_device *> >::_Emplace_reallocate<bus_device * const &>, COMDAT

; 942  : 		{	// reallocate and insert by perfectly forwarding _Val at _Whereptr

$LN13:
	mov	QWORD PTR [rsp+24], r8
	mov	QWORD PTR [rsp+16], rdx
	mov	QWORD PTR [rsp+8], rcx
	push	rbp
	push	rdi
	sub	rsp, 520				; 00000208H
	lea	rbp, QWORD PTR [rsp+32]
	mov	rdi, rsp
	mov	ecx, 130				; 00000082H
	mov	eax, -858993460				; ccccccccH
	rep stosd
	mov	rcx, QWORD PTR [rsp+552]
	mov	QWORD PTR $T1[rbp], -2
	lea	rcx, OFFSET FLAT:__FF7D7337_vector
	call	__CheckForDebuggerJustMyCode

; 943  : 			// pre: !_Has_unused_capacity()
; 944  : 		const size_type _Whereoff = static_cast<size_type>(_Whereptr - this->_Myfirst());

	mov	rcx, QWORD PTR this$[rbp]
	call	?_Myfirst@?$_Vector_alloc@U?$_Vec_base_types@PEAVbus_device@@V?$allocator@PEAVbus_device@@@std@@@std@@@std@@QEAAAEAPEAPEAVbus_device@@XZ ; std::_Vector_alloc<std::_Vec_base_types<bus_device *,std::allocator<bus_device *> > >::_Myfirst
	mov	rax, QWORD PTR [rax]
	mov	rcx, QWORD PTR _Whereptr$[rbp]
	sub	rcx, rax
	mov	rax, rcx
	sar	rax, 3
	mov	QWORD PTR _Whereoff$[rbp], rax

; 945  : 		_Alty& _Al = this->_Getal();

	mov	rcx, QWORD PTR this$[rbp]
	call	?_Getal@?$_Vector_alloc@U?$_Vec_base_types@PEAVbus_device@@V?$allocator@PEAVbus_device@@@std@@@std@@@std@@QEAAAEAV?$allocator@PEAVbus_device@@@2@XZ ; std::_Vector_alloc<std::_Vec_base_types<bus_device *,std::allocator<bus_device *> > >::_Getal
	mov	QWORD PTR _Al$[rbp], rax

; 946  : 		const size_type _Oldsize = size();

	mov	rcx, QWORD PTR this$[rbp]
	call	?size@?$vector@PEAVbus_device@@V?$allocator@PEAVbus_device@@@std@@@std@@QEBA_KXZ ; std::vector<bus_device *,std::allocator<bus_device *> >::size
	mov	QWORD PTR _Oldsize$[rbp], rax

; 947  : 
; 948  : 		if (_Oldsize == max_size())

	mov	rcx, QWORD PTR this$[rbp]
	call	?max_size@?$vector@PEAVbus_device@@V?$allocator@PEAVbus_device@@@std@@@std@@QEBA_KXZ ; std::vector<bus_device *,std::allocator<bus_device *> >::max_size
	cmp	QWORD PTR _Oldsize$[rbp], rax
	jne	SHORT $LN2@Emplace_re

; 949  : 			{
; 950  : 			_Xlength();

	call	?_Xlength@?$vector@PEAVbus_device@@V?$allocator@PEAVbus_device@@@std@@@std@@CAXXZ ; std::vector<bus_device *,std::allocator<bus_device *> >::_Xlength
$LN2@Emplace_re:

; 951  : 			}
; 952  : 
; 953  : 		const size_type _Newsize = _Oldsize + 1;

	mov	rax, QWORD PTR _Oldsize$[rbp]
	inc	rax
	mov	QWORD PTR _Newsize$[rbp], rax

; 954  : 		const size_type _Newcapacity = _Calculate_growth(_Newsize);

	mov	rdx, QWORD PTR _Newsize$[rbp]
	mov	rcx, QWORD PTR this$[rbp]
	call	?_Calculate_growth@?$vector@PEAVbus_device@@V?$allocator@PEAVbus_device@@@std@@@std@@AEBA_K_K@Z ; std::vector<bus_device *,std::allocator<bus_device *> >::_Calculate_growth
	mov	QWORD PTR _Newcapacity$[rbp], rax

; 955  : 
; 956  : 		const pointer _Newvec = _Al.allocate(_Newcapacity);

	mov	rdx, QWORD PTR _Newcapacity$[rbp]
	mov	rcx, QWORD PTR _Al$[rbp]
	call	?allocate@?$allocator@PEAVbus_device@@@std@@QEAAPEAPEAVbus_device@@_K@Z ; std::allocator<bus_device *>::allocate
	mov	QWORD PTR _Newvec$[rbp], rax

; 957  : 		const pointer _Constructed_last = _Newvec + _Whereoff + 1;

	mov	rax, QWORD PTR _Newvec$[rbp]
	mov	rcx, QWORD PTR _Whereoff$[rbp]
	lea	rax, QWORD PTR [rax+rcx*8+8]
	mov	QWORD PTR _Constructed_last$[rbp], rax

; 958  : 		pointer _Constructed_first = _Constructed_last;

	mov	rax, QWORD PTR _Constructed_last$[rbp]
	mov	QWORD PTR _Constructed_first$[rbp], rax

; 959  : 
; 960  : 		_TRY_BEGIN
; 961  : 		_Alty_traits::construct(_Al, _Unfancy(_Newvec + _Whereoff), _STD forward<_Valty>(_Val)...);

	mov	rax, QWORD PTR _Newvec$[rbp]
	mov	rcx, QWORD PTR _Whereoff$[rbp]
	lea	rax, QWORD PTR [rax+rcx*8]
	mov	rcx, rax
	call	??$_Unfancy@PEAVbus_device@@@std@@YAPEAPEAVbus_device@@PEAPEAV1@@Z ; std::_Unfancy<bus_device *>
	mov	QWORD PTR tv207[rbp], rax
	mov	rcx, QWORD PTR <_Val_0>$[rbp]
	call	??$forward@AEBQEAVbus_device@@@std@@YAAEBQEAVbus_device@@AEBQEAV1@@Z ; std::forward<bus_device * const &>
	mov	r8, rax
	mov	rdx, QWORD PTR tv207[rbp]
	mov	rcx, QWORD PTR _Al$[rbp]
	call	??$construct@PEAVbus_device@@AEBQEAV1@@?$_Default_allocator_traits@V?$allocator@PEAVbus_device@@@std@@@std@@SAXAEAV?$allocator@PEAVbus_device@@@1@QEAPEAVbus_device@@AEBQEAV3@@Z ; std::_Default_allocator_traits<std::allocator<bus_device *> >::construct<bus_device *,bus_device * const &>

; 962  : 		_Constructed_first = _Newvec + _Whereoff;

	mov	rax, QWORD PTR _Newvec$[rbp]
	mov	rcx, QWORD PTR _Whereoff$[rbp]
	lea	rax, QWORD PTR [rax+rcx*8]
	mov	QWORD PTR _Constructed_first$[rbp], rax

; 963  : 
; 964  : 		if (_Whereptr == this->_Mylast())

	mov	rcx, QWORD PTR this$[rbp]
	call	?_Mylast@?$_Vector_alloc@U?$_Vec_base_types@PEAVbus_device@@V?$allocator@PEAVbus_device@@@std@@@std@@@std@@QEAAAEAPEAPEAVbus_device@@XZ ; std::_Vector_alloc<std::_Vec_base_types<bus_device *,std::allocator<bus_device *> > >::_Mylast
	mov	rax, QWORD PTR [rax]
	cmp	QWORD PTR _Whereptr$[rbp], rax
	jne	SHORT $LN4@Emplace_re

; 965  : 			{	// at back, provide strong guarantee
; 966  : 			_Umove_if_noexcept(this->_Myfirst(), this->_Mylast(), _Newvec);

	mov	rcx, QWORD PTR this$[rbp]
	call	?_Mylast@?$_Vector_alloc@U?$_Vec_base_types@PEAVbus_device@@V?$allocator@PEAVbus_device@@@std@@@std@@@std@@QEAAAEAPEAPEAVbus_device@@XZ ; std::_Vector_alloc<std::_Vec_base_types<bus_device *,std::allocator<bus_device *> > >::_Mylast
	mov	QWORD PTR tv153[rbp], rax
	mov	rcx, QWORD PTR this$[rbp]
	call	?_Myfirst@?$_Vector_alloc@U?$_Vec_base_types@PEAVbus_device@@V?$allocator@PEAVbus_device@@@std@@@std@@@std@@QEAAAEAPEAPEAVbus_device@@XZ ; std::_Vector_alloc<std::_Vec_base_types<bus_device *,std::allocator<bus_device *> > >::_Myfirst
	mov	r9, QWORD PTR _Newvec$[rbp]
	mov	rcx, QWORD PTR tv153[rbp]
	mov	r8, QWORD PTR [rcx]
	mov	rdx, QWORD PTR [rax]
	mov	rcx, QWORD PTR this$[rbp]
	call	?_Umove_if_noexcept@?$vector@PEAVbus_device@@V?$allocator@PEAVbus_device@@@std@@@std@@AEAAXPEAPEAVbus_device@@00@Z ; std::vector<bus_device *,std::allocator<bus_device *> >::_Umove_if_noexcept

; 967  : 			}
; 968  : 		else

	jmp	SHORT $LN5@Emplace_re
$LN4@Emplace_re:

; 969  : 			{	// provide basic guarantee
; 970  : 			_Umove(this->_Myfirst(), _Whereptr, _Newvec);

	mov	rcx, QWORD PTR this$[rbp]
	call	?_Myfirst@?$_Vector_alloc@U?$_Vec_base_types@PEAVbus_device@@V?$allocator@PEAVbus_device@@@std@@@std@@@std@@QEAAAEAPEAPEAVbus_device@@XZ ; std::_Vector_alloc<std::_Vec_base_types<bus_device *,std::allocator<bus_device *> > >::_Myfirst
	mov	r9, QWORD PTR _Newvec$[rbp]
	mov	r8, QWORD PTR _Whereptr$[rbp]
	mov	rdx, QWORD PTR [rax]
	mov	rcx, QWORD PTR this$[rbp]
	call	?_Umove@?$vector@PEAVbus_device@@V?$allocator@PEAVbus_device@@@std@@@std@@AEAAPEAPEAVbus_device@@PEAPEAV3@00@Z ; std::vector<bus_device *,std::allocator<bus_device *> >::_Umove

; 971  : 			_Constructed_first = _Newvec;

	mov	rax, QWORD PTR _Newvec$[rbp]
	mov	QWORD PTR _Constructed_first$[rbp], rax

; 972  : 			_Umove(_Whereptr, this->_Mylast(), _Newvec + _Whereoff + 1);

	mov	rax, QWORD PTR _Newvec$[rbp]
	mov	rcx, QWORD PTR _Whereoff$[rbp]
	lea	rax, QWORD PTR [rax+rcx*8+8]
	mov	QWORD PTR tv176[rbp], rax
	mov	rcx, QWORD PTR this$[rbp]
	call	?_Mylast@?$_Vector_alloc@U?$_Vec_base_types@PEAVbus_device@@V?$allocator@PEAVbus_device@@@std@@@std@@@std@@QEAAAEAPEAPEAVbus_device@@XZ ; std::_Vector_alloc<std::_Vec_base_types<bus_device *,std::allocator<bus_device *> > >::_Mylast
	mov	rcx, QWORD PTR tv176[rbp]
	mov	r9, rcx
	mov	r8, QWORD PTR [rax]
	mov	rdx, QWORD PTR _Whereptr$[rbp]
	mov	rcx, QWORD PTR this$[rbp]
	call	?_Umove@?$vector@PEAVbus_device@@V?$allocator@PEAVbus_device@@@std@@@std@@AEAAPEAPEAVbus_device@@PEAPEAV3@00@Z ; std::vector<bus_device *,std::allocator<bus_device *> >::_Umove
	npad	1
$LN5@Emplace_re:
	jmp	SHORT $LN9@Emplace_re
$LN10@Emplace_re:
$LN9@Emplace_re:

; 973  : 			}
; 974  : 		_CATCH_ALL
; 975  : 		_Destroy(_Constructed_first, _Constructed_last);
; 976  : 		_Al.deallocate(_Newvec, _Newcapacity);
; 977  : 		_RERAISE;
; 978  : 		_CATCH_END
; 979  : 
; 980  : 		_Change_array(_Newvec, _Newsize, _Newcapacity);

	mov	r9, QWORD PTR _Newcapacity$[rbp]
	mov	r8, QWORD PTR _Newsize$[rbp]
	mov	rdx, QWORD PTR _Newvec$[rbp]
	mov	rcx, QWORD PTR this$[rbp]
	call	?_Change_array@?$vector@PEAVbus_device@@V?$allocator@PEAVbus_device@@@std@@@std@@AEAAXQEAPEAVbus_device@@_K1@Z ; std::vector<bus_device *,std::allocator<bus_device *> >::_Change_array

; 981  : 		return (this->_Myfirst() + _Whereoff);

	mov	rcx, QWORD PTR this$[rbp]
	call	?_Myfirst@?$_Vector_alloc@U?$_Vec_base_types@PEAVbus_device@@V?$allocator@PEAVbus_device@@@std@@@std@@@std@@QEAAAEAPEAPEAVbus_device@@XZ ; std::_Vector_alloc<std::_Vec_base_types<bus_device *,std::allocator<bus_device *> > >::_Myfirst
	mov	rax, QWORD PTR [rax]
	mov	rcx, QWORD PTR _Whereoff$[rbp]
	lea	rax, QWORD PTR [rax+rcx*8]

; 982  : 		}

	lea	rsp, QWORD PTR [rbp+488]
	pop	rdi
	pop	rbp
	ret	0
$LN11@Emplace_re:
??$_Emplace_reallocate@AEBQEAVbus_device@@@?$vector@PEAVbus_device@@V?$allocator@PEAVbus_device@@@std@@@std@@QEAAPEAPEAVbus_device@@QEAPEAV2@AEBQEAV2@@Z ENDP ; std::vector<bus_device *,std::allocator<bus_device *> >::_Emplace_reallocate<bus_device * const &>
_TEXT	ENDS
;	COMDAT text$x
text$x	SEGMENT
_Whereoff$ = 8
_Al$ = 40
_Oldsize$ = 72
_Newsize$ = 104
_Newcapacity$ = 136
_Newvec$ = 168
_Constructed_last$ = 200
_Constructed_first$ = 232
$T1 = 456
tv207 = 472
tv176 = 472
tv153 = 472
this$ = 512
_Whereptr$ = 520
<_Val_0>$ = 528
?catch$0@?0???$_Emplace_reallocate@AEBQEAVbus_device@@@?$vector@PEAVbus_device@@V?$allocator@PEAVbus_device@@@std@@@std@@QEAAPEAPEAVbus_device@@QEAPEAV2@AEBQEAV2@@Z@4HA PROC ; `std::vector<bus_device *,std::allocator<bus_device *> >::_Emplace_reallocate<bus_device * const &>'::`1'::catch$0

; 973  : 			}
; 974  : 		_CATCH_ALL

	mov	QWORD PTR [rsp+8], rcx
	mov	QWORD PTR [rsp+16], rdx
	push	rbp
	push	rdi
	sub	rsp, 40					; 00000028H
	lea	rbp, QWORD PTR [rdx+32]
__catch$??$_Emplace_reallocate@AEBQEAVbus_device@@@?$vector@PEAVbus_device@@V?$allocator@PEAVbus_device@@@std@@@std@@QEAAPEAPEAVbus_device@@QEAPEAV2@AEBQEAV2@@Z$0:

; 973  : 			}
; 974  : 		_CATCH_ALL
; 975  : 		_Destroy(_Constructed_first, _Constructed_last);

	mov	r8, QWORD PTR _Constructed_last$[rbp]
	mov	rdx, QWORD PTR _Constructed_first$[rbp]
	mov	rcx, QWORD PTR this$[rbp]
	call	?_Destroy@?$vector@PEAVbus_device@@V?$allocator@PEAVbus_device@@@std@@@std@@AEAAXPEAPEAVbus_device@@0@Z ; std::vector<bus_device *,std::allocator<bus_device *> >::_Destroy

; 973  : 			}
; 974  : 		_CATCH_ALL
; 975  : 		_Destroy(_Constructed_first, _Constructed_last);
; 976  : 		_Al.deallocate(_Newvec, _Newcapacity);

	mov	r8, QWORD PTR _Newcapacity$[rbp]
	mov	rdx, QWORD PTR _Newvec$[rbp]
	mov	rcx, QWORD PTR _Al$[rbp]
	call	?deallocate@?$allocator@PEAVbus_device@@@std@@QEAAXQEAPEAVbus_device@@_K@Z ; std::allocator<bus_device *>::deallocate

; 973  : 			}
; 974  : 		_CATCH_ALL
; 975  : 		_Destroy(_Constructed_first, _Constructed_last);
; 976  : 		_Al.deallocate(_Newvec, _Newcapacity);
; 977  : 		_RERAISE;

	xor	edx, edx
	xor	ecx, ecx
	call	_CxxThrowException
	npad	1

; 973  : 			}
; 974  : 		_CATCH_ALL
; 975  : 		_Destroy(_Constructed_first, _Constructed_last);
; 976  : 		_Al.deallocate(_Newvec, _Newcapacity);
; 977  : 		_RERAISE;
; 978  : 		_CATCH_END

	lea	rax, $LN10@catch$0
	add	rsp, 40					; 00000028H
	pop	rdi
	pop	rbp
	ret	0
	int	3
?catch$0@?0???$_Emplace_reallocate@AEBQEAVbus_device@@@?$vector@PEAVbus_device@@V?$allocator@PEAVbus_device@@@std@@@std@@QEAAPEAPEAVbus_device@@QEAPEAV2@AEBQEAV2@@Z@4HA ENDP ; `std::vector<bus_device *,std::allocator<bus_device *> >::_Emplace_reallocate<bus_device * const &>'::`1'::catch$0
text$x	ENDS
; Function compile flags: /Odtp /RTCsu /ZI
;	COMDAT text$x
text$x	SEGMENT
_Whereoff$ = 8
_Al$ = 40
_Oldsize$ = 72
_Newsize$ = 104
_Newcapacity$ = 136
_Newvec$ = 168
_Constructed_last$ = 200
_Constructed_first$ = 232
$T1 = 456
tv207 = 472
tv176 = 472
tv153 = 472
this$ = 512
_Whereptr$ = 520
<_Val_0>$ = 528
?catch$0@?0???$_Emplace_reallocate@AEBQEAVbus_device@@@?$vector@PEAVbus_device@@V?$allocator@PEAVbus_device@@@std@@@std@@QEAAPEAPEAVbus_device@@QEAPEAV2@AEBQEAV2@@Z@4HA PROC ; `std::vector<bus_device *,std::allocator<bus_device *> >::_Emplace_reallocate<bus_device * const &>'::`1'::catch$0

; 974  : 		_CATCH_ALL

	mov	QWORD PTR [rsp+8], rcx
	mov	QWORD PTR [rsp+16], rdx
	push	rbp
	push	rdi
	sub	rsp, 40					; 00000028H
	lea	rbp, QWORD PTR [rdx+32]
__catch$??$_Emplace_reallocate@AEBQEAVbus_device@@@?$vector@PEAVbus_device@@V?$allocator@PEAVbus_device@@@std@@@std@@QEAAPEAPEAVbus_device@@QEAPEAV2@AEBQEAV2@@Z$0:

; 975  : 		_Destroy(_Constructed_first, _Constructed_last);

	mov	r8, QWORD PTR _Constructed_last$[rbp]
	mov	rdx, QWORD PTR _Constructed_first$[rbp]
	mov	rcx, QWORD PTR this$[rbp]
	call	?_Destroy@?$vector@PEAVbus_device@@V?$allocator@PEAVbus_device@@@std@@@std@@AEAAXPEAPEAVbus_device@@0@Z ; std::vector<bus_device *,std::allocator<bus_device *> >::_Destroy

; 976  : 		_Al.deallocate(_Newvec, _Newcapacity);

	mov	r8, QWORD PTR _Newcapacity$[rbp]
	mov	rdx, QWORD PTR _Newvec$[rbp]
	mov	rcx, QWORD PTR _Al$[rbp]
	call	?deallocate@?$allocator@PEAVbus_device@@@std@@QEAAXQEAPEAVbus_device@@_K@Z ; std::allocator<bus_device *>::deallocate

; 977  : 		_RERAISE;

	xor	edx, edx
	xor	ecx, ecx
	call	_CxxThrowException
	npad	1

; 978  : 		_CATCH_END

	lea	rax, $LN10@catch$0
	add	rsp, 40					; 00000028H
	pop	rdi
	pop	rbp
	ret	0
	int	3
?catch$0@?0???$_Emplace_reallocate@AEBQEAVbus_device@@@?$vector@PEAVbus_device@@V?$allocator@PEAVbus_device@@@std@@@std@@QEAAPEAPEAVbus_device@@QEAPEAV2@AEBQEAV2@@Z@4HA ENDP ; `std::vector<bus_device *,std::allocator<bus_device *> >::_Emplace_reallocate<bus_device * const &>'::`1'::catch$0
text$x	ENDS
; Function compile flags: /Odtp /RTCsu /ZI
; File c:\program files (x86)\microsoft visual studio\2017\community\vc\tools\msvc\14.16.27023\include\xmemory0
;	COMDAT ??$construct@PEAVbus_device@@AEBQEAV1@@?$_Default_allocator_traits@V?$allocator@PEAVbus_device@@@std@@@std@@SAXAEAV?$allocator@PEAVbus_device@@@1@QEAPEAVbus_device@@AEBQEAV3@@Z
_TEXT	SEGMENT
$T1 = 200
__formal$ = 256
_Ptr$ = 264
<_Args_0>$ = 272
??$construct@PEAVbus_device@@AEBQEAV1@@?$_Default_allocator_traits@V?$allocator@PEAVbus_device@@@std@@@std@@SAXAEAV?$allocator@PEAVbus_device@@@1@QEAPEAVbus_device@@AEBQEAV3@@Z PROC ; std::_Default_allocator_traits<std::allocator<bus_device *> >::construct<bus_device *,bus_device * const &>, COMDAT

; 879  : 		{	// construct _Objty(_Types...) at _Ptr

$LN3:
	mov	QWORD PTR [rsp+24], r8
	mov	QWORD PTR [rsp+16], rdx
	mov	QWORD PTR [rsp+8], rcx
	push	rbp
	push	rdi
	sub	rsp, 264				; 00000108H
	lea	rbp, QWORD PTR [rsp+32]
	mov	rdi, rsp
	mov	ecx, 66					; 00000042H
	mov	eax, -858993460				; ccccccccH
	rep stosd
	mov	rcx, QWORD PTR [rsp+296]
	lea	rcx, OFFSET FLAT:__1CE3C767_xmemory0
	call	__CheckForDebuggerJustMyCode
	mov	rdx, QWORD PTR _Ptr$[rbp]
	mov	ecx, 8
	call	??2@YAPEAX_KPEAX@Z			; operator new
	mov	QWORD PTR $T1[rbp], rax
	mov	rcx, QWORD PTR <_Args_0>$[rbp]
	call	??$forward@AEBQEAVbus_device@@@std@@YAAEBQEAVbus_device@@AEBQEAV1@@Z ; std::forward<bus_device * const &>
	mov	rcx, QWORD PTR $T1[rbp]
	mov	rax, QWORD PTR [rax]
	mov	QWORD PTR [rcx], rax

; 880  : 		::new (const_cast<void *>(static_cast<const volatile void *>(_Ptr)))
; 881  : 			_Objty(_STD forward<_Types>(_Args)...);
; 882  : 		}

	lea	rsp, QWORD PTR [rbp+232]
	pop	rdi
	pop	rbp
	ret	0
??$construct@PEAVbus_device@@AEBQEAV1@@?$_Default_allocator_traits@V?$allocator@PEAVbus_device@@@std@@@std@@SAXAEAV?$allocator@PEAVbus_device@@@1@QEAPEAVbus_device@@AEBQEAV3@@Z ENDP ; std::_Default_allocator_traits<std::allocator<bus_device *> >::construct<bus_device *,bus_device * const &>
_TEXT	ENDS
; Function compile flags: /Odtp /RTCsu /ZI
; File c:\program files (x86)\microsoft visual studio\2017\community\vc\tools\msvc\14.16.27023\include\vector
;	COMDAT ??$_Emplace_back_with_unused_capacity@AEBQEAVbus_device@@@?$vector@PEAVbus_device@@V?$allocator@PEAVbus_device@@@std@@@std@@AEAA@AEBQEAVbus_device@@@Z
_TEXT	SEGMENT
_Result$ = 8
tv142 = 216
tv89 = 216
tv64 = 216
tv67 = 224
this$ = 272
<_Val_0>$ = 280
??$_Emplace_back_with_unused_capacity@AEBQEAVbus_device@@@?$vector@PEAVbus_device@@V?$allocator@PEAVbus_device@@@std@@@std@@AEAA@AEBQEAVbus_device@@@Z PROC ; std::vector<bus_device *,std::allocator<bus_device *> >::_Emplace_back_with_unused_capacity<bus_device * const &>, COMDAT

; 900  : 		{	// insert by perfectly forwarding into element at end, provide strong guarantee

$LN3:
	mov	QWORD PTR [rsp+16], rdx
	mov	QWORD PTR [rsp+8], rcx
	push	rbp
	push	rdi
	sub	rsp, 280				; 00000118H
	lea	rbp, QWORD PTR [rsp+32]
	mov	rdi, rsp
	mov	ecx, 70					; 00000046H
	mov	eax, -858993460				; ccccccccH
	rep stosd
	mov	rcx, QWORD PTR [rsp+312]
	lea	rcx, OFFSET FLAT:__FF7D7337_vector
	call	__CheckForDebuggerJustMyCode

; 901  : 			// pre: _Has_unused_capacity()
; 902  : 		_Alty_traits::construct(this->_Getal(), _Unfancy(this->_Mylast()), _STD forward<_Valty>(_Val)...);

	mov	rcx, QWORD PTR <_Val_0>$[rbp]
	call	??$forward@AEBQEAVbus_device@@@std@@YAAEBQEAVbus_device@@AEBQEAV1@@Z ; std::forward<bus_device * const &>
	mov	QWORD PTR tv64[rbp], rax
	mov	rcx, QWORD PTR this$[rbp]
	call	?_Mylast@?$_Vector_alloc@U?$_Vec_base_types@PEAVbus_device@@V?$allocator@PEAVbus_device@@@std@@@std@@@std@@QEAAAEAPEAPEAVbus_device@@XZ ; std::_Vector_alloc<std::_Vec_base_types<bus_device *,std::allocator<bus_device *> > >::_Mylast
	mov	rcx, QWORD PTR [rax]
	call	??$_Unfancy@PEAVbus_device@@@std@@YAPEAPEAVbus_device@@PEAPEAV1@@Z ; std::_Unfancy<bus_device *>
	mov	QWORD PTR tv67[rbp], rax
	mov	rcx, QWORD PTR this$[rbp]
	call	?_Getal@?$_Vector_alloc@U?$_Vec_base_types@PEAVbus_device@@V?$allocator@PEAVbus_device@@@std@@@std@@@std@@QEAAAEAV?$allocator@PEAVbus_device@@@2@XZ ; std::_Vector_alloc<std::_Vec_base_types<bus_device *,std::allocator<bus_device *> > >::_Getal
	mov	rcx, QWORD PTR tv64[rbp]
	mov	r8, rcx
	mov	rcx, QWORD PTR tv67[rbp]
	mov	rdx, rcx
	mov	rcx, rax
	call	??$construct@PEAVbus_device@@AEBQEAV1@@?$_Default_allocator_traits@V?$allocator@PEAVbus_device@@@std@@@std@@SAXAEAV?$allocator@PEAVbus_device@@@1@QEAPEAVbus_device@@AEBQEAV3@@Z ; std::_Default_allocator_traits<std::allocator<bus_device *> >::construct<bus_device *,bus_device * const &>

; 903  : 		_Orphan_range(this->_Mylast(), this->_Mylast());

	mov	rcx, QWORD PTR this$[rbp]
	call	?_Mylast@?$_Vector_alloc@U?$_Vec_base_types@PEAVbus_device@@V?$allocator@PEAVbus_device@@@std@@@std@@@std@@QEAAAEAPEAPEAVbus_device@@XZ ; std::_Vector_alloc<std::_Vec_base_types<bus_device *,std::allocator<bus_device *> > >::_Mylast
	mov	QWORD PTR tv89[rbp], rax
	mov	rcx, QWORD PTR this$[rbp]
	call	?_Mylast@?$_Vector_alloc@U?$_Vec_base_types@PEAVbus_device@@V?$allocator@PEAVbus_device@@@std@@@std@@@std@@QEAAAEAPEAPEAVbus_device@@XZ ; std::_Vector_alloc<std::_Vec_base_types<bus_device *,std::allocator<bus_device *> > >::_Mylast
	mov	rcx, QWORD PTR tv89[rbp]
	mov	r8, QWORD PTR [rcx]
	mov	rdx, QWORD PTR [rax]
	mov	rcx, QWORD PTR this$[rbp]
	call	?_Orphan_range@?$vector@PEAVbus_device@@V?$allocator@PEAVbus_device@@@std@@@std@@AEBAXPEAPEAVbus_device@@0@Z ; std::vector<bus_device *,std::allocator<bus_device *> >::_Orphan_range

; 904  : 		_Ty& _Result = *this->_Mylast();

	mov	rcx, QWORD PTR this$[rbp]
	call	?_Mylast@?$_Vector_alloc@U?$_Vec_base_types@PEAVbus_device@@V?$allocator@PEAVbus_device@@@std@@@std@@@std@@QEAAAEAPEAPEAVbus_device@@XZ ; std::_Vector_alloc<std::_Vec_base_types<bus_device *,std::allocator<bus_device *> > >::_Mylast
	mov	rax, QWORD PTR [rax]
	mov	QWORD PTR _Result$[rbp], rax

; 905  : 		++this->_Mylast();

	mov	rcx, QWORD PTR this$[rbp]
	call	?_Mylast@?$_Vector_alloc@U?$_Vec_base_types@PEAVbus_device@@V?$allocator@PEAVbus_device@@@std@@@std@@@std@@QEAAAEAPEAPEAVbus_device@@XZ ; std::_Vector_alloc<std::_Vec_base_types<bus_device *,std::allocator<bus_device *> > >::_Mylast
	mov	QWORD PTR tv142[rbp], rax
	mov	rax, QWORD PTR tv142[rbp]
	mov	rax, QWORD PTR [rax]
	add	rax, 8
	mov	rcx, QWORD PTR tv142[rbp]
	mov	QWORD PTR [rcx], rax

; 906  : #if _HAS_CXX17
; 907  : 		return (_Result);
; 908  : #else /* ^^^ _HAS_CXX17 ^^^ // vvv !_HAS_CXX17 vvv */
; 909  : 		(void)_Result;
; 910  : #endif /* _HAS_CXX17 */
; 911  : 		}

	lea	rsp, QWORD PTR [rbp+248]
	pop	rdi
	pop	rbp
	ret	0
??$_Emplace_back_with_unused_capacity@AEBQEAVbus_device@@@?$vector@PEAVbus_device@@V?$allocator@PEAVbus_device@@@std@@@std@@AEAA@AEBQEAVbus_device@@@Z ENDP ; std::vector<bus_device *,std::allocator<bus_device *> >::_Emplace_back_with_unused_capacity<bus_device * const &>
_TEXT	ENDS
; Function compile flags: /Odtp /RTCsu /ZI
; File c:\program files (x86)\microsoft visual studio\2017\community\vc\tools\msvc\14.16.27023\include\type_traits
;	COMDAT ??$forward@AEBQEAVbus_device@@@std@@YAAEBQEAVbus_device@@AEBQEAV1@@Z
_TEXT	SEGMENT
$T1 = 200
_Arg$ = 256
??$forward@AEBQEAVbus_device@@@std@@YAAEBQEAVbus_device@@AEBQEAV1@@Z PROC ; std::forward<bus_device * const &>, COMDAT

; 1573 : 	{	// forward an lvalue as either an lvalue or an rvalue

$LN3:
	mov	QWORD PTR [rsp+8], rcx
	push	rbp
	push	rdi
	sub	rsp, 264				; 00000108H
	lea	rbp, QWORD PTR [rsp+32]
	mov	rdi, rsp
	mov	ecx, 66					; 00000042H
	mov	eax, -858993460				; ccccccccH
	rep stosd
	mov	rcx, QWORD PTR [rsp+296]
	mov	QWORD PTR $T1[rbp], -2
	lea	rcx, OFFSET FLAT:__5ECFF36E_type_traits
	call	__CheckForDebuggerJustMyCode
	npad	1

; 1574 : 	return (static_cast<_Ty&&>(_Arg));

	mov	rax, QWORD PTR _Arg$[rbp]

; 1575 : 	}

	lea	rsp, QWORD PTR [rbp+232]
	pop	rdi
	pop	rbp
	ret	0
??$forward@AEBQEAVbus_device@@@std@@YAAEBQEAVbus_device@@AEBQEAV1@@Z ENDP ; std::forward<bus_device * const &>
_TEXT	ENDS
; Function compile flags: /Odtp /RTCsu /ZI
; File c:\program files (x86)\microsoft visual studio\2017\community\vc\tools\msvc\14.16.27023\include\vector
;	COMDAT ??$emplace_back@AEBQEAVbus_device@@@?$vector@PEAVbus_device@@V?$allocator@PEAVbus_device@@@std@@@std@@QEAA@AEBQEAVbus_device@@@Z
_TEXT	SEGMENT
_Result$ = 8
tv74 = 216
this$ = 256
<_Val_0>$ = 264
??$emplace_back@AEBQEAVbus_device@@@?$vector@PEAVbus_device@@V?$allocator@PEAVbus_device@@@std@@@std@@QEAA@AEBQEAVbus_device@@@Z PROC ; std::vector<bus_device *,std::allocator<bus_device *> >::emplace_back<bus_device * const &>, COMDAT

; 916  : 		{	// insert by perfectly forwarding into element at end, provide strong guarantee

$LN4:
	mov	QWORD PTR [rsp+16], rdx
	mov	QWORD PTR [rsp+8], rcx
	push	rbp
	push	rdi
	sub	rsp, 264				; 00000108H
	lea	rbp, QWORD PTR [rsp+32]
	mov	rdi, rsp
	mov	ecx, 66					; 00000042H
	mov	eax, -858993460				; ccccccccH
	rep stosd
	mov	rcx, QWORD PTR [rsp+296]
	lea	rcx, OFFSET FLAT:__FF7D7337_vector
	call	__CheckForDebuggerJustMyCode

; 917  : 		if (_Has_unused_capacity())

	mov	rcx, QWORD PTR this$[rbp]
	call	?_Has_unused_capacity@?$vector@PEAVbus_device@@V?$allocator@PEAVbus_device@@@std@@@std@@AEBA_NXZ ; std::vector<bus_device *,std::allocator<bus_device *> >::_Has_unused_capacity
	movzx	eax, al
	test	eax, eax
	je	SHORT $LN2@emplace_ba

; 918  : 			{
; 919  : 			return (_Emplace_back_with_unused_capacity(_STD forward<_Valty>(_Val)...));

	mov	rcx, QWORD PTR <_Val_0>$[rbp]
	call	??$forward@AEBQEAVbus_device@@@std@@YAAEBQEAVbus_device@@AEBQEAV1@@Z ; std::forward<bus_device * const &>
	mov	rdx, rax
	mov	rcx, QWORD PTR this$[rbp]
	call	??$_Emplace_back_with_unused_capacity@AEBQEAVbus_device@@@?$vector@PEAVbus_device@@V?$allocator@PEAVbus_device@@@std@@@std@@AEAA@AEBQEAVbus_device@@@Z ; std::vector<bus_device *,std::allocator<bus_device *> >::_Emplace_back_with_unused_capacity<bus_device * const &>
	jmp	SHORT $LN1@emplace_ba
$LN2@emplace_ba:

; 920  : 			}
; 921  : 
; 922  : 		_Ty& _Result = *_Emplace_reallocate(this->_Mylast(), _STD forward<_Valty>(_Val)...);

	mov	rcx, QWORD PTR <_Val_0>$[rbp]
	call	??$forward@AEBQEAVbus_device@@@std@@YAAEBQEAVbus_device@@AEBQEAV1@@Z ; std::forward<bus_device * const &>
	mov	QWORD PTR tv74[rbp], rax
	mov	rcx, QWORD PTR this$[rbp]
	call	?_Mylast@?$_Vector_alloc@U?$_Vec_base_types@PEAVbus_device@@V?$allocator@PEAVbus_device@@@std@@@std@@@std@@QEAAAEAPEAPEAVbus_device@@XZ ; std::_Vector_alloc<std::_Vec_base_types<bus_device *,std::allocator<bus_device *> > >::_Mylast
	mov	rcx, QWORD PTR tv74[rbp]
	mov	r8, rcx
	mov	rdx, QWORD PTR [rax]
	mov	rcx, QWORD PTR this$[rbp]
	call	??$_Emplace_reallocate@AEBQEAVbus_device@@@?$vector@PEAVbus_device@@V?$allocator@PEAVbus_device@@@std@@@std@@QEAAPEAPEAVbus_device@@QEAPEAV2@AEBQEAV2@@Z ; std::vector<bus_device *,std::allocator<bus_device *> >::_Emplace_reallocate<bus_device * const &>
	mov	QWORD PTR _Result$[rbp], rax
$LN1@emplace_ba:

; 923  : #if _HAS_CXX17
; 924  : 		return (_Result);
; 925  : #else /* ^^^ _HAS_CXX17 ^^^ // vvv !_HAS_CXX17 vvv */
; 926  : 		(void)_Result;
; 927  : #endif /* _HAS_CXX17 */
; 928  : 		}

	lea	rsp, QWORD PTR [rbp+232]
	pop	rdi
	pop	rbp
	ret	0
??$emplace_back@AEBQEAVbus_device@@@?$vector@PEAVbus_device@@V?$allocator@PEAVbus_device@@@std@@@std@@QEAA@AEBQEAVbus_device@@@Z ENDP ; std::vector<bus_device *,std::allocator<bus_device *> >::emplace_back<bus_device * const &>
_TEXT	ENDS
; Function compile flags: /Odtp /RTCsu /ZI
; File c:\program files (x86)\microsoft visual studio\2017\community\vc\tools\msvc\14.16.27023\include\xmemory0
;	COMDAT ??$destroy@PEAVbus_device@@@?$_Default_allocator_traits@V?$allocator@PEAVbus_device@@@std@@@std@@SAXAEAV?$allocator@PEAVbus_device@@@1@QEAPEAVbus_device@@@Z
_TEXT	SEGMENT
__formal$ = 224
_Ptr$ = 232
??$destroy@PEAVbus_device@@@?$_Default_allocator_traits@V?$allocator@PEAVbus_device@@@std@@@std@@SAXAEAV?$allocator@PEAVbus_device@@@1@QEAPEAVbus_device@@@Z PROC ; std::_Default_allocator_traits<std::allocator<bus_device *> >::destroy<bus_device *>, COMDAT

; 886  : 		{	// destroy object at _Ptr

$LN3:
	mov	QWORD PTR [rsp+16], rdx
	mov	QWORD PTR [rsp+8], rcx
	push	rbp
	push	rdi
	sub	rsp, 232				; 000000e8H
	lea	rbp, QWORD PTR [rsp+32]
	mov	rdi, rsp
	mov	ecx, 58					; 0000003aH
	mov	eax, -858993460				; ccccccccH
	rep stosd
	mov	rcx, QWORD PTR [rsp+264]
	lea	rcx, OFFSET FLAT:__1CE3C767_xmemory0
	call	__CheckForDebuggerJustMyCode

; 887  : 		_Ptr->~_Uty();
; 888  : 		}

	lea	rsp, QWORD PTR [rbp+200]
	pop	rdi
	pop	rbp
	ret	0
??$destroy@PEAVbus_device@@@?$_Default_allocator_traits@V?$allocator@PEAVbus_device@@@std@@@std@@SAXAEAV?$allocator@PEAVbus_device@@@1@QEAPEAVbus_device@@@Z ENDP ; std::_Default_allocator_traits<std::allocator<bus_device *> >::destroy<bus_device *>
_TEXT	ENDS
; Function compile flags: /Odtp /RTCsu /ZI
; File c:\program files (x86)\microsoft visual studio\2017\community\vc\tools\msvc\14.16.27023\include\xstddef
;	COMDAT ??$_Unfancy@PEAVbus_device@@@std@@YAPEAPEAVbus_device@@PEAPEAV1@@Z
_TEXT	SEGMENT
_Ptr$ = 224
??$_Unfancy@PEAVbus_device@@@std@@YAPEAPEAVbus_device@@PEAPEAV1@@Z PROC ; std::_Unfancy<bus_device *>, COMDAT

; 345  : 	{	// do nothing for plain pointers

$LN3:
	mov	QWORD PTR [rsp+8], rcx
	push	rbp
	push	rdi
	sub	rsp, 232				; 000000e8H
	lea	rbp, QWORD PTR [rsp+32]
	mov	rdi, rsp
	mov	ecx, 58					; 0000003aH
	mov	eax, -858993460				; ccccccccH
	rep stosd
	mov	rcx, QWORD PTR [rsp+264]
	lea	rcx, OFFSET FLAT:__122CF1B0_xstddef
	call	__CheckForDebuggerJustMyCode

; 346  : 	return (_Ptr);

	mov	rax, QWORD PTR _Ptr$[rbp]

; 347  : 	}

	lea	rsp, QWORD PTR [rbp+200]
	pop	rdi
	pop	rbp
	ret	0
??$_Unfancy@PEAVbus_device@@@std@@YAPEAPEAVbus_device@@PEAPEAV1@@Z ENDP ; std::_Unfancy<bus_device *>
_TEXT	ENDS
; Function compile flags: /Odtp /RTCsu /ZI
; File c:\program files (x86)\microsoft visual studio\2017\community\vc\tools\msvc\14.16.27023\include\xutility
;	COMDAT ??$_Move_unchecked@PEAPEAVbus_device@@PEAPEAV1@@std@@YAPEAPEAVbus_device@@PEAPEAV1@00@Z
_TEXT	SEGMENT
$T1 = 196
$T2 = 228
_First$ = 288
_Last$ = 296
_Dest$ = 304
??$_Move_unchecked@PEAPEAVbus_device@@PEAPEAV1@@std@@YAPEAPEAVbus_device@@PEAPEAV1@00@Z PROC ; std::_Move_unchecked<bus_device * *,bus_device * *>, COMDAT

; 2734 : 	{	// move [_First, _Last) to [_Dest, ...), choose optimization

$LN3:
	mov	QWORD PTR [rsp+24], r8
	mov	QWORD PTR [rsp+16], rdx
	mov	QWORD PTR [rsp+8], rcx
	push	rbp
	push	rdi
	sub	rsp, 296				; 00000128H
	lea	rbp, QWORD PTR [rsp+32]
	mov	rdi, rsp
	mov	ecx, 74					; 0000004aH
	mov	eax, -858993460				; ccccccccH
	rep stosd
	mov	rcx, QWORD PTR [rsp+328]
	lea	rcx, OFFSET FLAT:__CDB00636_xutility
	call	__CheckForDebuggerJustMyCode

; 2735 : 		// note: _Move_unchecked is called directly from elsewhere in the STL
; 2736 : 	return (_Move_unchecked1(_First, _Last,

	lea	r8, QWORD PTR _Dest$[rbp]
	lea	rdx, QWORD PTR _First$[rbp]
	lea	rcx, QWORD PTR $T1[rbp]
	call	??$_Ptr_move_cat@PEAVbus_device@@PEAV1@@std@@YA?AU_Really_trivial_ptr_iterator_tag@0@AEBQEAPEAVbus_device@@0@Z ; std::_Ptr_move_cat<bus_device *,bus_device *>
	movzx	r9d, BYTE PTR $T2[rbp]
	mov	r8, QWORD PTR _Dest$[rbp]
	mov	rdx, QWORD PTR _Last$[rbp]
	mov	rcx, QWORD PTR _First$[rbp]
	call	??$_Move_unchecked1@PEAPEAVbus_device@@PEAPEAV1@@std@@YAPEAPEAVbus_device@@PEAPEAV1@00U_Trivially_copyable_ptr_iterator_tag@0@@Z ; std::_Move_unchecked1<bus_device * *,bus_device * *>

; 2737 : 		_Dest, _Ptr_move_cat(_First, _Dest)));
; 2738 : 	}

	lea	rsp, QWORD PTR [rbp+264]
	pop	rdi
	pop	rbp
	ret	0
??$_Move_unchecked@PEAPEAVbus_device@@PEAPEAV1@@std@@YAPEAPEAVbus_device@@PEAPEAV1@00@Z ENDP ; std::_Move_unchecked<bus_device * *,bus_device * *>
_TEXT	ENDS
; Function compile flags: /Odtp /RTCsu /ZI
; File c:\program files (x86)\microsoft visual studio\2017\community\vc\tools\msvc\14.16.27023\include\xstddef
;	COMDAT ??$addressof@V?$_Vector_val@U?$_Simple_types@PEAVbus_device@@@std@@@std@@@std@@YAPEAV?$_Vector_val@U?$_Simple_types@PEAVbus_device@@@std@@@0@AEAV10@@Z
_TEXT	SEGMENT
$T1 = 200
_Val$ = 256
??$addressof@V?$_Vector_val@U?$_Simple_types@PEAVbus_device@@@std@@@std@@@std@@YAPEAV?$_Vector_val@U?$_Simple_types@PEAVbus_device@@@std@@@0@AEAV10@@Z PROC ; std::addressof<std::_Vector_val<std::_Simple_types<bus_device *> > >, COMDAT

; 329  : 	{	// return address of _Val

$LN3:
	mov	QWORD PTR [rsp+8], rcx
	push	rbp
	push	rdi
	sub	rsp, 264				; 00000108H
	lea	rbp, QWORD PTR [rsp+32]
	mov	rdi, rsp
	mov	ecx, 66					; 00000042H
	mov	eax, -858993460				; ccccccccH
	rep stosd
	mov	rcx, QWORD PTR [rsp+296]
	mov	QWORD PTR $T1[rbp], -2
	lea	rcx, OFFSET FLAT:__122CF1B0_xstddef
	call	__CheckForDebuggerJustMyCode
	npad	1

; 330  : 	return (__builtin_addressof(_Val));

	mov	rax, QWORD PTR _Val$[rbp]

; 331  : 	}

	lea	rsp, QWORD PTR [rbp+232]
	pop	rdi
	pop	rbp
	ret	0
??$addressof@V?$_Vector_val@U?$_Simple_types@PEAVbus_device@@@std@@@std@@@std@@YAPEAV?$_Vector_val@U?$_Simple_types@PEAVbus_device@@@std@@@0@AEAV10@@Z ENDP ; std::addressof<std::_Vector_val<std::_Simple_types<bus_device *> > >
_TEXT	ENDS
; Function compile flags: /Odtp /RTCsu /ZI
; File c:\program files (x86)\microsoft visual studio\2017\community\vc\tools\msvc\14.16.27023\include\ostream
;	COMDAT ??$endl@DU?$char_traits@D@std@@@std@@YAAEAV?$basic_ostream@DU?$char_traits@D@std@@@0@AEAV10@@Z
_TEXT	SEGMENT
_Ostr$ = 224
??$endl@DU?$char_traits@D@std@@@std@@YAAEAV?$basic_ostream@DU?$char_traits@D@std@@@0@AEAV10@@Z PROC ; std::endl<char,std::char_traits<char> >, COMDAT

; 1019 : 	{	// insert newline and flush stream

$LN3:
	mov	QWORD PTR [rsp+8], rcx
	push	rbp
	push	rdi
	sub	rsp, 232				; 000000e8H
	lea	rbp, QWORD PTR [rsp+32]
	mov	rdi, rsp
	mov	ecx, 58					; 0000003aH
	mov	eax, -858993460				; ccccccccH
	rep stosd
	mov	rcx, QWORD PTR [rsp+264]
	lea	rcx, OFFSET FLAT:__375B2D08_ostream
	call	__CheckForDebuggerJustMyCode

; 1020 : 	_Ostr.put(_Ostr.widen('\n'));

	mov	rax, QWORD PTR _Ostr$[rbp]
	mov	rax, QWORD PTR [rax]
	movsxd	rax, DWORD PTR [rax+4]
	mov	rcx, QWORD PTR _Ostr$[rbp]
	add	rcx, rax
	mov	rax, rcx
	mov	dl, 10
	mov	rcx, rax
	call	QWORD PTR __imp_?widen@?$basic_ios@DU?$char_traits@D@std@@@std@@QEBADD@Z
	movzx	edx, al
	mov	rcx, QWORD PTR _Ostr$[rbp]
	call	QWORD PTR __imp_?put@?$basic_ostream@DU?$char_traits@D@std@@@std@@QEAAAEAV12@D@Z

; 1021 : 	_Ostr.flush();

	mov	rcx, QWORD PTR _Ostr$[rbp]
	call	QWORD PTR __imp_?flush@?$basic_ostream@DU?$char_traits@D@std@@@std@@QEAAAEAV12@XZ

; 1022 : 	return (_Ostr);

	mov	rax, QWORD PTR _Ostr$[rbp]

; 1023 : 	}

	lea	rsp, QWORD PTR [rbp+200]
	pop	rdi
	pop	rbp
	ret	0
??$endl@DU?$char_traits@D@std@@@std@@YAAEAV?$basic_ostream@DU?$char_traits@D@std@@@0@AEAV10@@Z ENDP ; std::endl<char,std::char_traits<char> >
_TEXT	ENDS
; Function compile flags: /Odtp /RTCsu /ZI
; File c:\program files (x86)\microsoft visual studio\2017\community\vc\tools\msvc\14.16.27023\include\ostream
;	COMDAT ??$?6U?$char_traits@D@std@@@std@@YAAEAV?$basic_ostream@DU?$char_traits@D@std@@@0@AEAV10@PEBD@Z
_TEXT	SEGMENT
_State$ = 4
_Count$ = 40
_Pad$ = 72
_Ok$ = 104
$T4 = 340
$T5 = 372
$T6 = 404
$T7 = 436
$T8 = 472
$T9 = 504
tv300 = 516
tv295 = 516
tv139 = 516
tv301 = 520
tv298 = 520
tv296 = 520
tv137 = 520
tv302 = 528
tv299 = 528
tv297 = 528
__$ArrayPad$ = 536
_Ostr$ = 576
_Val$ = 584
??$?6U?$char_traits@D@std@@@std@@YAAEAV?$basic_ostream@DU?$char_traits@D@std@@@0@AEAV10@PEBD@Z PROC ; std::operator<<<std::char_traits<char> >, COMDAT

; 790  : 	{	// insert NTBS into char stream

$LN25:
	mov	QWORD PTR [rsp+16], rdx
	mov	QWORD PTR [rsp+8], rcx
	push	rbp
	push	rdi
	sub	rsp, 584				; 00000248H
	lea	rbp, QWORD PTR [rsp+32]
	mov	rdi, rsp
	mov	ecx, 146				; 00000092H
	mov	eax, -858993460				; ccccccccH
	rep stosd
	mov	rcx, QWORD PTR [rsp+616]
	mov	QWORD PTR $T9[rbp], -2
	mov	rax, QWORD PTR __security_cookie
	xor	rax, rbp
	mov	QWORD PTR __$ArrayPad$[rbp], rax
	lea	rcx, OFFSET FLAT:__375B2D08_ostream
	call	__CheckForDebuggerJustMyCode

; 791  : 	typedef char _Elem;
; 792  : 	typedef basic_ostream<_Elem, _Traits> _Myos;
; 793  : 	ios_base::iostate _State = ios_base::goodbit;

	mov	DWORD PTR _State$[rbp], 0

; 794  : 	streamsize _Count = (streamsize)_Traits::length(_Val);	// may overflow

	mov	rcx, QWORD PTR _Val$[rbp]
	call	?length@?$char_traits@D@std@@SA_KQEBD@Z	; std::char_traits<char>::length
	mov	QWORD PTR _Count$[rbp], rax

; 795  : 	streamsize _Pad = _Ostr.width() <= 0 || _Ostr.width() <= _Count

	mov	rax, QWORD PTR _Ostr$[rbp]
	mov	rax, QWORD PTR [rax]
	movsxd	rax, DWORD PTR [rax+4]
	mov	rcx, QWORD PTR _Ostr$[rbp]
	add	rcx, rax
	mov	rax, rcx
	mov	rcx, rax
	call	QWORD PTR __imp_?width@ios_base@std@@QEBA_JXZ
	test	rax, rax
	jle	SHORT $LN17@operator
	mov	rax, QWORD PTR _Ostr$[rbp]
	mov	rax, QWORD PTR [rax]
	movsxd	rax, DWORD PTR [rax+4]
	mov	rcx, QWORD PTR _Ostr$[rbp]
	add	rcx, rax
	mov	rax, rcx
	mov	rcx, rax
	call	QWORD PTR __imp_?width@ios_base@std@@QEBA_JXZ
	cmp	rax, QWORD PTR _Count$[rbp]
	jle	SHORT $LN17@operator
	mov	rax, QWORD PTR _Ostr$[rbp]
	mov	rax, QWORD PTR [rax]
	movsxd	rax, DWORD PTR [rax+4]
	mov	rcx, QWORD PTR _Ostr$[rbp]
	add	rcx, rax
	mov	rax, rcx
	mov	rcx, rax
	call	QWORD PTR __imp_?width@ios_base@std@@QEBA_JXZ
	sub	rax, QWORD PTR _Count$[rbp]
	mov	QWORD PTR tv137[rbp], rax
	jmp	SHORT $LN18@operator
$LN17@operator:
	mov	QWORD PTR tv137[rbp], 0
$LN18@operator:
	mov	rax, QWORD PTR tv137[rbp]
	mov	QWORD PTR _Pad$[rbp], rax

; 796  : 		? 0 : _Ostr.width() - _Count;
; 797  : 	const typename _Myos::sentry _Ok(_Ostr);

	mov	rdx, QWORD PTR _Ostr$[rbp]
	lea	rcx, QWORD PTR _Ok$[rbp]
	call	??0sentry@?$basic_ostream@DU?$char_traits@D@std@@@std@@QEAA@AEAV12@@Z ; std::basic_ostream<char,std::char_traits<char> >::sentry::sentry
	npad	1

; 798  : 
; 799  : 	if (!_Ok)

	lea	rcx, QWORD PTR _Ok$[rbp]
	call	??Bsentry@?$basic_ostream@DU?$char_traits@D@std@@@std@@QEBA_NXZ ; std::basic_ostream<char,std::char_traits<char> >::sentry::operator bool
	movzx	eax, al
	test	eax, eax
	jne	SHORT $LN8@operator

; 800  : 		_State |= ios_base::badbit;

	mov	eax, DWORD PTR _State$[rbp]
	or	eax, 4
	mov	DWORD PTR _State$[rbp], eax

; 801  : 	else

	jmp	$LN9@operator
$LN8@operator:

; 802  : 		{	// state okay, insert
; 803  : 		_TRY_IO_BEGIN
; 804  : 		if ((_Ostr.flags() & ios_base::adjustfield) != ios_base::left)

	mov	rax, QWORD PTR _Ostr$[rbp]
	mov	rax, QWORD PTR [rax]
	movsxd	rax, DWORD PTR [rax+4]
	mov	rcx, QWORD PTR _Ostr$[rbp]
	add	rcx, rax
	mov	rax, rcx
	mov	rcx, rax
	call	QWORD PTR __imp_?flags@ios_base@std@@QEBAHXZ
	mov	DWORD PTR tv139[rbp], eax
	mov	eax, DWORD PTR tv139[rbp]
	and	eax, 448				; 000001c0H
	cmp	eax, 64					; 00000040H
	je	$LN11@operator

; 805  : 			for (; 0 < _Pad; --_Pad)	// pad on left

	jmp	SHORT $LN4@operator
$LN2@operator:
	mov	rax, QWORD PTR _Pad$[rbp]
	dec	rax
	mov	QWORD PTR _Pad$[rbp], rax
$LN4@operator:
	cmp	QWORD PTR _Pad$[rbp], 0
	jle	$LN11@operator

; 806  : 				if (_Traits::eq_int_type(_Traits::eof(),

	mov	rax, QWORD PTR _Ostr$[rbp]
	mov	rax, QWORD PTR [rax]
	movsxd	rax, DWORD PTR [rax+4]
	mov	rcx, QWORD PTR _Ostr$[rbp]
	add	rcx, rax
	mov	rax, rcx
	mov	rcx, rax
	call	QWORD PTR __imp_?fill@?$basic_ios@DU?$char_traits@D@std@@@std@@QEBADXZ
	mov	BYTE PTR tv295[rbp], al
	mov	rax, QWORD PTR _Ostr$[rbp]
	mov	rax, QWORD PTR [rax]
	movsxd	rax, DWORD PTR [rax+4]
	mov	rcx, QWORD PTR _Ostr$[rbp]
	add	rcx, rax
	mov	rax, rcx
	mov	rcx, rax
	call	QWORD PTR __imp_?rdbuf@?$basic_ios@DU?$char_traits@D@std@@@std@@QEBAPEAV?$basic_streambuf@DU?$char_traits@D@std@@@2@XZ
	mov	QWORD PTR tv296[rbp], rax
	movzx	edx, BYTE PTR tv295[rbp]
	mov	rcx, QWORD PTR tv296[rbp]
	call	QWORD PTR __imp_?sputc@?$basic_streambuf@DU?$char_traits@D@std@@@std@@QEAAHD@Z
	mov	DWORD PTR tv297[rbp], eax
	mov	eax, DWORD PTR tv297[rbp]
	mov	DWORD PTR $T4[rbp], eax
	call	?eof@?$char_traits@D@std@@SAHXZ		; std::char_traits<char>::eof
	mov	DWORD PTR $T5[rbp], eax
	lea	rdx, QWORD PTR $T4[rbp]
	lea	rcx, QWORD PTR $T5[rbp]
	call	?eq_int_type@?$char_traits@D@std@@SA_NAEBH0@Z ; std::char_traits<char>::eq_int_type
	movzx	eax, al
	test	eax, eax
	je	SHORT $LN12@operator

; 807  : 					_Ostr.rdbuf()->sputc(_Ostr.fill())))
; 808  : 					{	// insertion failed, quit
; 809  : 					_State |= ios_base::badbit;

	mov	eax, DWORD PTR _State$[rbp]
	or	eax, 4
	mov	DWORD PTR _State$[rbp], eax

; 810  : 					break;

	jmp	SHORT $LN11@operator
$LN12@operator:

; 811  : 					}
; 812  : 
; 813  : 		if (_State == ios_base::goodbit

	jmp	$LN2@operator
$LN11@operator:

; 814  : 			&& _Ostr.rdbuf()->sputn(_Val, _Count) != _Count)

	cmp	DWORD PTR _State$[rbp], 0
	jne	SHORT $LN13@operator
	mov	rax, QWORD PTR _Ostr$[rbp]
	mov	rax, QWORD PTR [rax]
	movsxd	rax, DWORD PTR [rax+4]
	mov	rcx, QWORD PTR _Ostr$[rbp]
	add	rcx, rax
	mov	rax, rcx
	mov	rcx, rax
	call	QWORD PTR __imp_?rdbuf@?$basic_ios@DU?$char_traits@D@std@@@std@@QEBAPEAV?$basic_streambuf@DU?$char_traits@D@std@@@2@XZ
	mov	QWORD PTR tv298[rbp], rax
	mov	r8, QWORD PTR _Count$[rbp]
	mov	rdx, QWORD PTR _Val$[rbp]
	mov	rcx, QWORD PTR tv298[rbp]
	call	QWORD PTR __imp_?sputn@?$basic_streambuf@DU?$char_traits@D@std@@@std@@QEAA_JPEBD_J@Z
	mov	QWORD PTR tv299[rbp], rax
	mov	rax, QWORD PTR _Count$[rbp]
	cmp	QWORD PTR tv299[rbp], rax
	je	SHORT $LN13@operator

; 815  : 			_State |= ios_base::badbit;

	mov	eax, DWORD PTR _State$[rbp]
	or	eax, 4
	mov	DWORD PTR _State$[rbp], eax
$LN13@operator:

; 816  : 
; 817  : 		if (_State == ios_base::goodbit)

	cmp	DWORD PTR _State$[rbp], 0
	jne	$LN14@operator

; 818  : 			for (; 0 < _Pad; --_Pad)	// pad on right

	jmp	SHORT $LN7@operator
$LN5@operator:
	mov	rax, QWORD PTR _Pad$[rbp]
	dec	rax
	mov	QWORD PTR _Pad$[rbp], rax
$LN7@operator:
	cmp	QWORD PTR _Pad$[rbp], 0
	jle	$LN14@operator

; 819  : 				if (_Traits::eq_int_type(_Traits::eof(),

	mov	rax, QWORD PTR _Ostr$[rbp]
	mov	rax, QWORD PTR [rax]
	movsxd	rax, DWORD PTR [rax+4]
	mov	rcx, QWORD PTR _Ostr$[rbp]
	add	rcx, rax
	mov	rax, rcx
	mov	rcx, rax
	call	QWORD PTR __imp_?fill@?$basic_ios@DU?$char_traits@D@std@@@std@@QEBADXZ
	mov	BYTE PTR tv300[rbp], al
	mov	rax, QWORD PTR _Ostr$[rbp]
	mov	rax, QWORD PTR [rax]
	movsxd	rax, DWORD PTR [rax+4]
	mov	rcx, QWORD PTR _Ostr$[rbp]
	add	rcx, rax
	mov	rax, rcx
	mov	rcx, rax
	call	QWORD PTR __imp_?rdbuf@?$basic_ios@DU?$char_traits@D@std@@@std@@QEBAPEAV?$basic_streambuf@DU?$char_traits@D@std@@@2@XZ
	mov	QWORD PTR tv301[rbp], rax
	movzx	edx, BYTE PTR tv300[rbp]
	mov	rcx, QWORD PTR tv301[rbp]
	call	QWORD PTR __imp_?sputc@?$basic_streambuf@DU?$char_traits@D@std@@@std@@QEAAHD@Z
	mov	DWORD PTR tv302[rbp], eax
	mov	eax, DWORD PTR tv302[rbp]
	mov	DWORD PTR $T6[rbp], eax
	call	?eof@?$char_traits@D@std@@SAHXZ		; std::char_traits<char>::eof
	mov	DWORD PTR $T7[rbp], eax
	lea	rdx, QWORD PTR $T6[rbp]
	lea	rcx, QWORD PTR $T7[rbp]
	call	?eq_int_type@?$char_traits@D@std@@SA_NAEBH0@Z ; std::char_traits<char>::eq_int_type
	movzx	eax, al
	test	eax, eax
	je	SHORT $LN15@operator

; 820  : 					_Ostr.rdbuf()->sputc(_Ostr.fill())))
; 821  : 					{	// insertion failed, quit
; 822  : 					_State |= ios_base::badbit;

	mov	eax, DWORD PTR _State$[rbp]
	or	eax, 4
	mov	DWORD PTR _State$[rbp], eax

; 823  : 					break;

	jmp	SHORT $LN14@operator
$LN15@operator:

; 824  : 					}

	jmp	$LN5@operator
$LN14@operator:

; 825  : 		_Ostr.width(0);

	mov	rax, QWORD PTR _Ostr$[rbp]
	mov	rax, QWORD PTR [rax]
	movsxd	rax, DWORD PTR [rax+4]
	mov	rcx, QWORD PTR _Ostr$[rbp]
	add	rcx, rax
	mov	rax, rcx
	xor	edx, edx
	mov	rcx, rax
	call	QWORD PTR __imp_?width@ios_base@std@@QEAA_J_J@Z
	npad	1
	jmp	SHORT $LN9@operator
$LN23@operator:
$LN9@operator:

; 826  : 		_CATCH_IO_(_Ostr)
; 827  : 		}
; 828  : 
; 829  : 	_Ostr.setstate(_State);

	mov	rax, QWORD PTR _Ostr$[rbp]
	mov	rax, QWORD PTR [rax]
	movsxd	rax, DWORD PTR [rax+4]
	mov	rcx, QWORD PTR _Ostr$[rbp]
	add	rcx, rax
	mov	rax, rcx
	xor	r8d, r8d
	mov	edx, DWORD PTR _State$[rbp]
	mov	rcx, rax
	call	QWORD PTR __imp_?setstate@?$basic_ios@DU?$char_traits@D@std@@@std@@QEAAXH_N@Z

; 830  : 	return (_Ostr);

	mov	rax, QWORD PTR _Ostr$[rbp]
	mov	QWORD PTR $T8[rbp], rax
	lea	rcx, QWORD PTR _Ok$[rbp]
	call	??1sentry@?$basic_ostream@DU?$char_traits@D@std@@@std@@QEAA@XZ ; std::basic_ostream<char,std::char_traits<char> >::sentry::~sentry
	mov	rax, QWORD PTR $T8[rbp]

; 831  : 	}

	mov	rdi, rax
	lea	rcx, QWORD PTR [rbp-32]
	lea	rdx, OFFSET FLAT:??$?6U?$char_traits@D@std@@@std@@YAAEAV?$basic_ostream@DU?$char_traits@D@std@@@0@AEAV10@PEBD@Z$rtcFrameData
	call	_RTC_CheckStackVars
	mov	rax, rdi
	mov	rcx, QWORD PTR __$ArrayPad$[rbp]
	xor	rcx, rbp
	call	__security_check_cookie
	lea	rsp, QWORD PTR [rbp+552]
	pop	rdi
	pop	rbp
	ret	0
??$?6U?$char_traits@D@std@@@std@@YAAEAV?$basic_ostream@DU?$char_traits@D@std@@@0@AEAV10@PEBD@Z ENDP ; std::operator<<<std::char_traits<char> >
_TEXT	ENDS
;	COMDAT text$x
text$x	SEGMENT
_State$ = 4
_Count$ = 40
_Pad$ = 72
_Ok$ = 104
$T4 = 340
$T5 = 372
$T6 = 404
$T7 = 436
$T8 = 472
$T9 = 504
tv300 = 516
tv295 = 516
tv139 = 516
tv301 = 520
tv298 = 520
tv296 = 520
tv137 = 520
tv302 = 528
tv299 = 528
tv297 = 528
__$ArrayPad$ = 536
_Ostr$ = 576
_Val$ = 584
?dtor$0@?0???$?6U?$char_traits@D@std@@@std@@YAAEAV?$basic_ostream@DU?$char_traits@D@std@@@0@AEAV10@PEBD@Z@4HA PROC ; `std::operator<<<std::char_traits<char> >'::`1'::dtor$0
	mov	QWORD PTR [rsp+8], rcx
	mov	QWORD PTR [rsp+16], rdx
	push	rbp
	push	rdi
	sub	rsp, 40					; 00000028H
	lea	rbp, QWORD PTR [rdx+32]
	lea	rcx, QWORD PTR _Ok$[rbp]
	call	??1sentry@?$basic_ostream@DU?$char_traits@D@std@@@std@@QEAA@XZ ; std::basic_ostream<char,std::char_traits<char> >::sentry::~sentry
	add	rsp, 40					; 00000028H
	pop	rdi
	pop	rbp
	ret	0
?dtor$0@?0???$?6U?$char_traits@D@std@@@std@@YAAEAV?$basic_ostream@DU?$char_traits@D@std@@@0@AEAV10@PEBD@Z@4HA ENDP ; `std::operator<<<std::char_traits<char> >'::`1'::dtor$0
text$x	ENDS
;	COMDAT text$x
text$x	SEGMENT
_State$ = 4
_Count$ = 40
_Pad$ = 72
_Ok$ = 104
$T4 = 340
$T5 = 372
$T6 = 404
$T7 = 436
$T8 = 472
$T9 = 504
tv300 = 516
tv295 = 516
tv139 = 516
tv301 = 520
tv298 = 520
tv296 = 520
tv137 = 520
tv302 = 528
tv299 = 528
tv297 = 528
__$ArrayPad$ = 536
_Ostr$ = 576
_Val$ = 584
?catch$1@?0???$?6U?$char_traits@D@std@@@std@@YAAEAV?$basic_ostream@DU?$char_traits@D@std@@@0@AEAV10@PEBD@Z@4HA PROC ; `std::operator<<<std::char_traits<char> >'::`1'::catch$1

; 826  : 		_CATCH_IO_(_Ostr)

	mov	QWORD PTR [rsp+8], rcx
	mov	QWORD PTR [rsp+16], rdx
	push	rbp
	push	rdi
	sub	rsp, 40					; 00000028H
	lea	rbp, QWORD PTR [rdx+32]
__catch$??$?6U?$char_traits@D@std@@@std@@YAAEAV?$basic_ostream@DU?$char_traits@D@std@@@0@AEAV10@PEBD@Z$0:
	mov	rax, QWORD PTR _Ostr$[rbp]
	mov	rax, QWORD PTR [rax]
	movsxd	rax, DWORD PTR [rax+4]
	mov	rcx, QWORD PTR _Ostr$[rbp]
	add	rcx, rax
	mov	rax, rcx
	mov	r8b, 1
	mov	edx, 4
	mov	rcx, rax
	call	QWORD PTR __imp_?setstate@?$basic_ios@DU?$char_traits@D@std@@@std@@QEAAXH_N@Z
	npad	1
	lea	rax, $LN23@catch$1
	add	rsp, 40					; 00000028H
	pop	rdi
	pop	rbp
	ret	0
	int	3
?catch$1@?0???$?6U?$char_traits@D@std@@@std@@YAAEAV?$basic_ostream@DU?$char_traits@D@std@@@0@AEAV10@PEBD@Z@4HA ENDP ; `std::operator<<<std::char_traits<char> >'::`1'::catch$1
text$x	ENDS
; Function compile flags: /Odtp /RTCsu /ZI
;	COMDAT text$x
text$x	SEGMENT
_State$ = 4
_Count$ = 40
_Pad$ = 72
_Ok$ = 104
$T4 = 340
$T5 = 372
$T6 = 404
$T7 = 436
$T8 = 472
$T9 = 504
tv300 = 516
tv295 = 516
tv139 = 516
tv301 = 520
tv298 = 520
tv296 = 520
tv137 = 520
tv302 = 528
tv299 = 528
tv297 = 528
__$ArrayPad$ = 536
_Ostr$ = 576
_Val$ = 584
?dtor$0@?0???$?6U?$char_traits@D@std@@@std@@YAAEAV?$basic_ostream@DU?$char_traits@D@std@@@0@AEAV10@PEBD@Z@4HA PROC ; `std::operator<<<std::char_traits<char> >'::`1'::dtor$0
	mov	QWORD PTR [rsp+8], rcx
	mov	QWORD PTR [rsp+16], rdx
	push	rbp
	push	rdi
	sub	rsp, 40					; 00000028H
	lea	rbp, QWORD PTR [rdx+32]
	lea	rcx, QWORD PTR _Ok$[rbp]
	call	??1sentry@?$basic_ostream@DU?$char_traits@D@std@@@std@@QEAA@XZ ; std::basic_ostream<char,std::char_traits<char> >::sentry::~sentry
	add	rsp, 40					; 00000028H
	pop	rdi
	pop	rbp
	ret	0
?dtor$0@?0???$?6U?$char_traits@D@std@@@std@@YAAEAV?$basic_ostream@DU?$char_traits@D@std@@@0@AEAV10@PEBD@Z@4HA ENDP ; `std::operator<<<std::char_traits<char> >'::`1'::dtor$0
text$x	ENDS
; Function compile flags: /Odtp /RTCsu /ZI
;	COMDAT text$x
text$x	SEGMENT
_State$ = 4
_Count$ = 40
_Pad$ = 72
_Ok$ = 104
$T4 = 340
$T5 = 372
$T6 = 404
$T7 = 436
$T8 = 472
$T9 = 504
tv300 = 516
tv295 = 516
tv139 = 516
tv301 = 520
tv298 = 520
tv296 = 520
tv137 = 520
tv302 = 528
tv299 = 528
tv297 = 528
__$ArrayPad$ = 536
_Ostr$ = 576
_Val$ = 584
?catch$1@?0???$?6U?$char_traits@D@std@@@std@@YAAEAV?$basic_ostream@DU?$char_traits@D@std@@@0@AEAV10@PEBD@Z@4HA PROC ; `std::operator<<<std::char_traits<char> >'::`1'::catch$1

; 826  : 		_CATCH_IO_(_Ostr)

	mov	QWORD PTR [rsp+8], rcx
	mov	QWORD PTR [rsp+16], rdx
	push	rbp
	push	rdi
	sub	rsp, 40					; 00000028H
	lea	rbp, QWORD PTR [rdx+32]
__catch$??$?6U?$char_traits@D@std@@@std@@YAAEAV?$basic_ostream@DU?$char_traits@D@std@@@0@AEAV10@PEBD@Z$0:
	mov	rax, QWORD PTR _Ostr$[rbp]
	mov	rax, QWORD PTR [rax]
	movsxd	rax, DWORD PTR [rax+4]
	mov	rcx, QWORD PTR _Ostr$[rbp]
	add	rcx, rax
	mov	rax, rcx
	mov	r8b, 1
	mov	edx, 4
	mov	rcx, rax
	call	QWORD PTR __imp_?setstate@?$basic_ios@DU?$char_traits@D@std@@@std@@QEAAXH_N@Z
	npad	1
	lea	rax, $LN23@catch$1
	add	rsp, 40					; 00000028H
	pop	rdi
	pop	rbp
	ret	0
	int	3
?catch$1@?0???$?6U?$char_traits@D@std@@@std@@YAAEAV?$basic_ostream@DU?$char_traits@D@std@@@0@AEAV10@PEBD@Z@4HA ENDP ; `std::operator<<<std::char_traits<char> >'::`1'::catch$1
text$x	ENDS
; Function compile flags: /Odtp /RTCsu /ZI
;	COMDAT ?__autoclassinit2@?$_Vector_iterator@V?$_Vector_val@U?$_Simple_types@PEAVbus_device@@@std@@@std@@@std@@QEAAX_K@Z
_TEXT	SEGMENT
this$ = 224
classSize$ = 232
?__autoclassinit2@?$_Vector_iterator@V?$_Vector_val@U?$_Simple_types@PEAVbus_device@@@std@@@std@@@std@@QEAAX_K@Z PROC ; std::_Vector_iterator<std::_Vector_val<std::_Simple_types<bus_device *> > >::__autoclassinit2, COMDAT
$LN3:
	mov	QWORD PTR [rsp+16], rdx
	mov	QWORD PTR [rsp+8], rcx
	push	rbp
	push	rdi
	sub	rsp, 200				; 000000c8H
	mov	rbp, rsp
	mov	rdi, rsp
	mov	ecx, 50					; 00000032H
	mov	eax, -858993460				; ccccccccH
	rep stosd
	mov	rcx, QWORD PTR [rsp+232]
	mov	rdi, QWORD PTR this$[rbp]
	xor	eax, eax
	mov	rcx, QWORD PTR classSize$[rbp]
	rep stosb
	lea	rsp, QWORD PTR [rbp+200]
	pop	rdi
	pop	rbp
	ret	0
?__autoclassinit2@?$_Vector_iterator@V?$_Vector_val@U?$_Simple_types@PEAVbus_device@@@std@@@std@@@std@@QEAAX_K@Z ENDP ; std::_Vector_iterator<std::_Vector_val<std::_Simple_types<bus_device *> > >::__autoclassinit2
_TEXT	ENDS
; Function compile flags: /Odtp /RTCsu /ZI
;	COMDAT ??0?$_Vector_iterator@V?$_Vector_val@U?$_Simple_types@PEAVbus_device@@@std@@@std@@@std@@QEAA@AEBV01@@Z
_TEXT	SEGMENT
this$ = 224
__that$ = 232
??0?$_Vector_iterator@V?$_Vector_val@U?$_Simple_types@PEAVbus_device@@@std@@@std@@@std@@QEAA@AEBV01@@Z PROC ; std::_Vector_iterator<std::_Vector_val<std::_Simple_types<bus_device *> > >::_Vector_iterator<std::_Vector_val<std::_Simple_types<bus_device *> > >, COMDAT
$LN3:
	mov	QWORD PTR [rsp+16], rdx
	mov	QWORD PTR [rsp+8], rcx
	push	rbp
	push	rdi
	sub	rsp, 232				; 000000e8H
	lea	rbp, QWORD PTR [rsp+32]
	mov	rdi, rsp
	mov	ecx, 58					; 0000003aH
	mov	eax, -858993460				; ccccccccH
	rep stosd
	mov	rcx, QWORD PTR [rsp+264]
	mov	rdx, QWORD PTR __that$[rbp]
	mov	rcx, QWORD PTR this$[rbp]
	call	??0?$_Vector_const_iterator@V?$_Vector_val@U?$_Simple_types@PEAVbus_device@@@std@@@std@@@std@@QEAA@AEBV01@@Z
	mov	rax, QWORD PTR this$[rbp]
	lea	rsp, QWORD PTR [rbp+200]
	pop	rdi
	pop	rbp
	ret	0
??0?$_Vector_iterator@V?$_Vector_val@U?$_Simple_types@PEAVbus_device@@@std@@@std@@@std@@QEAA@AEBV01@@Z ENDP ; std::_Vector_iterator<std::_Vector_val<std::_Simple_types<bus_device *> > >::_Vector_iterator<std::_Vector_val<std::_Simple_types<bus_device *> > >
_TEXT	ENDS
; Function compile flags: /Odtp /RTCsu /ZI
;	COMDAT ??1?$_Vector_iterator@V?$_Vector_val@U?$_Simple_types@PEAVbus_device@@@std@@@std@@@std@@QEAA@XZ
_TEXT	SEGMENT
this$ = 224
??1?$_Vector_iterator@V?$_Vector_val@U?$_Simple_types@PEAVbus_device@@@std@@@std@@@std@@QEAA@XZ PROC ; std::_Vector_iterator<std::_Vector_val<std::_Simple_types<bus_device *> > >::~_Vector_iterator<std::_Vector_val<std::_Simple_types<bus_device *> > >, COMDAT
$LN3:
	mov	QWORD PTR [rsp+8], rcx
	push	rbp
	push	rdi
	sub	rsp, 232				; 000000e8H
	lea	rbp, QWORD PTR [rsp+32]
	mov	rdi, rsp
	mov	ecx, 58					; 0000003aH
	mov	eax, -858993460				; ccccccccH
	rep stosd
	mov	rcx, QWORD PTR [rsp+264]
	mov	rcx, QWORD PTR this$[rbp]
	call	??1?$_Vector_const_iterator@V?$_Vector_val@U?$_Simple_types@PEAVbus_device@@@std@@@std@@@std@@QEAA@XZ
	lea	rsp, QWORD PTR [rbp+200]
	pop	rdi
	pop	rbp
	ret	0
??1?$_Vector_iterator@V?$_Vector_val@U?$_Simple_types@PEAVbus_device@@@std@@@std@@@std@@QEAA@XZ ENDP ; std::_Vector_iterator<std::_Vector_val<std::_Simple_types<bus_device *> > >::~_Vector_iterator<std::_Vector_val<std::_Simple_types<bus_device *> > >
_TEXT	ENDS
; Function compile flags: /Odtp /RTCsu /ZI
; File c:\program files (x86)\microsoft visual studio\2017\community\vc\tools\msvc\14.16.27023\include\vector
;	COMDAT ??H?$_Vector_iterator@V?$_Vector_val@U?$_Simple_types@PEAVbus_device@@@std@@@std@@@std@@QEBA?AV01@_J@Z
_TEXT	SEGMENT
_Tmp$ = 8
$T4 = 244
$T5 = 280
__$ArrayPad$ = 296
this$ = 336
__$ReturnUdt$ = 344
_Off$ = 352
??H?$_Vector_iterator@V?$_Vector_val@U?$_Simple_types@PEAVbus_device@@@std@@@std@@@std@@QEBA?AV01@_J@Z PROC ; std::_Vector_iterator<std::_Vector_val<std::_Simple_types<bus_device *> > >::operator+, COMDAT

; 299  : 		{	// return this + integer

$LN6:
	mov	QWORD PTR [rsp+24], r8
	mov	QWORD PTR [rsp+16], rdx
	mov	QWORD PTR [rsp+8], rcx
	push	rbp
	push	rdi
	sub	rsp, 344				; 00000158H
	lea	rbp, QWORD PTR [rsp+32]
	mov	rdi, rsp
	mov	ecx, 86					; 00000056H
	mov	eax, -858993460				; ccccccccH
	rep stosd
	mov	rcx, QWORD PTR [rsp+376]
	mov	QWORD PTR $T5[rbp], -2
	mov	rax, QWORD PTR __security_cookie
	xor	rax, rbp
	mov	QWORD PTR __$ArrayPad$[rbp], rax
	mov	DWORD PTR $T4[rbp], 0
	lea	rcx, OFFSET FLAT:__FF7D7337_vector
	call	__CheckForDebuggerJustMyCode

; 300  : 		_Vector_iterator _Tmp = *this;

	mov	edx, 24
	lea	rcx, QWORD PTR _Tmp$[rbp]
	call	?__autoclassinit2@?$_Vector_iterator@V?$_Vector_val@U?$_Simple_types@PEAVbus_device@@@std@@@std@@@std@@QEAAX_K@Z
	mov	rdx, QWORD PTR this$[rbp]
	lea	rcx, QWORD PTR _Tmp$[rbp]
	call	??0?$_Vector_iterator@V?$_Vector_val@U?$_Simple_types@PEAVbus_device@@@std@@@std@@@std@@QEAA@AEBV01@@Z
	npad	1

; 301  : 		return (_Tmp += _Off);

	mov	rdx, QWORD PTR _Off$[rbp]
	lea	rcx, QWORD PTR _Tmp$[rbp]
	call	??Y?$_Vector_iterator@V?$_Vector_val@U?$_Simple_types@PEAVbus_device@@@std@@@std@@@std@@QEAAAEAV01@_J@Z ; std::_Vector_iterator<std::_Vector_val<std::_Simple_types<bus_device *> > >::operator+=
	mov	rdx, rax
	mov	rcx, QWORD PTR __$ReturnUdt$[rbp]
	call	??0?$_Vector_iterator@V?$_Vector_val@U?$_Simple_types@PEAVbus_device@@@std@@@std@@@std@@QEAA@AEBV01@@Z
	mov	eax, DWORD PTR $T4[rbp]
	or	eax, 1
	mov	DWORD PTR $T4[rbp], eax
	lea	rcx, QWORD PTR _Tmp$[rbp]
	call	??1?$_Vector_iterator@V?$_Vector_val@U?$_Simple_types@PEAVbus_device@@@std@@@std@@@std@@QEAA@XZ
	mov	rax, QWORD PTR __$ReturnUdt$[rbp]

; 302  : 		}

	mov	rdi, rax
	lea	rcx, QWORD PTR [rbp-32]
	lea	rdx, OFFSET FLAT:??H?$_Vector_iterator@V?$_Vector_val@U?$_Simple_types@PEAVbus_device@@@std@@@std@@@std@@QEBA?AV01@_J@Z$rtcFrameData
	call	_RTC_CheckStackVars
	mov	rax, rdi
	mov	rcx, QWORD PTR __$ArrayPad$[rbp]
	xor	rcx, rbp
	call	__security_check_cookie
	lea	rsp, QWORD PTR [rbp+312]
	pop	rdi
	pop	rbp
	ret	0
??H?$_Vector_iterator@V?$_Vector_val@U?$_Simple_types@PEAVbus_device@@@std@@@std@@@std@@QEBA?AV01@_J@Z ENDP ; std::_Vector_iterator<std::_Vector_val<std::_Simple_types<bus_device *> > >::operator+
_TEXT	ENDS
;	COMDAT text$x
text$x	SEGMENT
_Tmp$ = 8
$T4 = 244
$T5 = 280
__$ArrayPad$ = 296
this$ = 336
__$ReturnUdt$ = 344
_Off$ = 352
?dtor$0@?0???H?$_Vector_iterator@V?$_Vector_val@U?$_Simple_types@PEAVbus_device@@@std@@@std@@@std@@QEBA?AV01@_J@Z@4HA PROC ; `std::_Vector_iterator<std::_Vector_val<std::_Simple_types<bus_device *> > >::operator+'::`1'::dtor$0
	mov	QWORD PTR [rsp+8], rcx
	mov	QWORD PTR [rsp+16], rdx
	push	rbp
	push	rdi
	sub	rsp, 40					; 00000028H
	lea	rbp, QWORD PTR [rdx+32]
	lea	rcx, QWORD PTR _Tmp$[rbp]
	call	??1?$_Vector_iterator@V?$_Vector_val@U?$_Simple_types@PEAVbus_device@@@std@@@std@@@std@@QEAA@XZ
	add	rsp, 40					; 00000028H
	pop	rdi
	pop	rbp
	ret	0
?dtor$0@?0???H?$_Vector_iterator@V?$_Vector_val@U?$_Simple_types@PEAVbus_device@@@std@@@std@@@std@@QEBA?AV01@_J@Z@4HA ENDP ; `std::_Vector_iterator<std::_Vector_val<std::_Simple_types<bus_device *> > >::operator+'::`1'::dtor$0
text$x	ENDS
; Function compile flags: /Odtp /RTCsu /ZI
;	COMDAT text$x
text$x	SEGMENT
_Tmp$ = 8
$T4 = 244
$T5 = 280
__$ArrayPad$ = 296
this$ = 336
__$ReturnUdt$ = 344
_Off$ = 352
?dtor$0@?0???H?$_Vector_iterator@V?$_Vector_val@U?$_Simple_types@PEAVbus_device@@@std@@@std@@@std@@QEBA?AV01@_J@Z@4HA PROC ; `std::_Vector_iterator<std::_Vector_val<std::_Simple_types<bus_device *> > >::operator+'::`1'::dtor$0
	mov	QWORD PTR [rsp+8], rcx
	mov	QWORD PTR [rsp+16], rdx
	push	rbp
	push	rdi
	sub	rsp, 40					; 00000028H
	lea	rbp, QWORD PTR [rdx+32]
	lea	rcx, QWORD PTR _Tmp$[rbp]
	call	??1?$_Vector_iterator@V?$_Vector_val@U?$_Simple_types@PEAVbus_device@@@std@@@std@@@std@@QEAA@XZ
	add	rsp, 40					; 00000028H
	pop	rdi
	pop	rbp
	ret	0
?dtor$0@?0???H?$_Vector_iterator@V?$_Vector_val@U?$_Simple_types@PEAVbus_device@@@std@@@std@@@std@@QEBA?AV01@_J@Z@4HA ENDP ; `std::_Vector_iterator<std::_Vector_val<std::_Simple_types<bus_device *> > >::operator+'::`1'::dtor$0
text$x	ENDS
; Function compile flags: /Odtp /RTCsu /ZI
; File c:\program files (x86)\microsoft visual studio\2017\community\vc\tools\msvc\14.16.27023\include\vector
;	COMDAT ??Y?$_Vector_iterator@V?$_Vector_val@U?$_Simple_types@PEAVbus_device@@@std@@@std@@@std@@QEAAAEAV01@_J@Z
_TEXT	SEGMENT
this$ = 224
_Off$ = 232
??Y?$_Vector_iterator@V?$_Vector_val@U?$_Simple_types@PEAVbus_device@@@std@@@std@@@std@@QEAAAEAV01@_J@Z PROC ; std::_Vector_iterator<std::_Vector_val<std::_Simple_types<bus_device *> > >::operator+=, COMDAT

; 293  : 		{	// increment by integer

$LN3:
	mov	QWORD PTR [rsp+16], rdx
	mov	QWORD PTR [rsp+8], rcx
	push	rbp
	push	rdi
	sub	rsp, 232				; 000000e8H
	lea	rbp, QWORD PTR [rsp+32]
	mov	rdi, rsp
	mov	ecx, 58					; 0000003aH
	mov	eax, -858993460				; ccccccccH
	rep stosd
	mov	rcx, QWORD PTR [rsp+264]
	lea	rcx, OFFSET FLAT:__FF7D7337_vector
	call	__CheckForDebuggerJustMyCode

; 294  : 		*(_Mybase *)this += _Off;

	mov	rdx, QWORD PTR _Off$[rbp]
	mov	rcx, QWORD PTR this$[rbp]
	call	??Y?$_Vector_const_iterator@V?$_Vector_val@U?$_Simple_types@PEAVbus_device@@@std@@@std@@@std@@QEAAAEAV01@_J@Z ; std::_Vector_const_iterator<std::_Vector_val<std::_Simple_types<bus_device *> > >::operator+=

; 295  : 		return (*this);

	mov	rax, QWORD PTR this$[rbp]

; 296  : 		}

	lea	rsp, QWORD PTR [rbp+200]
	pop	rdi
	pop	rbp
	ret	0
??Y?$_Vector_iterator@V?$_Vector_val@U?$_Simple_types@PEAVbus_device@@@std@@@std@@@std@@QEAAAEAV01@_J@Z ENDP ; std::_Vector_iterator<std::_Vector_val<std::_Simple_types<bus_device *> > >::operator+=
_TEXT	ENDS
; Function compile flags: /Odtp /RTCsu /ZI
; File c:\program files (x86)\microsoft visual studio\2017\community\vc\tools\msvc\14.16.27023\include\vector
;	COMDAT ??0?$_Vector_iterator@V?$_Vector_val@U?$_Simple_types@PEAVbus_device@@@std@@@std@@@std@@QEAA@PEAPEAVbus_device@@PEBU_Container_base12@1@@Z
_TEXT	SEGMENT
this$ = 224
_Parg$ = 232
_Pvector$ = 240
??0?$_Vector_iterator@V?$_Vector_val@U?$_Simple_types@PEAVbus_device@@@std@@@std@@@std@@QEAA@PEAPEAVbus_device@@PEBU_Container_base12@1@@Z PROC ; std::_Vector_iterator<std::_Vector_val<std::_Simple_types<bus_device *> > >::_Vector_iterator<std::_Vector_val<std::_Simple_types<bus_device *> > >, COMDAT

; 253  : 		{	// construct with pointer _Parg

$LN4:
	mov	QWORD PTR [rsp+24], r8
	mov	QWORD PTR [rsp+16], rdx
	mov	QWORD PTR [rsp+8], rcx
	push	rbp
	push	rdi
	sub	rsp, 232				; 000000e8H
	lea	rbp, QWORD PTR [rsp+32]
	mov	rdi, rsp
	mov	ecx, 58					; 0000003aH
	mov	eax, -858993460				; ccccccccH
	rep stosd
	mov	rcx, QWORD PTR [rsp+264]
	lea	rcx, OFFSET FLAT:__FF7D7337_vector
	call	__CheckForDebuggerJustMyCode

; 252  : 		: _Mybase(_Parg, _Pvector)

	mov	r8, QWORD PTR _Pvector$[rbp]
	mov	rdx, QWORD PTR _Parg$[rbp]
	mov	rcx, QWORD PTR this$[rbp]
	call	??0?$_Vector_const_iterator@V?$_Vector_val@U?$_Simple_types@PEAVbus_device@@@std@@@std@@@std@@QEAA@PEAPEAVbus_device@@PEBU_Container_base12@1@@Z ; std::_Vector_const_iterator<std::_Vector_val<std::_Simple_types<bus_device *> > >::_Vector_const_iterator<std::_Vector_val<std::_Simple_types<bus_device *> > >

; 254  : 		}

	mov	rax, QWORD PTR this$[rbp]
	lea	rsp, QWORD PTR [rbp+200]
	pop	rdi
	pop	rbp
	ret	0
??0?$_Vector_iterator@V?$_Vector_val@U?$_Simple_types@PEAVbus_device@@@std@@@std@@@std@@QEAA@PEAPEAVbus_device@@PEBU_Container_base12@1@@Z ENDP ; std::_Vector_iterator<std::_Vector_val<std::_Simple_types<bus_device *> > >::_Vector_iterator<std::_Vector_val<std::_Simple_types<bus_device *> > >
_TEXT	ENDS
; Function compile flags: /Odtp /RTCsu /ZI
;	COMDAT ??0?$_Vector_const_iterator@V?$_Vector_val@U?$_Simple_types@PEAVbus_device@@@std@@@std@@@std@@QEAA@$$QEAV01@@Z
_TEXT	SEGMENT
this$ = 224
__that$ = 232
??0?$_Vector_const_iterator@V?$_Vector_val@U?$_Simple_types@PEAVbus_device@@@std@@@std@@@std@@QEAA@$$QEAV01@@Z PROC ; std::_Vector_const_iterator<std::_Vector_val<std::_Simple_types<bus_device *> > >::_Vector_const_iterator<std::_Vector_val<std::_Simple_types<bus_device *> > >, COMDAT
$LN3:
	mov	QWORD PTR [rsp+16], rdx
	mov	QWORD PTR [rsp+8], rcx
	push	rbp
	push	rdi
	sub	rsp, 232				; 000000e8H
	lea	rbp, QWORD PTR [rsp+32]
	mov	rdi, rsp
	mov	ecx, 58					; 0000003aH
	mov	eax, -858993460				; ccccccccH
	rep stosd
	mov	rcx, QWORD PTR [rsp+264]
	mov	rdx, QWORD PTR __that$[rbp]
	mov	rcx, QWORD PTR this$[rbp]
	call	??0_Iterator_base12@std@@QEAA@AEBU01@@Z	; std::_Iterator_base12::_Iterator_base12
	mov	rax, QWORD PTR this$[rbp]
	mov	rcx, QWORD PTR __that$[rbp]
	mov	rcx, QWORD PTR [rcx+16]
	mov	QWORD PTR [rax+16], rcx
	mov	rax, QWORD PTR this$[rbp]
	lea	rsp, QWORD PTR [rbp+200]
	pop	rdi
	pop	rbp
	ret	0
??0?$_Vector_const_iterator@V?$_Vector_val@U?$_Simple_types@PEAVbus_device@@@std@@@std@@@std@@QEAA@$$QEAV01@@Z ENDP ; std::_Vector_const_iterator<std::_Vector_val<std::_Simple_types<bus_device *> > >::_Vector_const_iterator<std::_Vector_val<std::_Simple_types<bus_device *> > >
_TEXT	ENDS
; Function compile flags: /Odtp /RTCsu /ZI
;	COMDAT ??0?$_Vector_const_iterator@V?$_Vector_val@U?$_Simple_types@PEAVbus_device@@@std@@@std@@@std@@QEAA@AEBV01@@Z
_TEXT	SEGMENT
this$ = 224
__that$ = 232
??0?$_Vector_const_iterator@V?$_Vector_val@U?$_Simple_types@PEAVbus_device@@@std@@@std@@@std@@QEAA@AEBV01@@Z PROC ; std::_Vector_const_iterator<std::_Vector_val<std::_Simple_types<bus_device *> > >::_Vector_const_iterator<std::_Vector_val<std::_Simple_types<bus_device *> > >, COMDAT
$LN3:
	mov	QWORD PTR [rsp+16], rdx
	mov	QWORD PTR [rsp+8], rcx
	push	rbp
	push	rdi
	sub	rsp, 232				; 000000e8H
	lea	rbp, QWORD PTR [rsp+32]
	mov	rdi, rsp
	mov	ecx, 58					; 0000003aH
	mov	eax, -858993460				; ccccccccH
	rep stosd
	mov	rcx, QWORD PTR [rsp+264]
	mov	rdx, QWORD PTR __that$[rbp]
	mov	rcx, QWORD PTR this$[rbp]
	call	??0_Iterator_base12@std@@QEAA@AEBU01@@Z	; std::_Iterator_base12::_Iterator_base12
	mov	rax, QWORD PTR this$[rbp]
	mov	rcx, QWORD PTR __that$[rbp]
	mov	rcx, QWORD PTR [rcx+16]
	mov	QWORD PTR [rax+16], rcx
	mov	rax, QWORD PTR this$[rbp]
	lea	rsp, QWORD PTR [rbp+200]
	pop	rdi
	pop	rbp
	ret	0
??0?$_Vector_const_iterator@V?$_Vector_val@U?$_Simple_types@PEAVbus_device@@@std@@@std@@@std@@QEAA@AEBV01@@Z ENDP ; std::_Vector_const_iterator<std::_Vector_val<std::_Simple_types<bus_device *> > >::_Vector_const_iterator<std::_Vector_val<std::_Simple_types<bus_device *> > >
_TEXT	ENDS
; Function compile flags: /Odtp /RTCsu /ZI
;	COMDAT ??1?$_Vector_const_iterator@V?$_Vector_val@U?$_Simple_types@PEAVbus_device@@@std@@@std@@@std@@QEAA@XZ
_TEXT	SEGMENT
this$ = 224
??1?$_Vector_const_iterator@V?$_Vector_val@U?$_Simple_types@PEAVbus_device@@@std@@@std@@@std@@QEAA@XZ PROC ; std::_Vector_const_iterator<std::_Vector_val<std::_Simple_types<bus_device *> > >::~_Vector_const_iterator<std::_Vector_val<std::_Simple_types<bus_device *> > >, COMDAT
$LN3:
	mov	QWORD PTR [rsp+8], rcx
	push	rbp
	push	rdi
	sub	rsp, 232				; 000000e8H
	lea	rbp, QWORD PTR [rsp+32]
	mov	rdi, rsp
	mov	ecx, 58					; 0000003aH
	mov	eax, -858993460				; ccccccccH
	rep stosd
	mov	rcx, QWORD PTR [rsp+264]
	mov	rcx, QWORD PTR this$[rbp]
	call	??1_Iterator_base12@std@@QEAA@XZ	; std::_Iterator_base12::~_Iterator_base12
	lea	rsp, QWORD PTR [rbp+200]
	pop	rdi
	pop	rbp
	ret	0
??1?$_Vector_const_iterator@V?$_Vector_val@U?$_Simple_types@PEAVbus_device@@@std@@@std@@@std@@QEAA@XZ ENDP ; std::_Vector_const_iterator<std::_Vector_val<std::_Simple_types<bus_device *> > >::~_Vector_const_iterator<std::_Vector_val<std::_Simple_types<bus_device *> > >
_TEXT	ENDS
; Function compile flags: /Odtp /RTCsu /ZI
; File c:\program files (x86)\microsoft visual studio\2017\community\vc\tools\msvc\14.16.27023\include\vector
;	COMDAT ??Y?$_Vector_const_iterator@V?$_Vector_val@U?$_Simple_types@PEAVbus_device@@@std@@@std@@@std@@QEAAAEAV01@_J@Z
_TEXT	SEGMENT
this$ = 224
_Off$ = 232
??Y?$_Vector_const_iterator@V?$_Vector_val@U?$_Simple_types@PEAVbus_device@@@std@@@std@@@std@@QEAAAEAV01@_J@Z PROC ; std::_Vector_const_iterator<std::_Vector_val<std::_Simple_types<bus_device *> > >::operator+=, COMDAT

; 128  : 		{	// increment by integer

$LN3:
	mov	QWORD PTR [rsp+16], rdx
	mov	QWORD PTR [rsp+8], rcx
	push	rbp
	push	rdi
	sub	rsp, 232				; 000000e8H
	lea	rbp, QWORD PTR [rsp+32]
	mov	rdi, rsp
	mov	ecx, 58					; 0000003aH
	mov	eax, -858993460				; ccccccccH
	rep stosd
	mov	rcx, QWORD PTR [rsp+264]
	lea	rcx, OFFSET FLAT:__FF7D7337_vector
	call	__CheckForDebuggerJustMyCode

; 129  : 		_Verify_offset(_Off);

	mov	rdx, QWORD PTR _Off$[rbp]
	mov	rcx, QWORD PTR this$[rbp]
	call	?_Verify_offset@?$_Vector_const_iterator@V?$_Vector_val@U?$_Simple_types@PEAVbus_device@@@std@@@std@@@std@@QEBAX_J@Z ; std::_Vector_const_iterator<std::_Vector_val<std::_Simple_types<bus_device *> > >::_Verify_offset

; 130  : 		_Ptr += _Off;

	mov	rax, QWORD PTR this$[rbp]
	mov	rax, QWORD PTR [rax+16]
	mov	rcx, QWORD PTR _Off$[rbp]
	lea	rax, QWORD PTR [rax+rcx*8]
	mov	rcx, QWORD PTR this$[rbp]
	mov	QWORD PTR [rcx+16], rax

; 131  : 		return (*this);

	mov	rax, QWORD PTR this$[rbp]

; 132  : 		}

	lea	rsp, QWORD PTR [rbp+200]
	pop	rdi
	pop	rbp
	ret	0
??Y?$_Vector_const_iterator@V?$_Vector_val@U?$_Simple_types@PEAVbus_device@@@std@@@std@@@std@@QEAAAEAV01@_J@Z ENDP ; std::_Vector_const_iterator<std::_Vector_val<std::_Simple_types<bus_device *> > >::operator+=
_TEXT	ENDS
; Function compile flags: /Odtp /RTCsu /ZI
; File c:\program files (x86)\microsoft visual studio\2017\community\vc\tools\msvc\14.16.27023\include\vector
;	COMDAT ?_Verify_offset@?$_Vector_const_iterator@V?$_Vector_val@U?$_Simple_types@PEAVbus_device@@@std@@@std@@@std@@QEBAX_J@Z
_TEXT	SEGMENT
_Mycont$ = 8
this$ = 256
_Off$ = 264
?_Verify_offset@?$_Vector_const_iterator@V?$_Vector_val@U?$_Simple_types@PEAVbus_device@@@std@@@std@@@std@@QEBAX_J@Z PROC ; std::_Vector_const_iterator<std::_Vector_val<std::_Simple_types<bus_device *> > >::_Verify_offset, COMDAT

; 109  : 		{

$LN33:
	mov	QWORD PTR [rsp+16], rdx
	mov	QWORD PTR [rsp+8], rcx
	push	rbp
	push	rdi
	sub	rsp, 280				; 00000118H
	lea	rbp, QWORD PTR [rsp+48]
	mov	rdi, rsp
	mov	ecx, 70					; 00000046H
	mov	eax, -858993460				; ccccccccH
	rep stosd
	mov	rcx, QWORD PTR [rsp+312]
	lea	rcx, OFFSET FLAT:__FF7D7337_vector
	call	__CheckForDebuggerJustMyCode

; 110  :  #if _ITERATOR_DEBUG_LEVEL == 0
; 111  : 		(void)_Off;
; 112  :  #else /* ^^^ _ITERATOR_DEBUG_LEVEL == 0 ^^^ // vvv _ITERATOR_DEBUG_LEVEL != 0 vvv */
; 113  : 		const auto _Mycont = static_cast<const _Myvec *>(this->_Getcont());

	mov	rcx, QWORD PTR this$[rbp]
	call	?_Getcont@_Iterator_base12@std@@QEBAPEBU_Container_base12@2@XZ ; std::_Iterator_base12::_Getcont
	mov	QWORD PTR _Mycont$[rbp], rax
$LN4@Verify_off:

; 114  : 		_STL_VERIFY(_Off == 0 || _Ptr, "cannot seek value-initialized vector iterator");

	cmp	QWORD PTR _Off$[rbp], 0
	je	SHORT $LN22@Verify_off
	mov	rax, QWORD PTR this$[rbp]
	cmp	QWORD PTR [rax+16], 0
	je	SHORT $LN20@Verify_off
$LN22@Verify_off:
	jmp	SHORT $LN21@Verify_off
$LN20@Verify_off:
$LN7@Verify_off:
	lea	rax, OFFSET FLAT:??_C@_0CO@LHPFLLJB@cannot?5seek?5value?9initialized?5v@
	mov	QWORD PTR [rsp+40], rax
	lea	rax, OFFSET FLAT:??_C@_02DKCKIIND@?$CFs@
	mov	QWORD PTR [rsp+32], rax
	xor	r9d, r9d
	mov	r8d, 114				; 00000072H
	lea	rdx, OFFSET FLAT:??_C@_0GH@FKAHJGEE@c?3?2program?5files?5?$CIx86?$CJ?2microsof@
	mov	ecx, 2
	call	QWORD PTR __imp__CrtDbgReport
	cmp	eax, 1
	jne	SHORT $LN30@Verify_off
	int	3
	xor	eax, eax
$LN30@Verify_off:
	mov	QWORD PTR [rsp+32], 0
	mov	r9d, 114				; 00000072H
	lea	r8, OFFSET FLAT:??_C@_1MO@OJBMIJHH@?$AAc?$AA?3?$AA?2?$AAp?$AAr?$AAo?$AAg?$AAr?$AAa?$AAm?$AA?5?$AAf?$AAi?$AAl?$AAe@
	lea	rdx, OFFSET FLAT:??_C@_1OK@MPDCGGGF@?$AAs?$AAt?$AAd?$AA?3?$AA?3?$AA_?$AAV?$AAe?$AAc?$AAt?$AAo?$AAr?$AA_?$AAc?$AAo@
	lea	rcx, OFFSET FLAT:??_C@_1GA@EIHBFEJD@?$AA?$CC?$AAc?$AAa?$AAn?$AAn?$AAo?$AAt?$AA?5?$AAs?$AAe?$AAe?$AAk?$AA?5?$AAv?$AAa@
	call	QWORD PTR __imp__invalid_parameter
	xor	eax, eax
	test	eax, eax
	jne	SHORT $LN7@Verify_off
$LN21@Verify_off:
	xor	eax, eax
	test	eax, eax
	jne	$LN4@Verify_off

; 115  : 		if (_Off < 0)

	cmp	QWORD PTR _Off$[rbp], 0
	jge	$LN23@Verify_off
$LN10@Verify_off:

; 116  : 			{
; 117  : 			_STL_VERIFY(_Off >= _Mycont->_Myfirst - _Ptr, "cannot seek vector iterator before begin");

	mov	rax, QWORD PTR _Mycont$[rbp]
	mov	rcx, QWORD PTR this$[rbp]
	mov	rcx, QWORD PTR [rcx+16]
	mov	rax, QWORD PTR [rax+8]
	sub	rax, rcx
	sar	rax, 3
	cmp	QWORD PTR _Off$[rbp], rax
	jl	SHORT $LN24@Verify_off
	jmp	SHORT $LN25@Verify_off
$LN24@Verify_off:
$LN13@Verify_off:
	lea	rax, OFFSET FLAT:??_C@_0CJ@DIFMEJBE@cannot?5seek?5vector?5iterator?5bef@
	mov	QWORD PTR [rsp+40], rax
	lea	rax, OFFSET FLAT:??_C@_02DKCKIIND@?$CFs@
	mov	QWORD PTR [rsp+32], rax
	xor	r9d, r9d
	mov	r8d, 117				; 00000075H
	lea	rdx, OFFSET FLAT:??_C@_0GH@FKAHJGEE@c?3?2program?5files?5?$CIx86?$CJ?2microsof@
	mov	ecx, 2
	call	QWORD PTR __imp__CrtDbgReport
	cmp	eax, 1
	jne	SHORT $LN31@Verify_off
	int	3
	xor	eax, eax
$LN31@Verify_off:
	mov	QWORD PTR [rsp+32], 0
	mov	r9d, 117				; 00000075H
	lea	r8, OFFSET FLAT:??_C@_1MO@OJBMIJHH@?$AAc?$AA?3?$AA?2?$AAp?$AAr?$AAo?$AAg?$AAr?$AAa?$AAm?$AA?5?$AAf?$AAi?$AAl?$AAe@
	lea	rdx, OFFSET FLAT:??_C@_1OK@MPDCGGGF@?$AAs?$AAt?$AAd?$AA?3?$AA?3?$AA_?$AAV?$AAe?$AAc?$AAt?$AAo?$AAr?$AA_?$AAc?$AAo@
	lea	rcx, OFFSET FLAT:??_C@_1FG@JCGKNFIB@?$AA?$CC?$AAc?$AAa?$AAn?$AAn?$AAo?$AAt?$AA?5?$AAs?$AAe?$AAe?$AAk?$AA?5?$AAv?$AAe@
	call	QWORD PTR __imp__invalid_parameter
	xor	eax, eax
	test	eax, eax
	jne	SHORT $LN13@Verify_off
$LN25@Verify_off:
	xor	eax, eax
	test	eax, eax
	jne	$LN10@Verify_off
$LN23@Verify_off:

; 118  : 			}
; 119  : 
; 120  : 		if (_Off > 0)

	cmp	QWORD PTR _Off$[rbp], 0
	jle	$LN26@Verify_off
$LN16@Verify_off:

; 121  : 			{
; 122  : 			_STL_VERIFY(_Off <= _Mycont->_Mylast - _Ptr, "cannot seek vector iterator after end");

	mov	rax, QWORD PTR _Mycont$[rbp]
	mov	rcx, QWORD PTR this$[rbp]
	mov	rcx, QWORD PTR [rcx+16]
	mov	rax, QWORD PTR [rax+16]
	sub	rax, rcx
	sar	rax, 3
	cmp	QWORD PTR _Off$[rbp], rax
	jg	SHORT $LN27@Verify_off
	jmp	SHORT $LN28@Verify_off
$LN27@Verify_off:
$LN19@Verify_off:
	lea	rax, OFFSET FLAT:??_C@_0CG@JDIOCKHH@cannot?5seek?5vector?5iterator?5aft@
	mov	QWORD PTR [rsp+40], rax
	lea	rax, OFFSET FLAT:??_C@_02DKCKIIND@?$CFs@
	mov	QWORD PTR [rsp+32], rax
	xor	r9d, r9d
	mov	r8d, 122				; 0000007aH
	lea	rdx, OFFSET FLAT:??_C@_0GH@FKAHJGEE@c?3?2program?5files?5?$CIx86?$CJ?2microsof@
	mov	ecx, 2
	call	QWORD PTR __imp__CrtDbgReport
	cmp	eax, 1
	jne	SHORT $LN32@Verify_off
	int	3
	xor	eax, eax
$LN32@Verify_off:
	mov	QWORD PTR [rsp+32], 0
	mov	r9d, 122				; 0000007aH
	lea	r8, OFFSET FLAT:??_C@_1MO@OJBMIJHH@?$AAc?$AA?3?$AA?2?$AAp?$AAr?$AAo?$AAg?$AAr?$AAa?$AAm?$AA?5?$AAf?$AAi?$AAl?$AAe@
	lea	rdx, OFFSET FLAT:??_C@_1OK@MPDCGGGF@?$AAs?$AAt?$AAd?$AA?3?$AA?3?$AA_?$AAV?$AAe?$AAc?$AAt?$AAo?$AAr?$AA_?$AAc?$AAo@
	lea	rcx, OFFSET FLAT:??_C@_1FA@LCODAPOP@?$AA?$CC?$AAc?$AAa?$AAn?$AAn?$AAo?$AAt?$AA?5?$AAs?$AAe?$AAe?$AAk?$AA?5?$AAv?$AAe@
	call	QWORD PTR __imp__invalid_parameter
	xor	eax, eax
	test	eax, eax
	jne	SHORT $LN19@Verify_off
$LN28@Verify_off:
	xor	eax, eax
	test	eax, eax
	jne	$LN16@Verify_off
$LN26@Verify_off:

; 123  : 			}
; 124  :  #endif /* _ITERATOR_DEBUG_LEVEL == 0 */
; 125  : 		}

	lea	rsp, QWORD PTR [rbp+232]
	pop	rdi
	pop	rbp
	ret	0
?_Verify_offset@?$_Vector_const_iterator@V?$_Vector_val@U?$_Simple_types@PEAVbus_device@@@std@@@std@@@std@@QEBAX_J@Z ENDP ; std::_Vector_const_iterator<std::_Vector_val<std::_Simple_types<bus_device *> > >::_Verify_offset
_TEXT	ENDS
; Function compile flags: /Odtp /RTCsu /ZI
; File c:\program files (x86)\microsoft visual studio\2017\community\vc\tools\msvc\14.16.27023\include\vector
;	COMDAT ??0?$_Vector_const_iterator@V?$_Vector_val@U?$_Simple_types@PEAVbus_device@@@std@@@std@@@std@@QEAA@PEAPEAVbus_device@@PEBU_Container_base12@1@@Z
_TEXT	SEGMENT
this$ = 224
_Parg$ = 232
_Pvector$ = 240
??0?$_Vector_const_iterator@V?$_Vector_val@U?$_Simple_types@PEAVbus_device@@@std@@@std@@@std@@QEAA@PEAPEAVbus_device@@PEBU_Container_base12@1@@Z PROC ; std::_Vector_const_iterator<std::_Vector_val<std::_Simple_types<bus_device *> > >::_Vector_const_iterator<std::_Vector_val<std::_Simple_types<bus_device *> > >, COMDAT

; 42   : 		{	// construct with pointer _Parg

$LN4:
	mov	QWORD PTR [rsp+24], r8
	mov	QWORD PTR [rsp+16], rdx
	mov	QWORD PTR [rsp+8], rcx
	push	rbp
	push	rdi
	sub	rsp, 232				; 000000e8H
	lea	rbp, QWORD PTR [rsp+32]
	mov	rdi, rsp
	mov	ecx, 58					; 0000003aH
	mov	eax, -858993460				; ccccccccH
	rep stosd
	mov	rcx, QWORD PTR [rsp+264]
	lea	rcx, OFFSET FLAT:__FF7D7337_vector
	call	__CheckForDebuggerJustMyCode
	mov	rcx, QWORD PTR this$[rbp]
	call	??0_Iterator_base12@std@@QEAA@XZ	; std::_Iterator_base12::_Iterator_base12

; 41   : 		: _Ptr(_Parg)

	mov	rax, QWORD PTR this$[rbp]
	mov	rcx, QWORD PTR _Parg$[rbp]
	mov	QWORD PTR [rax+16], rcx

; 43   : 		this->_Adopt(_Pvector);

	mov	rdx, QWORD PTR _Pvector$[rbp]
	mov	rcx, QWORD PTR this$[rbp]
	call	?_Adopt@_Iterator_base12@std@@QEAAXPEBU_Container_base12@2@@Z ; std::_Iterator_base12::_Adopt

; 44   : 		}

	mov	rax, QWORD PTR this$[rbp]
	lea	rsp, QWORD PTR [rbp+200]
	pop	rdi
	pop	rbp
	ret	0
??0?$_Vector_const_iterator@V?$_Vector_val@U?$_Simple_types@PEAVbus_device@@@std@@@std@@@std@@QEAA@PEAPEAVbus_device@@PEBU_Container_base12@1@@Z ENDP ; std::_Vector_const_iterator<std::_Vector_val<std::_Simple_types<bus_device *> > >::_Vector_const_iterator<std::_Vector_val<std::_Simple_types<bus_device *> > >
_TEXT	ENDS
; Function compile flags: /Odtp /RTCsu /ZI
; File c:\program files (x86)\microsoft visual studio\2017\community\vc\tools\msvc\14.16.27023\include\ios
;	COMDAT ?hex@std@@YAAEAVios_base@1@AEAV21@@Z
_TEXT	SEGMENT
_Iosbase$ = 224
?hex@std@@YAAEAVios_base@1@AEAV21@@Z PROC		; std::hex, COMDAT

; 231  : 	{	// set basefield to hex

$LN3:
	mov	QWORD PTR [rsp+8], rcx
	push	rbp
	push	rdi
	sub	rsp, 232				; 000000e8H
	lea	rbp, QWORD PTR [rsp+32]
	mov	rdi, rsp
	mov	ecx, 58					; 0000003aH
	mov	eax, -858993460				; ccccccccH
	rep stosd
	mov	rcx, QWORD PTR [rsp+264]
	lea	rcx, OFFSET FLAT:__D1FEDD45_ios
	call	__CheckForDebuggerJustMyCode

; 232  : 	_Iosbase.setf(ios_base::hex, ios_base::basefield);

	mov	r8d, 3584				; 00000e00H
	mov	edx, 2048				; 00000800H
	mov	rcx, QWORD PTR _Iosbase$[rbp]
	call	QWORD PTR __imp_?setf@ios_base@std@@QEAAHHH@Z

; 233  : 	return (_Iosbase);

	mov	rax, QWORD PTR _Iosbase$[rbp]

; 234  : 	}

	lea	rsp, QWORD PTR [rbp+200]
	pop	rdi
	pop	rbp
	ret	0
?hex@std@@YAAEAVios_base@1@AEAV21@@Z ENDP		; std::hex
_TEXT	ENDS
; Function compile flags: /Odtp /RTCsu /ZI
; File c:\users\nightorius.phibian\source\repos\denveremu\denveremu\bus.cpp
;	COMDAT ?emulate_bus_conflicts@bus@@QEAAX_N@Z
_TEXT	SEGMENT
this$ = 224
enable$ = 232
?emulate_bus_conflicts@bus@@QEAAX_N@Z PROC		; bus::emulate_bus_conflicts, COMDAT

; 65   : void	bus::emulate_bus_conflicts(bool enable) {

$LN3:
	mov	BYTE PTR [rsp+16], dl
	mov	QWORD PTR [rsp+8], rcx
	push	rbp
	push	rdi
	sub	rsp, 232				; 000000e8H
	lea	rbp, QWORD PTR [rsp+32]
	mov	rdi, rsp
	mov	ecx, 58					; 0000003aH
	mov	eax, -858993460				; ccccccccH
	rep stosd
	mov	rcx, QWORD PTR [rsp+264]
	lea	rcx, OFFSET FLAT:__72010E87_bus@cpp
	call	__CheckForDebuggerJustMyCode

; 66   : 	no_bus_conflicts = enable;

	mov	rax, QWORD PTR this$[rbp]
	movzx	ecx, BYTE PTR enable$[rbp]
	mov	BYTE PTR [rax+40], cl

; 67   : }

	lea	rsp, QWORD PTR [rbp+200]
	pop	rdi
	pop	rbp
	ret	0
?emulate_bus_conflicts@bus@@QEAAX_N@Z ENDP		; bus::emulate_bus_conflicts
_TEXT	ENDS
; Function compile flags: /Odtp /RTCsu /ZI
; File c:\users\nightorius.phibian\source\repos\denveremu\denveremu\bus.cpp
;	COMDAT ?reportdevices@bus@@QEAAXXZ
_TEXT	SEGMENT
<range>$L0$1 = 8
<begin>$L0$2 = 40
<end>$L0$3 = 72
dev$4 = 104
tv165 = 308
tv174 = 312
tv79 = 312
this$ = 352
?reportdevices@bus@@QEAAXXZ PROC			; bus::reportdevices, COMDAT

; 100  : void	bus::reportdevices() {

$LN8:
	mov	QWORD PTR [rsp+8], rcx
	push	rbp
	push	rdi
	sub	rsp, 360				; 00000168H
	lea	rbp, QWORD PTR [rsp+32]
	mov	rdi, rsp
	mov	ecx, 90					; 0000005aH
	mov	eax, -858993460				; ccccccccH
	rep stosd
	mov	rcx, QWORD PTR [rsp+392]
	lea	rcx, OFFSET FLAT:__72010E87_bus@cpp
	call	__CheckForDebuggerJustMyCode

; 101  : 	// this reports (dumps to console) all the connected devices with their names and allocation points.
; 102  : 	for (bus_device* dev : devices) {

	mov	rax, QWORD PTR this$[rbp]
	add	rax, 8
	mov	QWORD PTR <range>$L0$1[rbp], rax
	mov	rcx, QWORD PTR <range>$L0$1[rbp]
	call	?_Unchecked_begin@?$vector@PEAVbus_device@@V?$allocator@PEAVbus_device@@@std@@@std@@QEAAPEAPEAVbus_device@@XZ ; std::vector<bus_device *,std::allocator<bus_device *> >::_Unchecked_begin
	mov	QWORD PTR <begin>$L0$2[rbp], rax
	mov	rcx, QWORD PTR <range>$L0$1[rbp]
	call	?_Unchecked_end@?$vector@PEAVbus_device@@V?$allocator@PEAVbus_device@@@std@@@std@@QEAAPEAPEAVbus_device@@XZ ; std::vector<bus_device *,std::allocator<bus_device *> >::_Unchecked_end
	mov	QWORD PTR <end>$L0$3[rbp], rax
	jmp	SHORT $LN4@reportdevi
$LN2@reportdevi:
	mov	rax, QWORD PTR <begin>$L0$2[rbp]
	add	rax, 8
	mov	QWORD PTR <begin>$L0$2[rbp], rax
$LN4@reportdevi:
	mov	rax, QWORD PTR <end>$L0$3[rbp]
	cmp	QWORD PTR <begin>$L0$2[rbp], rax
	je	$LN3@reportdevi
	mov	rax, QWORD PTR <begin>$L0$2[rbp]
	mov	rax, QWORD PTR [rax]
	mov	QWORD PTR dev$4[rbp], rax

; 103  : 		std::cout << "registered device [" << dev->get_device_descriptor() << "]" << std::endl;

	mov	rcx, QWORD PTR dev$4[rbp]
	call	?get_device_descriptor@device@@QEAAPEADXZ ; device::get_device_descriptor
	mov	QWORD PTR tv79[rbp], rax
	lea	rdx, OFFSET FLAT:??_C@_0BE@IJMACPFN@registered?5device?5?$FL@
	mov	rcx, QWORD PTR __imp_?cout@std@@3V?$basic_ostream@DU?$char_traits@D@std@@@1@A
	call	??$?6U?$char_traits@D@std@@@std@@YAAEAV?$basic_ostream@DU?$char_traits@D@std@@@0@AEAV10@PEBD@Z ; std::operator<<<std::char_traits<char> >
	mov	rcx, QWORD PTR tv79[rbp]
	mov	rdx, rcx
	mov	rcx, rax
	call	??$?6U?$char_traits@D@std@@@std@@YAAEAV?$basic_ostream@DU?$char_traits@D@std@@@0@AEAV10@PEBD@Z ; std::operator<<<std::char_traits<char> >
	lea	rdx, OFFSET FLAT:??_C@_01LBDDMOBJ@?$FN@
	mov	rcx, rax
	call	??$?6U?$char_traits@D@std@@@std@@YAAEAV?$basic_ostream@DU?$char_traits@D@std@@@0@AEAV10@PEBD@Z ; std::operator<<<std::char_traits<char> >
	lea	rdx, OFFSET FLAT:??$endl@DU?$char_traits@D@std@@@std@@YAAEAV?$basic_ostream@DU?$char_traits@D@std@@@0@AEAV10@@Z ; std::endl<char,std::char_traits<char> >
	mov	rcx, rax
	call	QWORD PTR __imp_??6?$basic_ostream@DU?$char_traits@D@std@@@std@@QEAAAEAV01@P6AAEAV01@AEAV01@@Z@Z

; 104  : 		std::cout << "-------------------------------------------------------------------------------" << std::endl;

	lea	rdx, OFFSET FLAT:??_C@_0FA@CLHJNGFJ@?9?9?9?9?9?9?9?9?9?9?9?9?9?9?9?9?9?9?9?9?9?9?9?9?9?9?9?9?9?9?9@
	mov	rcx, QWORD PTR __imp_?cout@std@@3V?$basic_ostream@DU?$char_traits@D@std@@@1@A
	call	??$?6U?$char_traits@D@std@@@std@@YAAEAV?$basic_ostream@DU?$char_traits@D@std@@@0@AEAV10@PEBD@Z ; std::operator<<<std::char_traits<char> >
	lea	rdx, OFFSET FLAT:??$endl@DU?$char_traits@D@std@@@std@@YAAEAV?$basic_ostream@DU?$char_traits@D@std@@@0@AEAV10@@Z ; std::endl<char,std::char_traits<char> >
	mov	rcx, rax
	call	QWORD PTR __imp_??6?$basic_ostream@DU?$char_traits@D@std@@@std@@QEAAAEAV01@P6AAEAV01@AEAV01@@Z@Z

; 105  : 		std::cout << std::hex << "device operating range is [0x" << dev->devicestart << " - 0x" << dev->deviceend << "]" << std::endl;

	lea	rdx, OFFSET FLAT:?hex@std@@YAAEAVios_base@1@AEAV21@@Z ; std::hex
	mov	rcx, QWORD PTR __imp_?cout@std@@3V?$basic_ostream@DU?$char_traits@D@std@@@1@A
	call	QWORD PTR __imp_??6?$basic_ostream@DU?$char_traits@D@std@@@std@@QEAAAEAV01@P6AAEAVios_base@1@AEAV21@@Z@Z
	lea	rdx, OFFSET FLAT:??_C@_0BO@KMHDIEBP@device?5operating?5range?5is?5?$FL0x@
	mov	rcx, rax
	call	??$?6U?$char_traits@D@std@@@std@@YAAEAV?$basic_ostream@DU?$char_traits@D@std@@@0@AEAV10@PEBD@Z ; std::operator<<<std::char_traits<char> >
	mov	rcx, QWORD PTR dev$4[rbp]
	mov	edx, DWORD PTR [rcx+44]
	mov	rcx, rax
	call	QWORD PTR __imp_??6?$basic_ostream@DU?$char_traits@D@std@@@std@@QEAAAEAV01@H@Z
	lea	rdx, OFFSET FLAT:??_C@_05BDHPAJIP@?5?9?50x@
	mov	rcx, rax
	call	??$?6U?$char_traits@D@std@@@std@@YAAEAV?$basic_ostream@DU?$char_traits@D@std@@@0@AEAV10@PEBD@Z ; std::operator<<<std::char_traits<char> >
	mov	rcx, QWORD PTR dev$4[rbp]
	mov	edx, DWORD PTR [rcx+48]
	mov	rcx, rax
	call	QWORD PTR __imp_??6?$basic_ostream@DU?$char_traits@D@std@@@std@@QEAAAEAV01@H@Z
	lea	rdx, OFFSET FLAT:??_C@_01LBDDMOBJ@?$FN@
	mov	rcx, rax
	call	??$?6U?$char_traits@D@std@@@std@@YAAEAV?$basic_ostream@DU?$char_traits@D@std@@@0@AEAV10@PEBD@Z ; std::operator<<<std::char_traits<char> >
	lea	rdx, OFFSET FLAT:??$endl@DU?$char_traits@D@std@@@std@@YAAEAV?$basic_ostream@DU?$char_traits@D@std@@@0@AEAV10@@Z ; std::endl<char,std::char_traits<char> >
	mov	rcx, rax
	call	QWORD PTR __imp_??6?$basic_ostream@DU?$char_traits@D@std@@@std@@QEAAAEAV01@P6AAEAV01@AEAV01@@Z@Z

; 106  : 		std::cout << "device adressing mask is 0x" << dev->devicemask << std::endl;

	lea	rdx, OFFSET FLAT:??_C@_0BM@GMLPKDLM@device?5adressing?5mask?5is?50x@
	mov	rcx, QWORD PTR __imp_?cout@std@@3V?$basic_ostream@DU?$char_traits@D@std@@@1@A
	call	??$?6U?$char_traits@D@std@@@std@@YAAEAV?$basic_ostream@DU?$char_traits@D@std@@@0@AEAV10@PEBD@Z ; std::operator<<<std::char_traits<char> >
	mov	rcx, QWORD PTR dev$4[rbp]
	mov	edx, DWORD PTR [rcx+52]
	mov	rcx, rax
	call	QWORD PTR __imp_??6?$basic_ostream@DU?$char_traits@D@std@@@std@@QEAAAEAV01@H@Z
	lea	rdx, OFFSET FLAT:??$endl@DU?$char_traits@D@std@@@std@@YAAEAV?$basic_ostream@DU?$char_traits@D@std@@@0@AEAV10@@Z ; std::endl<char,std::char_traits<char> >
	mov	rcx, rax
	call	QWORD PTR __imp_??6?$basic_ostream@DU?$char_traits@D@std@@@std@@QEAAAEAV01@P6AAEAV01@AEAV01@@Z@Z

; 107  : 		std::cout << "device reports size is 0x" << (dev->deviceend - dev->devicestart) << " bytes" << std::endl;

	mov	rax, QWORD PTR dev$4[rbp]
	mov	rcx, QWORD PTR dev$4[rbp]
	mov	ecx, DWORD PTR [rcx+44]
	mov	eax, DWORD PTR [rax+48]
	sub	eax, ecx
	mov	DWORD PTR tv165[rbp], eax
	lea	rdx, OFFSET FLAT:??_C@_0BK@HECGDHBI@device?5reports?5size?5is?50x@
	mov	rcx, QWORD PTR __imp_?cout@std@@3V?$basic_ostream@DU?$char_traits@D@std@@@1@A
	call	??$?6U?$char_traits@D@std@@@std@@YAAEAV?$basic_ostream@DU?$char_traits@D@std@@@0@AEAV10@PEBD@Z ; std::operator<<<std::char_traits<char> >
	mov	ecx, DWORD PTR tv165[rbp]
	mov	edx, ecx
	mov	rcx, rax
	call	QWORD PTR __imp_??6?$basic_ostream@DU?$char_traits@D@std@@@std@@QEAAAEAV01@H@Z
	lea	rdx, OFFSET FLAT:??_C@_06LCIDCBMH@?5bytes@
	mov	rcx, rax
	call	??$?6U?$char_traits@D@std@@@std@@YAAEAV?$basic_ostream@DU?$char_traits@D@std@@@0@AEAV10@PEBD@Z ; std::operator<<<std::char_traits<char> >
	lea	rdx, OFFSET FLAT:??$endl@DU?$char_traits@D@std@@@std@@YAAEAV?$basic_ostream@DU?$char_traits@D@std@@@0@AEAV10@@Z ; std::endl<char,std::char_traits<char> >
	mov	rcx, rax
	call	QWORD PTR __imp_??6?$basic_ostream@DU?$char_traits@D@std@@@std@@QEAAAEAV01@P6AAEAV01@AEAV01@@Z@Z

; 108  : 		std::cout << "full bus emulation required? " << (dev->processlayout ? "yes" : "no") << std::endl << std::endl;

	mov	rax, QWORD PTR dev$4[rbp]
	movzx	eax, BYTE PTR [rax+40]
	test	eax, eax
	je	SHORT $LN6@reportdevi
	lea	rax, OFFSET FLAT:??_C@_03ICICOMAL@yes@
	mov	QWORD PTR tv174[rbp], rax
	jmp	SHORT $LN7@reportdevi
$LN6@reportdevi:
	lea	rax, OFFSET FLAT:??_C@_02KAJCLHKP@no@
	mov	QWORD PTR tv174[rbp], rax
$LN7@reportdevi:
	lea	rdx, OFFSET FLAT:??_C@_0BO@HBKBAGAM@full?5bus?5emulation?5required?$DP?5@
	mov	rcx, QWORD PTR __imp_?cout@std@@3V?$basic_ostream@DU?$char_traits@D@std@@@1@A
	call	??$?6U?$char_traits@D@std@@@std@@YAAEAV?$basic_ostream@DU?$char_traits@D@std@@@0@AEAV10@PEBD@Z ; std::operator<<<std::char_traits<char> >
	mov	rdx, QWORD PTR tv174[rbp]
	mov	rcx, rax
	call	??$?6U?$char_traits@D@std@@@std@@YAAEAV?$basic_ostream@DU?$char_traits@D@std@@@0@AEAV10@PEBD@Z ; std::operator<<<std::char_traits<char> >
	lea	rdx, OFFSET FLAT:??$endl@DU?$char_traits@D@std@@@std@@YAAEAV?$basic_ostream@DU?$char_traits@D@std@@@0@AEAV10@@Z ; std::endl<char,std::char_traits<char> >
	mov	rcx, rax
	call	QWORD PTR __imp_??6?$basic_ostream@DU?$char_traits@D@std@@@std@@QEAAAEAV01@P6AAEAV01@AEAV01@@Z@Z
	lea	rdx, OFFSET FLAT:??$endl@DU?$char_traits@D@std@@@std@@YAAEAV?$basic_ostream@DU?$char_traits@D@std@@@0@AEAV10@@Z ; std::endl<char,std::char_traits<char> >
	mov	rcx, rax
	call	QWORD PTR __imp_??6?$basic_ostream@DU?$char_traits@D@std@@@std@@QEAAAEAV01@P6AAEAV01@AEAV01@@Z@Z

; 109  : 	}

	jmp	$LN2@reportdevi
$LN3@reportdevi:

; 110  : }

	lea	rsp, QWORD PTR [rbp+328]
	pop	rdi
	pop	rbp
	ret	0
?reportdevices@bus@@QEAAXXZ ENDP			; bus::reportdevices
_TEXT	ENDS
; Function compile flags: /Odtp /RTCsu /ZI
; File c:\users\nightorius.phibian\source\repos\denveremu\denveremu\bus.cpp
;	COMDAT ?removedevice_select_base@bus@@QEAAXH@Z
_TEXT	SEGMENT
i$1 = 8
$T2 = 232
$T3 = 280
$T4 = 312
$T5 = 360
$T6 = 408
$T7 = 456
tv77 = 472
tv140 = 480
tv146 = 488
tv142 = 496
tv144 = 504
this$ = 544
baseaddr$ = 552
?removedevice_select_base@bus@@QEAAXH@Z PROC		; bus::removedevice_select_base, COMDAT

; 73   : void	bus::removedevice_select_base(int baseaddr) {

$LN11:
	mov	DWORD PTR [rsp+16], edx
	mov	QWORD PTR [rsp+8], rcx
	push	rbp
	push	rdi
	sub	rsp, 552				; 00000228H
	lea	rbp, QWORD PTR [rsp+32]
	mov	rdi, rsp
	mov	ecx, 138				; 0000008aH
	mov	eax, -858993460				; ccccccccH
	rep stosd
	mov	rcx, QWORD PTR [rsp+584]
	mov	QWORD PTR $T7[rbp], -2
	lea	rcx, OFFSET FLAT:__72010E87_bus@cpp
	call	__CheckForDebuggerJustMyCode

; 74   : 	for (size_t i = 0; i < devices.size(); i++) {

	mov	QWORD PTR i$1[rbp], 0
	jmp	SHORT $LN4@removedevi
$LN2@removedevi:
	mov	rax, QWORD PTR i$1[rbp]
	inc	rax
	mov	QWORD PTR i$1[rbp], rax
$LN4@removedevi:
	mov	rax, QWORD PTR this$[rbp]
	add	rax, 8
	mov	rcx, rax
	call	?size@?$vector@PEAVbus_device@@V?$allocator@PEAVbus_device@@@std@@@std@@QEBA_KXZ ; std::vector<bus_device *,std::allocator<bus_device *> >::size
	cmp	QWORD PTR i$1[rbp], rax
	jae	$LN1@removedevi

; 75   : 		if (devices[i]->devicestart == baseaddr) {

	mov	rax, QWORD PTR this$[rbp]
	add	rax, 8
	mov	rdx, QWORD PTR i$1[rbp]
	mov	rcx, rax
	call	??A?$vector@PEAVbus_device@@V?$allocator@PEAVbus_device@@@std@@@std@@QEAAAEAPEAVbus_device@@_K@Z ; std::vector<bus_device *,std::allocator<bus_device *> >::operator[]
	mov	rax, QWORD PTR [rax]
	mov	ecx, DWORD PTR baseaddr$[rbp]
	cmp	DWORD PTR [rax+44], ecx
	jne	$LN5@removedevi

; 76   : 			devices.erase(devices.begin() + i);

	lea	rax, QWORD PTR $T2[rbp]
	mov	QWORD PTR $T3[rbp], rax
	mov	rax, QWORD PTR this$[rbp]
	add	rax, 8
	lea	rdx, QWORD PTR $T4[rbp]
	mov	rcx, rax
	call	?begin@?$vector@PEAVbus_device@@V?$allocator@PEAVbus_device@@@std@@@std@@QEAA?AV?$_Vector_iterator@V?$_Vector_val@U?$_Simple_types@PEAVbus_device@@@std@@@std@@@2@XZ ; std::vector<bus_device *,std::allocator<bus_device *> >::begin
	mov	QWORD PTR tv77[rbp], rax
	mov	rax, QWORD PTR tv77[rbp]
	mov	QWORD PTR tv140[rbp], rax
	mov	r8, QWORD PTR i$1[rbp]
	lea	rdx, QWORD PTR $T5[rbp]
	mov	rcx, QWORD PTR tv140[rbp]
	call	??H?$_Vector_iterator@V?$_Vector_val@U?$_Simple_types@PEAVbus_device@@@std@@@std@@@std@@QEBA?AV01@_J@Z ; std::_Vector_iterator<std::_Vector_val<std::_Simple_types<bus_device *> > >::operator+
	mov	QWORD PTR tv146[rbp], rax
	mov	rax, QWORD PTR tv146[rbp]
	mov	QWORD PTR tv142[rbp], rax
	mov	rdx, QWORD PTR tv142[rbp]
	mov	rcx, QWORD PTR $T3[rbp]
	call	??0?$_Vector_const_iterator@V?$_Vector_val@U?$_Simple_types@PEAVbus_device@@@std@@@std@@@std@@QEAA@$$QEAV01@@Z
	mov	QWORD PTR tv144[rbp], rax
	mov	rax, QWORD PTR this$[rbp]
	add	rax, 8
	mov	r8, QWORD PTR tv144[rbp]
	lea	rdx, QWORD PTR $T6[rbp]
	mov	rcx, rax
	call	?erase@?$vector@PEAVbus_device@@V?$allocator@PEAVbus_device@@@std@@@std@@QEAA?AV?$_Vector_iterator@V?$_Vector_val@U?$_Simple_types@PEAVbus_device@@@std@@@std@@@2@V?$_Vector_const_iterator@V?$_Vector_val@U?$_Simple_types@PEAVbus_device@@@std@@@std@@@2@@Z ; std::vector<bus_device *,std::allocator<bus_device *> >::erase
	lea	rcx, QWORD PTR $T6[rbp]
	call	??1?$_Vector_iterator@V?$_Vector_val@U?$_Simple_types@PEAVbus_device@@@std@@@std@@@std@@QEAA@XZ
	npad	1
	lea	rcx, QWORD PTR $T5[rbp]
	call	??1?$_Vector_iterator@V?$_Vector_val@U?$_Simple_types@PEAVbus_device@@@std@@@std@@@std@@QEAA@XZ
	npad	1
	lea	rcx, QWORD PTR $T4[rbp]
	call	??1?$_Vector_iterator@V?$_Vector_val@U?$_Simple_types@PEAVbus_device@@@std@@@std@@@std@@QEAA@XZ

; 77   : 			return;

	jmp	SHORT $LN1@removedevi
$LN5@removedevi:

; 78   : 		}
; 79   : 	}

	jmp	$LN2@removedevi
$LN1@removedevi:

; 80   : }

	lea	rsp, QWORD PTR [rbp+520]
	pop	rdi
	pop	rbp
	ret	0
?removedevice_select_base@bus@@QEAAXH@Z ENDP		; bus::removedevice_select_base
_TEXT	ENDS
;	COMDAT text$x
text$x	SEGMENT
i$1 = 8
$T2 = 232
$T3 = 280
$T4 = 312
$T5 = 360
$T6 = 408
$T7 = 456
tv77 = 472
tv140 = 480
tv146 = 488
tv142 = 496
tv144 = 504
this$ = 544
baseaddr$ = 552
?dtor$0@?0??removedevice_select_base@bus@@QEAAXH@Z@4HA PROC ; `bus::removedevice_select_base'::`1'::dtor$0
	mov	QWORD PTR [rsp+8], rcx
	mov	QWORD PTR [rsp+16], rdx
	push	rbp
	push	rdi
	sub	rsp, 40					; 00000028H
	lea	rbp, QWORD PTR [rdx+32]
	lea	rcx, QWORD PTR $T4[rbp]
	call	??1?$_Vector_iterator@V?$_Vector_val@U?$_Simple_types@PEAVbus_device@@@std@@@std@@@std@@QEAA@XZ
	add	rsp, 40					; 00000028H
	pop	rdi
	pop	rbp
	ret	0
?dtor$0@?0??removedevice_select_base@bus@@QEAAXH@Z@4HA ENDP ; `bus::removedevice_select_base'::`1'::dtor$0
text$x	ENDS
;	COMDAT text$x
text$x	SEGMENT
i$1 = 8
$T2 = 232
$T3 = 280
$T4 = 312
$T5 = 360
$T6 = 408
$T7 = 456
tv77 = 472
tv140 = 480
tv146 = 488
tv142 = 496
tv144 = 504
this$ = 544
baseaddr$ = 552
?dtor$1@?0??removedevice_select_base@bus@@QEAAXH@Z@4HA PROC ; `bus::removedevice_select_base'::`1'::dtor$1
	mov	QWORD PTR [rsp+8], rcx
	mov	QWORD PTR [rsp+16], rdx
	push	rbp
	push	rdi
	sub	rsp, 40					; 00000028H
	lea	rbp, QWORD PTR [rdx+32]
	lea	rcx, QWORD PTR $T5[rbp]
	call	??1?$_Vector_iterator@V?$_Vector_val@U?$_Simple_types@PEAVbus_device@@@std@@@std@@@std@@QEAA@XZ
	add	rsp, 40					; 00000028H
	pop	rdi
	pop	rbp
	ret	0
?dtor$1@?0??removedevice_select_base@bus@@QEAAXH@Z@4HA ENDP ; `bus::removedevice_select_base'::`1'::dtor$1
text$x	ENDS
; Function compile flags: /Odtp /RTCsu /ZI
;	COMDAT text$x
text$x	SEGMENT
i$1 = 8
$T2 = 232
$T3 = 280
$T4 = 312
$T5 = 360
$T6 = 408
$T7 = 456
tv77 = 472
tv140 = 480
tv146 = 488
tv142 = 496
tv144 = 504
this$ = 544
baseaddr$ = 552
?dtor$0@?0??removedevice_select_base@bus@@QEAAXH@Z@4HA PROC ; `bus::removedevice_select_base'::`1'::dtor$0
	mov	QWORD PTR [rsp+8], rcx
	mov	QWORD PTR [rsp+16], rdx
	push	rbp
	push	rdi
	sub	rsp, 40					; 00000028H
	lea	rbp, QWORD PTR [rdx+32]
	lea	rcx, QWORD PTR $T4[rbp]
	call	??1?$_Vector_iterator@V?$_Vector_val@U?$_Simple_types@PEAVbus_device@@@std@@@std@@@std@@QEAA@XZ
	add	rsp, 40					; 00000028H
	pop	rdi
	pop	rbp
	ret	0
?dtor$0@?0??removedevice_select_base@bus@@QEAAXH@Z@4HA ENDP ; `bus::removedevice_select_base'::`1'::dtor$0
text$x	ENDS
; Function compile flags: /Odtp /RTCsu /ZI
;	COMDAT text$x
text$x	SEGMENT
i$1 = 8
$T2 = 232
$T3 = 280
$T4 = 312
$T5 = 360
$T6 = 408
$T7 = 456
tv77 = 472
tv140 = 480
tv146 = 488
tv142 = 496
tv144 = 504
this$ = 544
baseaddr$ = 552
?dtor$1@?0??removedevice_select_base@bus@@QEAAXH@Z@4HA PROC ; `bus::removedevice_select_base'::`1'::dtor$1
	mov	QWORD PTR [rsp+8], rcx
	mov	QWORD PTR [rsp+16], rdx
	push	rbp
	push	rdi
	sub	rsp, 40					; 00000028H
	lea	rbp, QWORD PTR [rdx+32]
	lea	rcx, QWORD PTR $T5[rbp]
	call	??1?$_Vector_iterator@V?$_Vector_val@U?$_Simple_types@PEAVbus_device@@@std@@@std@@@std@@QEAA@XZ
	add	rsp, 40					; 00000028H
	pop	rdi
	pop	rbp
	ret	0
?dtor$1@?0??removedevice_select_base@bus@@QEAAXH@Z@4HA ENDP ; `bus::removedevice_select_base'::`1'::dtor$1
text$x	ENDS
; Function compile flags: /Odtp /RTCsu /ZI
; File c:\users\nightorius.phibian\source\repos\denveremu\denveremu\bus.cpp
;	COMDAT ?registerdevice@bus@@QEAAXPEAVbus_device@@@Z
_TEXT	SEGMENT
this$ = 224
device$ = 232
?registerdevice@bus@@QEAAXPEAVbus_device@@@Z PROC	; bus::registerdevice, COMDAT

; 69   : void	bus::registerdevice(bus_device *device) {

$LN3:
	mov	QWORD PTR [rsp+16], rdx
	mov	QWORD PTR [rsp+8], rcx
	push	rbp
	push	rdi
	sub	rsp, 232				; 000000e8H
	lea	rbp, QWORD PTR [rsp+32]
	mov	rdi, rsp
	mov	ecx, 58					; 0000003aH
	mov	eax, -858993460				; ccccccccH
	rep stosd
	mov	rcx, QWORD PTR [rsp+264]
	lea	rcx, OFFSET FLAT:__72010E87_bus@cpp
	call	__CheckForDebuggerJustMyCode

; 70   : 	devices.push_back(device);

	mov	rax, QWORD PTR this$[rbp]
	add	rax, 8
	lea	rdx, QWORD PTR device$[rbp]
	mov	rcx, rax
	call	?push_back@?$vector@PEAVbus_device@@V?$allocator@PEAVbus_device@@@std@@@std@@QEAAXAEBQEAVbus_device@@@Z ; std::vector<bus_device *,std::allocator<bus_device *> >::push_back

; 71   : }

	lea	rsp, QWORD PTR [rbp+200]
	pop	rdi
	pop	rbp
	ret	0
?registerdevice@bus@@QEAAXPEAVbus_device@@@Z ENDP	; bus::registerdevice
_TEXT	ENDS
; Function compile flags: /Odtp /RTCsu /ZI
; File c:\users\nightorius.phibian\source\repos\denveremu\denveremu\bus.cpp
;	COMDAT ?irq_pulled@bus@@QEAA_NXZ
_TEXT	SEGMENT
<range>$L0$1 = 8
<begin>$L0$2 = 40
<end>$L0$3 = 72
device$4 = 104
this$ = 352
?irq_pulled@bus@@QEAA_NXZ PROC				; bus::irq_pulled, COMDAT

; 93   : bool	bus::irq_pulled() {

$LN7:
	mov	QWORD PTR [rsp+8], rcx
	push	rbp
	push	rdi
	sub	rsp, 360				; 00000168H
	lea	rbp, QWORD PTR [rsp+32]
	mov	rdi, rsp
	mov	ecx, 90					; 0000005aH
	mov	eax, -858993460				; ccccccccH
	rep stosd
	mov	rcx, QWORD PTR [rsp+392]
	lea	rcx, OFFSET FLAT:__72010E87_bus@cpp
	call	__CheckForDebuggerJustMyCode

; 94   : 	for (auto device : devices) {

	mov	rax, QWORD PTR this$[rbp]
	add	rax, 8
	mov	QWORD PTR <range>$L0$1[rbp], rax
	mov	rcx, QWORD PTR <range>$L0$1[rbp]
	call	?_Unchecked_begin@?$vector@PEAVbus_device@@V?$allocator@PEAVbus_device@@@std@@@std@@QEAAPEAPEAVbus_device@@XZ ; std::vector<bus_device *,std::allocator<bus_device *> >::_Unchecked_begin
	mov	QWORD PTR <begin>$L0$2[rbp], rax
	mov	rcx, QWORD PTR <range>$L0$1[rbp]
	call	?_Unchecked_end@?$vector@PEAVbus_device@@V?$allocator@PEAVbus_device@@@std@@@std@@QEAAPEAPEAVbus_device@@XZ ; std::vector<bus_device *,std::allocator<bus_device *> >::_Unchecked_end
	mov	QWORD PTR <end>$L0$3[rbp], rax
	jmp	SHORT $LN4@irq_pulled
$LN2@irq_pulled:
	mov	rax, QWORD PTR <begin>$L0$2[rbp]
	add	rax, 8
	mov	QWORD PTR <begin>$L0$2[rbp], rax
$LN4@irq_pulled:
	mov	rax, QWORD PTR <end>$L0$3[rbp]
	cmp	QWORD PTR <begin>$L0$2[rbp], rax
	je	SHORT $LN3@irq_pulled
	mov	rax, QWORD PTR <begin>$L0$2[rbp]
	mov	rax, QWORD PTR [rax]
	mov	QWORD PTR device$4[rbp], rax

; 95   : 		if (device->irq_enable) return true;	// device should pull up IRQ not the interrupted device, therefore only report.

	mov	rax, QWORD PTR device$4[rbp]
	movzx	eax, BYTE PTR [rax+20]
	test	eax, eax
	je	SHORT $LN5@irq_pulled
	mov	al, 1
	jmp	SHORT $LN1@irq_pulled
$LN5@irq_pulled:

; 96   : 	}

	jmp	SHORT $LN2@irq_pulled
$LN3@irq_pulled:

; 97   : 	return false;

	xor	al, al
$LN1@irq_pulled:

; 98   : }

	lea	rsp, QWORD PTR [rbp+328]
	pop	rdi
	pop	rbp
	ret	0
?irq_pulled@bus@@QEAA_NXZ ENDP				; bus::irq_pulled
_TEXT	ENDS
; Function compile flags: /Odtp /RTCsu /ZI
; File c:\users\nightorius.phibian\source\repos\denveremu\denveremu\bus.cpp
;	COMDAT ?nmi_pulled@bus@@QEAA_NXZ
_TEXT	SEGMENT
nmi$ = 4
<range>$L0$1 = 40
<begin>$L0$2 = 72
<end>$L0$3 = 104
device$4 = 136
this$ = 384
?nmi_pulled@bus@@QEAA_NXZ PROC				; bus::nmi_pulled, COMDAT

; 82   : bool	bus::nmi_pulled() {

$LN7:
	mov	QWORD PTR [rsp+8], rcx
	push	rbp
	push	rdi
	sub	rsp, 392				; 00000188H
	lea	rbp, QWORD PTR [rsp+32]
	mov	rdi, rsp
	mov	ecx, 98					; 00000062H
	mov	eax, -858993460				; ccccccccH
	rep stosd
	mov	rcx, QWORD PTR [rsp+424]
	lea	rcx, OFFSET FLAT:__72010E87_bus@cpp
	call	__CheckForDebuggerJustMyCode

; 83   : 	bool nmi = false;

	mov	BYTE PTR nmi$[rbp], 0

; 84   : 	for (auto device : devices) {

	mov	rax, QWORD PTR this$[rbp]
	add	rax, 8
	mov	QWORD PTR <range>$L0$1[rbp], rax
	mov	rcx, QWORD PTR <range>$L0$1[rbp]
	call	?_Unchecked_begin@?$vector@PEAVbus_device@@V?$allocator@PEAVbus_device@@@std@@@std@@QEAAPEAPEAVbus_device@@XZ ; std::vector<bus_device *,std::allocator<bus_device *> >::_Unchecked_begin
	mov	QWORD PTR <begin>$L0$2[rbp], rax
	mov	rcx, QWORD PTR <range>$L0$1[rbp]
	call	?_Unchecked_end@?$vector@PEAVbus_device@@V?$allocator@PEAVbus_device@@@std@@@std@@QEAAPEAPEAVbus_device@@XZ ; std::vector<bus_device *,std::allocator<bus_device *> >::_Unchecked_end
	mov	QWORD PTR <end>$L0$3[rbp], rax
	jmp	SHORT $LN4@nmi_pulled
$LN2@nmi_pulled:
	mov	rax, QWORD PTR <begin>$L0$2[rbp]
	add	rax, 8
	mov	QWORD PTR <begin>$L0$2[rbp], rax
$LN4@nmi_pulled:
	mov	rax, QWORD PTR <end>$L0$3[rbp]
	cmp	QWORD PTR <begin>$L0$2[rbp], rax
	je	SHORT $LN3@nmi_pulled
	mov	rax, QWORD PTR <begin>$L0$2[rbp]
	mov	rax, QWORD PTR [rax]
	mov	QWORD PTR device$4[rbp], rax

; 85   : 		if (device->nmi_enable) {

	mov	rax, QWORD PTR device$4[rbp]
	movzx	eax, BYTE PTR [rax+21]
	test	eax, eax
	je	SHORT $LN5@nmi_pulled

; 86   : 			device->nmi_enable = false;	// NMI is falling edge.

	mov	rax, QWORD PTR device$4[rbp]
	mov	BYTE PTR [rax+21], 0

; 87   : 			nmi = true;

	mov	BYTE PTR nmi$[rbp], 1
$LN5@nmi_pulled:

; 88   : 		}
; 89   : 	}

	jmp	SHORT $LN2@nmi_pulled
$LN3@nmi_pulled:

; 90   : 	return nmi;

	movzx	eax, BYTE PTR nmi$[rbp]

; 91   : }

	lea	rsp, QWORD PTR [rbp+360]
	pop	rdi
	pop	rbp
	ret	0
?nmi_pulled@bus@@QEAA_NXZ ENDP				; bus::nmi_pulled
_TEXT	ENDS
; Function compile flags: /Odtp /RTCsu /ZI
; File c:\users\nightorius.phibian\source\repos\denveremu\denveremu\bus.cpp
;	COMDAT ?read@bus@@QEAAEXZ
_TEXT	SEGMENT
readbus$ = 4
<range>$L0$1 = 40
<begin>$L0$2 = 72
<end>$L0$3 = 104
device$4 = 136
caddr$5 = 164
tv131 = 376
this$ = 416
?read@bus@@QEAAEXZ PROC					; bus::read, COMDAT

; 53   : byte	bus::read() {

$LN8:
	mov	QWORD PTR [rsp+8], rcx
	push	rbp
	push	rdi
	sub	rsp, 424				; 000001a8H
	lea	rbp, QWORD PTR [rsp+32]
	mov	rdi, rsp
	mov	ecx, 106				; 0000006aH
	mov	eax, -858993460				; ccccccccH
	rep stosd
	mov	rcx, QWORD PTR [rsp+456]
	lea	rcx, OFFSET FLAT:__72010E87_bus@cpp
	call	__CheckForDebuggerJustMyCode

; 54   : 	byte	readbus = 0x00;

	mov	BYTE PTR readbus$[rbp], 0

; 55   : 	for (auto device : devices) {

	mov	rax, QWORD PTR this$[rbp]
	add	rax, 8
	mov	QWORD PTR <range>$L0$1[rbp], rax
	mov	rcx, QWORD PTR <range>$L0$1[rbp]
	call	?_Unchecked_begin@?$vector@PEAVbus_device@@V?$allocator@PEAVbus_device@@@std@@@std@@QEAAPEAPEAVbus_device@@XZ ; std::vector<bus_device *,std::allocator<bus_device *> >::_Unchecked_begin
	mov	QWORD PTR <begin>$L0$2[rbp], rax
	mov	rcx, QWORD PTR <range>$L0$1[rbp]
	call	?_Unchecked_end@?$vector@PEAVbus_device@@V?$allocator@PEAVbus_device@@@std@@@std@@QEAAPEAPEAVbus_device@@XZ ; std::vector<bus_device *,std::allocator<bus_device *> >::_Unchecked_end
	mov	QWORD PTR <end>$L0$3[rbp], rax
	jmp	SHORT $LN4@read
$LN2@read:
	mov	rax, QWORD PTR <begin>$L0$2[rbp]
	add	rax, 8
	mov	QWORD PTR <begin>$L0$2[rbp], rax
$LN4@read:
	mov	rax, QWORD PTR <end>$L0$3[rbp]
	cmp	QWORD PTR <begin>$L0$2[rbp], rax
	je	$LN3@read
	mov	rax, QWORD PTR <begin>$L0$2[rbp]
	mov	rax, QWORD PTR [rax]
	mov	QWORD PTR device$4[rbp], rax

; 56   : 		if ((address >= device->devicestart) && (address <= device->deviceend)) {

	mov	rax, QWORD PTR this$[rbp]
	mov	rcx, QWORD PTR device$4[rbp]
	mov	ecx, DWORD PTR [rcx+44]
	cmp	DWORD PTR [rax], ecx
	jl	$LN5@read
	mov	rax, QWORD PTR this$[rbp]
	mov	rcx, QWORD PTR device$4[rbp]
	mov	ecx, DWORD PTR [rcx+48]
	cmp	DWORD PTR [rax], ecx
	jg	SHORT $LN5@read

; 57   : 			word caddr = device->compute_addr_from_layout(address);

	mov	rax, QWORD PTR this$[rbp]
	movzx	edx, WORD PTR [rax]
	mov	rcx, QWORD PTR device$4[rbp]
	call	?compute_addr_from_layout@bus_device@@QEAAGG@Z ; bus_device::compute_addr_from_layout
	mov	WORD PTR caddr$5[rbp], ax

; 58   : 			readbus |= device->read(caddr, caddr - device->devicestart);

	movzx	eax, WORD PTR caddr$5[rbp]
	mov	rcx, QWORD PTR device$4[rbp]
	sub	eax, DWORD PTR [rcx+44]
	movzx	ecx, WORD PTR caddr$5[rbp]
	mov	rdx, QWORD PTR device$4[rbp]
	mov	rdx, QWORD PTR [rdx]
	mov	QWORD PTR tv131[rbp], rdx
	mov	r8d, eax
	mov	edx, ecx
	mov	rcx, QWORD PTR device$4[rbp]
	mov	rax, QWORD PTR tv131[rbp]
	call	QWORD PTR [rax+32]
	movzx	eax, al
	movzx	ecx, BYTE PTR readbus$[rbp]
	or	ecx, eax
	mov	eax, ecx
	mov	BYTE PTR readbus$[rbp], al

; 59   : 			if (!no_bus_conflicts) break; // do not emulate bus conflicts, we are done.

	mov	rax, QWORD PTR this$[rbp]
	movzx	eax, BYTE PTR [rax+40]
	test	eax, eax
	jne	SHORT $LN6@read
	jmp	SHORT $LN3@read
$LN6@read:
$LN5@read:

; 60   : 		}		
; 61   : 	}

	jmp	$LN2@read
$LN3@read:

; 62   : 	return readbus;

	movzx	eax, BYTE PTR readbus$[rbp]

; 63   : }

	lea	rsp, QWORD PTR [rbp+392]
	pop	rdi
	pop	rbp
	ret	0
?read@bus@@QEAAEXZ ENDP					; bus::read
_TEXT	ENDS
; Function compile flags: /Odtp /RTCsu /ZI
; File c:\users\nightorius.phibian\source\repos\denveremu\denveremu\bus.cpp
;	COMDAT ?write@bus@@QEAAXE@Z
_TEXT	SEGMENT
<range>$L0$1 = 8
<begin>$L0$2 = 40
<end>$L0$3 = 72
device$4 = 104
caddr$5 = 132
tv95 = 344
this$ = 384
data$ = 392
?write@bus@@QEAAXE@Z PROC				; bus::write, COMDAT

; 43   : void	bus::write(byte data) {

$LN8:
	mov	BYTE PTR [rsp+16], dl
	mov	QWORD PTR [rsp+8], rcx
	push	rbp
	push	rdi
	sub	rsp, 392				; 00000188H
	lea	rbp, QWORD PTR [rsp+32]
	mov	rdi, rsp
	mov	ecx, 98					; 00000062H
	mov	eax, -858993460				; ccccccccH
	rep stosd
	mov	rcx, QWORD PTR [rsp+424]
	lea	rcx, OFFSET FLAT:__72010E87_bus@cpp
	call	__CheckForDebuggerJustMyCode

; 44   : 	for (auto device : devices) {

	mov	rax, QWORD PTR this$[rbp]
	add	rax, 8
	mov	QWORD PTR <range>$L0$1[rbp], rax
	mov	rcx, QWORD PTR <range>$L0$1[rbp]
	call	?_Unchecked_begin@?$vector@PEAVbus_device@@V?$allocator@PEAVbus_device@@@std@@@std@@QEAAPEAPEAVbus_device@@XZ ; std::vector<bus_device *,std::allocator<bus_device *> >::_Unchecked_begin
	mov	QWORD PTR <begin>$L0$2[rbp], rax
	mov	rcx, QWORD PTR <range>$L0$1[rbp]
	call	?_Unchecked_end@?$vector@PEAVbus_device@@V?$allocator@PEAVbus_device@@@std@@@std@@QEAAPEAPEAVbus_device@@XZ ; std::vector<bus_device *,std::allocator<bus_device *> >::_Unchecked_end
	mov	QWORD PTR <end>$L0$3[rbp], rax
	jmp	SHORT $LN4@write
$LN2@write:
	mov	rax, QWORD PTR <begin>$L0$2[rbp]
	add	rax, 8
	mov	QWORD PTR <begin>$L0$2[rbp], rax
$LN4@write:
	mov	rax, QWORD PTR <end>$L0$3[rbp]
	cmp	QWORD PTR <begin>$L0$2[rbp], rax
	je	$LN3@write
	mov	rax, QWORD PTR <begin>$L0$2[rbp]
	mov	rax, QWORD PTR [rax]
	mov	QWORD PTR device$4[rbp], rax

; 45   : 		if ((address >= device->devicestart) && (address <= device->deviceend)) {

	mov	rax, QWORD PTR this$[rbp]
	mov	rcx, QWORD PTR device$4[rbp]
	mov	ecx, DWORD PTR [rcx+44]
	cmp	DWORD PTR [rax], ecx
	jl	SHORT $LN5@write
	mov	rax, QWORD PTR this$[rbp]
	mov	rcx, QWORD PTR device$4[rbp]
	mov	ecx, DWORD PTR [rcx+48]
	cmp	DWORD PTR [rax], ecx
	jg	SHORT $LN5@write

; 46   : 			word caddr = device->compute_addr_from_layout(address);

	mov	rax, QWORD PTR this$[rbp]
	movzx	edx, WORD PTR [rax]
	mov	rcx, QWORD PTR device$4[rbp]
	call	?compute_addr_from_layout@bus_device@@QEAAGG@Z ; bus_device::compute_addr_from_layout
	mov	WORD PTR caddr$5[rbp], ax

; 47   : 			device->write(caddr, caddr - device->devicestart, data);

	movzx	eax, WORD PTR caddr$5[rbp]
	mov	rcx, QWORD PTR device$4[rbp]
	sub	eax, DWORD PTR [rcx+44]
	movzx	ecx, WORD PTR caddr$5[rbp]
	mov	rdx, QWORD PTR device$4[rbp]
	mov	rdx, QWORD PTR [rdx]
	mov	QWORD PTR tv95[rbp], rdx
	movzx	r9d, BYTE PTR data$[rbp]
	mov	r8d, eax
	mov	edx, ecx
	mov	rcx, QWORD PTR device$4[rbp]
	mov	rax, QWORD PTR tv95[rbp]
	call	QWORD PTR [rax+24]

; 48   : 			if (!no_bus_conflicts) break;	// do not emulate bus conflicts, we are done.

	mov	rax, QWORD PTR this$[rbp]
	movzx	eax, BYTE PTR [rax+40]
	test	eax, eax
	jne	SHORT $LN6@write
	jmp	SHORT $LN3@write
$LN6@write:
$LN5@write:

; 49   : 		}
; 50   : 	}

	jmp	$LN2@write
$LN3@write:

; 51   : }

	lea	rsp, QWORD PTR [rbp+360]
	pop	rdi
	pop	rbp
	ret	0
?write@bus@@QEAAXE@Z ENDP				; bus::write
_TEXT	ENDS
; Function compile flags: /Odtp /RTCsu /ZI
; File c:\users\nightorius.phibian\source\repos\denveremu\denveremu\bus.cpp
;	COMDAT ?readmemory_as_word_wrap@bus@@QEAAGH@Z
_TEXT	SEGMENT
result$ = 4
tv73 = 212
this$ = 256
addr$ = 264
?readmemory_as_word_wrap@bus@@QEAAGH@Z PROC		; bus::readmemory_as_word_wrap, COMDAT

; 35   : word	bus::readmemory_as_word_wrap(int addr) {

$LN3:
	mov	DWORD PTR [rsp+16], edx
	mov	QWORD PTR [rsp+8], rcx
	push	rbp
	push	rdi
	sub	rsp, 264				; 00000108H
	lea	rbp, QWORD PTR [rsp+32]
	mov	rdi, rsp
	mov	ecx, 66					; 00000042H
	mov	eax, -858993460				; ccccccccH
	rep stosd
	mov	rcx, QWORD PTR [rsp+296]
	lea	rcx, OFFSET FLAT:__72010E87_bus@cpp
	call	__CheckForDebuggerJustMyCode

; 36   : 	word		result;
; 37   : 	address = addr;

	mov	rax, QWORD PTR this$[rbp]
	mov	ecx, DWORD PTR addr$[rbp]
	mov	DWORD PTR [rax], ecx

; 38   : 	result = read();

	mov	rcx, QWORD PTR this$[rbp]
	call	?read@bus@@QEAAEXZ			; bus::read
	movzx	eax, al
	mov	WORD PTR result$[rbp], ax

; 39   : 	address = (addr & 0xFF00) | ((addr + 1) & 0xFF);

	mov	eax, DWORD PTR addr$[rbp]
	and	eax, 65280				; 0000ff00H
	mov	ecx, DWORD PTR addr$[rbp]
	inc	ecx
	and	ecx, 255				; 000000ffH
	or	eax, ecx
	mov	rcx, QWORD PTR this$[rbp]
	mov	DWORD PTR [rcx], eax

; 40   : 	return result | read() << 8;

	movzx	eax, WORD PTR result$[rbp]
	mov	DWORD PTR tv73[rbp], eax
	mov	rcx, QWORD PTR this$[rbp]
	call	?read@bus@@QEAAEXZ			; bus::read
	movzx	eax, al
	shl	eax, 8
	mov	ecx, DWORD PTR tv73[rbp]
	or	ecx, eax
	mov	eax, ecx

; 41   : }

	lea	rsp, QWORD PTR [rbp+232]
	pop	rdi
	pop	rbp
	ret	0
?readmemory_as_word_wrap@bus@@QEAAGH@Z ENDP		; bus::readmemory_as_word_wrap
_TEXT	ENDS
; Function compile flags: /Odtp /RTCsu /ZI
; File c:\users\nightorius.phibian\source\repos\denveremu\denveremu\bus.cpp
;	COMDAT ?readmemory_as_word@bus@@QEAAGH@Z
_TEXT	SEGMENT
result$ = 4
tv72 = 212
this$ = 256
addr$ = 264
?readmemory_as_word@bus@@QEAAGH@Z PROC			; bus::readmemory_as_word, COMDAT

; 27   : word	bus::readmemory_as_word(int addr) {

$LN3:
	mov	DWORD PTR [rsp+16], edx
	mov	QWORD PTR [rsp+8], rcx
	push	rbp
	push	rdi
	sub	rsp, 264				; 00000108H
	lea	rbp, QWORD PTR [rsp+32]
	mov	rdi, rsp
	mov	ecx, 66					; 00000042H
	mov	eax, -858993460				; ccccccccH
	rep stosd
	mov	rcx, QWORD PTR [rsp+296]
	lea	rcx, OFFSET FLAT:__72010E87_bus@cpp
	call	__CheckForDebuggerJustMyCode

; 28   : 	word		result;
; 29   : 	address = addr;

	mov	rax, QWORD PTR this$[rbp]
	mov	ecx, DWORD PTR addr$[rbp]
	mov	DWORD PTR [rax], ecx

; 30   : 	result = read();

	mov	rcx, QWORD PTR this$[rbp]
	call	?read@bus@@QEAAEXZ			; bus::read
	movzx	eax, al
	mov	WORD PTR result$[rbp], ax

; 31   : 	address++;

	mov	rax, QWORD PTR this$[rbp]
	mov	eax, DWORD PTR [rax]
	inc	eax
	mov	rcx, QWORD PTR this$[rbp]
	mov	DWORD PTR [rcx], eax

; 32   : 	return result | read() << 8;

	movzx	eax, WORD PTR result$[rbp]
	mov	DWORD PTR tv72[rbp], eax
	mov	rcx, QWORD PTR this$[rbp]
	call	?read@bus@@QEAAEXZ			; bus::read
	movzx	eax, al
	shl	eax, 8
	mov	ecx, DWORD PTR tv72[rbp]
	or	ecx, eax
	mov	eax, ecx

; 33   : }

	lea	rsp, QWORD PTR [rbp+232]
	pop	rdi
	pop	rbp
	ret	0
?readmemory_as_word@bus@@QEAAGH@Z ENDP			; bus::readmemory_as_word
_TEXT	ENDS
; Function compile flags: /Odtp /RTCsu /ZI
; File c:\users\nightorius.phibian\source\repos\denveremu\denveremu\bus.cpp
;	COMDAT ?readmemory@bus@@QEAAEH@Z
_TEXT	SEGMENT
this$ = 224
addr$ = 232
?readmemory@bus@@QEAAEH@Z PROC				; bus::readmemory, COMDAT

; 22   : byte	bus::readmemory(int addr) {

$LN3:
	mov	DWORD PTR [rsp+16], edx
	mov	QWORD PTR [rsp+8], rcx
	push	rbp
	push	rdi
	sub	rsp, 232				; 000000e8H
	lea	rbp, QWORD PTR [rsp+32]
	mov	rdi, rsp
	mov	ecx, 58					; 0000003aH
	mov	eax, -858993460				; ccccccccH
	rep stosd
	mov	rcx, QWORD PTR [rsp+264]
	lea	rcx, OFFSET FLAT:__72010E87_bus@cpp
	call	__CheckForDebuggerJustMyCode

; 23   : 	address = addr;

	mov	rax, QWORD PTR this$[rbp]
	mov	ecx, DWORD PTR addr$[rbp]
	mov	DWORD PTR [rax], ecx

; 24   : 	return read();

	mov	rcx, QWORD PTR this$[rbp]
	call	?read@bus@@QEAAEXZ			; bus::read

; 25   : }

	lea	rsp, QWORD PTR [rbp+200]
	pop	rdi
	pop	rbp
	ret	0
?readmemory@bus@@QEAAEH@Z ENDP				; bus::readmemory
_TEXT	ENDS
; Function compile flags: /Odtp /RTCsu /ZI
; File c:\users\nightorius.phibian\source\repos\denveremu\denveremu\bus.cpp
;	COMDAT ?writememory@bus@@QEAAXHE@Z
_TEXT	SEGMENT
this$ = 224
addr$ = 232
data$ = 240
?writememory@bus@@QEAAXHE@Z PROC			; bus::writememory, COMDAT

; 17   : void	bus::writememory(int addr, byte data) {

$LN3:
	mov	BYTE PTR [rsp+24], r8b
	mov	DWORD PTR [rsp+16], edx
	mov	QWORD PTR [rsp+8], rcx
	push	rbp
	push	rdi
	sub	rsp, 232				; 000000e8H
	lea	rbp, QWORD PTR [rsp+32]
	mov	rdi, rsp
	mov	ecx, 58					; 0000003aH
	mov	eax, -858993460				; ccccccccH
	rep stosd
	mov	rcx, QWORD PTR [rsp+264]
	lea	rcx, OFFSET FLAT:__72010E87_bus@cpp
	call	__CheckForDebuggerJustMyCode

; 18   : 	address = addr;

	mov	rax, QWORD PTR this$[rbp]
	mov	ecx, DWORD PTR addr$[rbp]
	mov	DWORD PTR [rax], ecx

; 19   : 	write(data);

	movzx	edx, BYTE PTR data$[rbp]
	mov	rcx, QWORD PTR this$[rbp]
	call	?write@bus@@QEAAXE@Z			; bus::write

; 20   : }

	lea	rsp, QWORD PTR [rbp+200]
	pop	rdi
	pop	rbp
	ret	0
?writememory@bus@@QEAAXHE@Z ENDP			; bus::writememory
_TEXT	ENDS
; Function compile flags: /Odtp /RTCsu /ZI
; File c:\users\nightorius.phibian\source\repos\denveremu\denveremu\bus.cpp
;	COMDAT ??1bus@@QEAA@XZ
_TEXT	SEGMENT
<range>$L0$1 = 8
<begin>$L0$2 = 40
<end>$L0$3 = 72
device$4 = 104
$T5 = 328
$T6 = 360
$T7 = 392
tv79 = 408
this$ = 448
??1bus@@QEAA@XZ PROC					; bus::~bus, COMDAT

; 12   : bus::~bus() {

$LN8:
	mov	QWORD PTR [rsp+8], rcx
	push	rbp
	push	rdi
	sub	rsp, 456				; 000001c8H
	lea	rbp, QWORD PTR [rsp+32]
	mov	rdi, rsp
	mov	ecx, 114				; 00000072H
	mov	eax, -858993460				; ccccccccH
	rep stosd
	mov	rcx, QWORD PTR [rsp+488]
	mov	QWORD PTR $T7[rbp], -2
	lea	rcx, OFFSET FLAT:__72010E87_bus@cpp
	call	__CheckForDebuggerJustMyCode
	npad	1

; 13   : 	// free all connected devices.
; 14   : 	for (auto device : devices) delete device;

	mov	rax, QWORD PTR this$[rbp]
	add	rax, 8
	mov	QWORD PTR <range>$L0$1[rbp], rax
	mov	rcx, QWORD PTR <range>$L0$1[rbp]
	call	?_Unchecked_begin@?$vector@PEAVbus_device@@V?$allocator@PEAVbus_device@@@std@@@std@@QEAAPEAPEAVbus_device@@XZ ; std::vector<bus_device *,std::allocator<bus_device *> >::_Unchecked_begin
	npad	1
	mov	QWORD PTR <begin>$L0$2[rbp], rax
	mov	rcx, QWORD PTR <range>$L0$1[rbp]
	call	?_Unchecked_end@?$vector@PEAVbus_device@@V?$allocator@PEAVbus_device@@@std@@@std@@QEAAPEAPEAVbus_device@@XZ ; std::vector<bus_device *,std::allocator<bus_device *> >::_Unchecked_end
	npad	1
	mov	QWORD PTR <end>$L0$3[rbp], rax
	jmp	SHORT $LN4@bus
$LN2@bus:
	mov	rax, QWORD PTR <begin>$L0$2[rbp]
	add	rax, 8
	mov	QWORD PTR <begin>$L0$2[rbp], rax
$LN4@bus:
	mov	rax, QWORD PTR <end>$L0$3[rbp]
	cmp	QWORD PTR <begin>$L0$2[rbp], rax
	je	SHORT $LN3@bus
	mov	rax, QWORD PTR <begin>$L0$2[rbp]
	mov	rax, QWORD PTR [rax]
	mov	QWORD PTR device$4[rbp], rax
	mov	rax, QWORD PTR device$4[rbp]
	mov	QWORD PTR $T6[rbp], rax
	mov	rax, QWORD PTR $T6[rbp]
	mov	QWORD PTR $T5[rbp], rax
	cmp	QWORD PTR $T5[rbp], 0
	je	SHORT $LN6@bus
	mov	rax, QWORD PTR $T5[rbp]
	mov	rax, QWORD PTR [rax]
	mov	edx, 1
	mov	rcx, QWORD PTR $T5[rbp]
	call	QWORD PTR [rax+16]
	npad	1
	mov	QWORD PTR tv79[rbp], rax
	jmp	SHORT $LN7@bus
$LN6@bus:
	mov	QWORD PTR tv79[rbp], 0
$LN7@bus:
	jmp	SHORT $LN2@bus
$LN3@bus:

; 15   : }

	mov	rax, QWORD PTR this$[rbp]
	add	rax, 8
	mov	rcx, rax
	call	??1?$vector@PEAVbus_device@@V?$allocator@PEAVbus_device@@@std@@@std@@QEAA@XZ ; std::vector<bus_device *,std::allocator<bus_device *> >::~vector<bus_device *,std::allocator<bus_device *> >
	npad	1
	lea	rsp, QWORD PTR [rbp+424]
	pop	rdi
	pop	rbp
	ret	0
??1bus@@QEAA@XZ ENDP					; bus::~bus
_TEXT	ENDS
; Function compile flags: /Odtp /RTCsu /ZI
; File c:\users\nightorius.phibian\source\repos\denveremu\denveremu\bus.cpp
; File c:\users\nightorius.phibian\source\repos\denveremu\denveremu\bus.h
; File c:\users\nightorius.phibian\source\repos\denveremu\denveremu\bus.cpp
;	COMDAT ??0bus@@QEAA@XZ
_TEXT	SEGMENT
this$ = 224
??0bus@@QEAA@XZ PROC					; bus::bus, COMDAT

; 8    : bus::bus() {

$LN4:
	mov	QWORD PTR [rsp+8], rcx
	push	rbp
	push	rdi
	sub	rsp, 232				; 000000e8H
	lea	rbp, QWORD PTR [rsp+32]
	mov	rdi, rsp
	mov	ecx, 58					; 0000003aH
	mov	eax, -858993460				; ccccccccH
	rep stosd
	mov	rcx, QWORD PTR [rsp+264]
	lea	rcx, OFFSET FLAT:__72010E87_bus@cpp
	call	__CheckForDebuggerJustMyCode
	mov	rax, QWORD PTR this$[rbp]
	add	rax, 8
	mov	rcx, rax
	call	??0?$vector@PEAVbus_device@@V?$allocator@PEAVbus_device@@@std@@@std@@QEAA@XZ ; std::vector<bus_device *,std::allocator<bus_device *> >::vector<bus_device *,std::allocator<bus_device *> >
; File c:\users\nightorius.phibian\source\repos\denveremu\denveremu\bus.h

; 73   : 	bool	no_bus_conflicts = false;		// default we do not emulate bus conflicts, it is costly.

	mov	rax, QWORD PTR this$[rbp]
	mov	BYTE PTR [rax+40], 0
; File c:\users\nightorius.phibian\source\repos\denveremu\denveremu\bus.cpp

; 9    : }

	mov	rax, QWORD PTR this$[rbp]
	lea	rsp, QWORD PTR [rbp+200]
	pop	rdi
	pop	rbp
	ret	0
??0bus@@QEAA@XZ ENDP					; bus::bus
_TEXT	ENDS
; Function compile flags: /Odtp /RTCsu /ZI
; File c:\program files (x86)\microsoft visual studio\2017\community\vc\tools\msvc\14.16.27023\include\vector
;	COMDAT ?_Orphan_range@?$vector@PEAVbus_device@@V?$allocator@PEAVbus_device@@@std@@@std@@AEBAXPEAPEAVbus_device@@0@Z
_TEXT	SEGMENT
_Lock$ = 4
_Pnext$ = 40
$T4 = 264
__$ArrayPad$ = 280
this$ = 320
_First$ = 328
_Last$ = 336
?_Orphan_range@?$vector@PEAVbus_device@@V?$allocator@PEAVbus_device@@@std@@@std@@AEBAXPEAPEAVbus_device@@0@Z PROC ; std::vector<bus_device *,std::allocator<bus_device *> >::_Orphan_range, COMDAT

; 1936 : 		{	// orphan iterators within specified (inclusive) range

$LN10:
	mov	QWORD PTR [rsp+24], r8
	mov	QWORD PTR [rsp+16], rdx
	mov	QWORD PTR [rsp+8], rcx
	push	rbp
	push	rdi
	sub	rsp, 328				; 00000148H
	lea	rbp, QWORD PTR [rsp+32]
	mov	rdi, rsp
	mov	ecx, 82					; 00000052H
	mov	eax, -858993460				; ccccccccH
	rep stosd
	mov	rcx, QWORD PTR [rsp+360]
	mov	QWORD PTR $T4[rbp], -2
	mov	rax, QWORD PTR __security_cookie
	xor	rax, rbp
	mov	QWORD PTR __$ArrayPad$[rbp], rax
	lea	rcx, OFFSET FLAT:__FF7D7337_vector
	call	__CheckForDebuggerJustMyCode

; 1937 : 		_Lockit _Lock(_LOCK_DEBUG);

	mov	edx, 3
	lea	rcx, QWORD PTR _Lock$[rbp]
	call	QWORD PTR __imp_??0_Lockit@std@@QEAA@H@Z
	npad	1

; 1938 : 
; 1939 : 		const_iterator ** _Pnext = reinterpret_cast<const_iterator **>(this->_Getpfirst());

	mov	rcx, QWORD PTR this$[rbp]
	call	?_Getpfirst@?$_Vector_alloc@U?$_Vec_base_types@PEAVbus_device@@V?$allocator@PEAVbus_device@@@std@@@std@@@std@@QEBAPEAPEAU_Iterator_base12@2@XZ ; std::_Vector_alloc<std::_Vec_base_types<bus_device *,std::allocator<bus_device *> > >::_Getpfirst
	mov	QWORD PTR _Pnext$[rbp], rax

; 1940 : 
; 1941 : 		if (_Pnext)

	cmp	QWORD PTR _Pnext$[rbp], 0
	je	SHORT $LN4@Orphan_ran
$LN2@Orphan_ran:

; 1942 : 			{
; 1943 : 			while (*_Pnext)

	mov	rax, QWORD PTR _Pnext$[rbp]
	cmp	QWORD PTR [rax], 0
	je	SHORT $LN4@Orphan_ran

; 1944 : 				{
; 1945 : 				if ((*_Pnext)->_Ptr < _First || _Last < (*_Pnext)->_Ptr)

	mov	rax, QWORD PTR _Pnext$[rbp]
	mov	rax, QWORD PTR [rax]
	mov	rcx, QWORD PTR _First$[rbp]
	cmp	QWORD PTR [rax+16], rcx
	jb	SHORT $LN7@Orphan_ran
	mov	rax, QWORD PTR _Pnext$[rbp]
	mov	rax, QWORD PTR [rax]
	mov	rax, QWORD PTR [rax+16]
	cmp	QWORD PTR _Last$[rbp], rax
	jae	SHORT $LN5@Orphan_ran
$LN7@Orphan_ran:

; 1946 : 					{	// skip the iterator
; 1947 : 					_Pnext = reinterpret_cast<const_iterator **>((*_Pnext)->_Getpnext());

	mov	rax, QWORD PTR _Pnext$[rbp]
	mov	rcx, QWORD PTR [rax]
	call	?_Getpnext@_Iterator_base12@std@@QEAAPEAPEAU12@XZ ; std::_Iterator_base12::_Getpnext
	mov	QWORD PTR _Pnext$[rbp], rax

; 1948 : 					}
; 1949 : 				else

	jmp	SHORT $LN6@Orphan_ran
$LN5@Orphan_ran:

; 1950 : 					{	// orphan the iterator
; 1951 : 					(*_Pnext)->_Clrcont();

	mov	rax, QWORD PTR _Pnext$[rbp]
	mov	rcx, QWORD PTR [rax]
	call	?_Clrcont@_Iterator_base12@std@@QEAAXXZ	; std::_Iterator_base12::_Clrcont

; 1952 : 					*_Pnext = *reinterpret_cast<const_iterator **>((*_Pnext)->_Getpnext());

	mov	rax, QWORD PTR _Pnext$[rbp]
	mov	rcx, QWORD PTR [rax]
	call	?_Getpnext@_Iterator_base12@std@@QEAAPEAPEAU12@XZ ; std::_Iterator_base12::_Getpnext
	mov	rcx, QWORD PTR _Pnext$[rbp]
	mov	rax, QWORD PTR [rax]
	mov	QWORD PTR [rcx], rax
$LN6@Orphan_ran:

; 1953 : 					}
; 1954 : 				}

	jmp	SHORT $LN2@Orphan_ran
$LN4@Orphan_ran:

; 1955 : 			}
; 1956 : 		}

	lea	rcx, QWORD PTR _Lock$[rbp]
	call	QWORD PTR __imp_??1_Lockit@std@@QEAA@XZ
	lea	rcx, QWORD PTR [rbp-32]
	lea	rdx, OFFSET FLAT:?_Orphan_range@?$vector@PEAVbus_device@@V?$allocator@PEAVbus_device@@@std@@@std@@AEBAXPEAPEAVbus_device@@0@Z$rtcFrameData
	call	_RTC_CheckStackVars
	mov	rcx, QWORD PTR __$ArrayPad$[rbp]
	xor	rcx, rbp
	call	__security_check_cookie
	lea	rsp, QWORD PTR [rbp+296]
	pop	rdi
	pop	rbp
	ret	0
?_Orphan_range@?$vector@PEAVbus_device@@V?$allocator@PEAVbus_device@@@std@@@std@@AEBAXPEAPEAVbus_device@@0@Z ENDP ; std::vector<bus_device *,std::allocator<bus_device *> >::_Orphan_range
_TEXT	ENDS
;	COMDAT text$x
text$x	SEGMENT
_Lock$ = 4
_Pnext$ = 40
$T4 = 264
__$ArrayPad$ = 280
this$ = 320
_First$ = 328
_Last$ = 336
?dtor$0@?0??_Orphan_range@?$vector@PEAVbus_device@@V?$allocator@PEAVbus_device@@@std@@@std@@AEBAXPEAPEAVbus_device@@0@Z@4HA PROC ; `std::vector<bus_device *,std::allocator<bus_device *> >::_Orphan_range'::`1'::dtor$0
	mov	QWORD PTR [rsp+8], rcx
	mov	QWORD PTR [rsp+16], rdx
	push	rbp
	push	rdi
	sub	rsp, 40					; 00000028H
	lea	rbp, QWORD PTR [rdx+32]
	lea	rcx, QWORD PTR _Lock$[rbp]
	call	QWORD PTR __imp_??1_Lockit@std@@QEAA@XZ
	add	rsp, 40					; 00000028H
	pop	rdi
	pop	rbp
	ret	0
?dtor$0@?0??_Orphan_range@?$vector@PEAVbus_device@@V?$allocator@PEAVbus_device@@@std@@@std@@AEBAXPEAPEAVbus_device@@0@Z@4HA ENDP ; `std::vector<bus_device *,std::allocator<bus_device *> >::_Orphan_range'::`1'::dtor$0
text$x	ENDS
; Function compile flags: /Odtp /RTCsu /ZI
;	COMDAT text$x
text$x	SEGMENT
_Lock$ = 4
_Pnext$ = 40
$T4 = 264
__$ArrayPad$ = 280
this$ = 320
_First$ = 328
_Last$ = 336
?dtor$0@?0??_Orphan_range@?$vector@PEAVbus_device@@V?$allocator@PEAVbus_device@@@std@@@std@@AEBAXPEAPEAVbus_device@@0@Z@4HA PROC ; `std::vector<bus_device *,std::allocator<bus_device *> >::_Orphan_range'::`1'::dtor$0
	mov	QWORD PTR [rsp+8], rcx
	mov	QWORD PTR [rsp+16], rdx
	push	rbp
	push	rdi
	sub	rsp, 40					; 00000028H
	lea	rbp, QWORD PTR [rdx+32]
	lea	rcx, QWORD PTR _Lock$[rbp]
	call	QWORD PTR __imp_??1_Lockit@std@@QEAA@XZ
	add	rsp, 40					; 00000028H
	pop	rdi
	pop	rbp
	ret	0
?dtor$0@?0??_Orphan_range@?$vector@PEAVbus_device@@V?$allocator@PEAVbus_device@@@std@@@std@@AEBAXPEAPEAVbus_device@@0@Z@4HA ENDP ; `std::vector<bus_device *,std::allocator<bus_device *> >::_Orphan_range'::`1'::dtor$0
text$x	ENDS
; Function compile flags: /Odtp /RTCsu /ZI
; File c:\program files (x86)\microsoft visual studio\2017\community\vc\tools\msvc\14.16.27023\include\vector
;	COMDAT ?_Xlength@?$vector@PEAVbus_device@@V?$allocator@PEAVbus_device@@@std@@@std@@CAXXZ
_TEXT	SEGMENT
?_Xlength@?$vector@PEAVbus_device@@V?$allocator@PEAVbus_device@@@std@@@std@@CAXXZ PROC ; std::vector<bus_device *,std::allocator<bus_device *> >::_Xlength, COMDAT

; 1925 : 		{	// report a length_error

$LN3:
	push	rbp
	push	rdi
	sub	rsp, 232				; 000000e8H
	lea	rbp, QWORD PTR [rsp+32]
	mov	rdi, rsp
	mov	ecx, 58					; 0000003aH
	mov	eax, -858993460				; ccccccccH
	rep stosd
	lea	rcx, OFFSET FLAT:__FF7D7337_vector
	call	__CheckForDebuggerJustMyCode

; 1926 : 		_Xlength_error("vector<T> too long");

	lea	rcx, OFFSET FLAT:??_C@_0BD@OLBABOEK@vector?$DMT?$DO?5too?5long@
	call	?_Xlength_error@std@@YAXPEBD@Z		; std::_Xlength_error
$LN2@Xlength:

; 1927 : 		}

	lea	rsp, QWORD PTR [rbp+200]
	pop	rdi
	pop	rbp
	ret	0
?_Xlength@?$vector@PEAVbus_device@@V?$allocator@PEAVbus_device@@@std@@@std@@CAXXZ ENDP ; std::vector<bus_device *,std::allocator<bus_device *> >::_Xlength
_TEXT	ENDS
; Function compile flags: /Odtp /RTCsu /ZI
; File c:\program files (x86)\microsoft visual studio\2017\community\vc\tools\msvc\14.16.27023\include\vector
;	COMDAT ?_Tidy@?$vector@PEAVbus_device@@V?$allocator@PEAVbus_device@@@std@@@std@@AEAAXXZ
_TEXT	SEGMENT
tv131 = 192
tv82 = 192
tv138 = 200
this$ = 240
?_Tidy@?$vector@PEAVbus_device@@V?$allocator@PEAVbus_device@@@std@@@std@@AEAAXXZ PROC ; std::vector<bus_device *,std::allocator<bus_device *> >::_Tidy, COMDAT

; 1910 : 		{	// free all storage

$LN4:
	mov	QWORD PTR [rsp+8], rcx
	push	rbp
	push	rdi
	sub	rsp, 248				; 000000f8H
	lea	rbp, QWORD PTR [rsp+32]
	mov	rdi, rsp
	mov	ecx, 62					; 0000003eH
	mov	eax, -858993460				; ccccccccH
	rep stosd
	mov	rcx, QWORD PTR [rsp+280]
	lea	rcx, OFFSET FLAT:__FF7D7337_vector
	call	__CheckForDebuggerJustMyCode

; 1911 : 		this->_Orphan_all();

	mov	rcx, QWORD PTR this$[rbp]
	call	?_Orphan_all@?$_Vector_alloc@U?$_Vec_base_types@PEAVbus_device@@V?$allocator@PEAVbus_device@@@std@@@std@@@std@@QEAAXXZ ; std::_Vector_alloc<std::_Vec_base_types<bus_device *,std::allocator<bus_device *> > >::_Orphan_all

; 1912 : 
; 1913 : 		if (this->_Myfirst() != pointer())

	mov	rcx, QWORD PTR this$[rbp]
	call	?_Myfirst@?$_Vector_alloc@U?$_Vec_base_types@PEAVbus_device@@V?$allocator@PEAVbus_device@@@std@@@std@@@std@@QEAAAEAPEAPEAVbus_device@@XZ ; std::_Vector_alloc<std::_Vec_base_types<bus_device *,std::allocator<bus_device *> > >::_Myfirst
	cmp	QWORD PTR [rax], 0
	je	$LN2@Tidy

; 1914 : 			{	// destroy and deallocate old array
; 1915 : 			_Destroy(this->_Myfirst(), this->_Mylast());

	mov	rcx, QWORD PTR this$[rbp]
	call	?_Mylast@?$_Vector_alloc@U?$_Vec_base_types@PEAVbus_device@@V?$allocator@PEAVbus_device@@@std@@@std@@@std@@QEAAAEAPEAPEAVbus_device@@XZ ; std::_Vector_alloc<std::_Vec_base_types<bus_device *,std::allocator<bus_device *> > >::_Mylast
	mov	QWORD PTR tv82[rbp], rax
	mov	rcx, QWORD PTR this$[rbp]
	call	?_Myfirst@?$_Vector_alloc@U?$_Vec_base_types@PEAVbus_device@@V?$allocator@PEAVbus_device@@@std@@@std@@@std@@QEAAAEAPEAPEAVbus_device@@XZ ; std::_Vector_alloc<std::_Vec_base_types<bus_device *,std::allocator<bus_device *> > >::_Myfirst
	mov	rcx, QWORD PTR tv82[rbp]
	mov	r8, QWORD PTR [rcx]
	mov	rdx, QWORD PTR [rax]
	mov	rcx, QWORD PTR this$[rbp]
	call	?_Destroy@?$vector@PEAVbus_device@@V?$allocator@PEAVbus_device@@@std@@@std@@AEAAXPEAPEAVbus_device@@0@Z ; std::vector<bus_device *,std::allocator<bus_device *> >::_Destroy

; 1916 : 			this->_Getal().deallocate(this->_Myfirst(), capacity());

	mov	rcx, QWORD PTR this$[rbp]
	call	?capacity@?$vector@PEAVbus_device@@V?$allocator@PEAVbus_device@@@std@@@std@@QEBA_KXZ ; std::vector<bus_device *,std::allocator<bus_device *> >::capacity
	mov	QWORD PTR tv131[rbp], rax
	mov	rcx, QWORD PTR this$[rbp]
	call	?_Myfirst@?$_Vector_alloc@U?$_Vec_base_types@PEAVbus_device@@V?$allocator@PEAVbus_device@@@std@@@std@@@std@@QEAAAEAPEAPEAVbus_device@@XZ ; std::_Vector_alloc<std::_Vec_base_types<bus_device *,std::allocator<bus_device *> > >::_Myfirst
	mov	QWORD PTR tv138[rbp], rax
	mov	rcx, QWORD PTR this$[rbp]
	call	?_Getal@?$_Vector_alloc@U?$_Vec_base_types@PEAVbus_device@@V?$allocator@PEAVbus_device@@@std@@@std@@@std@@QEAAAEAV?$allocator@PEAVbus_device@@@2@XZ ; std::_Vector_alloc<std::_Vec_base_types<bus_device *,std::allocator<bus_device *> > >::_Getal
	mov	rcx, QWORD PTR tv131[rbp]
	mov	r8, rcx
	mov	rcx, QWORD PTR tv138[rbp]
	mov	rdx, QWORD PTR [rcx]
	mov	rcx, rax
	call	?deallocate@?$allocator@PEAVbus_device@@@std@@QEAAXQEAPEAVbus_device@@_K@Z ; std::allocator<bus_device *>::deallocate

; 1917 : 
; 1918 : 			this->_Myfirst() = pointer();

	mov	rcx, QWORD PTR this$[rbp]
	call	?_Myfirst@?$_Vector_alloc@U?$_Vec_base_types@PEAVbus_device@@V?$allocator@PEAVbus_device@@@std@@@std@@@std@@QEAAAEAPEAPEAVbus_device@@XZ ; std::_Vector_alloc<std::_Vec_base_types<bus_device *,std::allocator<bus_device *> > >::_Myfirst
	mov	QWORD PTR [rax], 0

; 1919 : 			this->_Mylast() = pointer();

	mov	rcx, QWORD PTR this$[rbp]
	call	?_Mylast@?$_Vector_alloc@U?$_Vec_base_types@PEAVbus_device@@V?$allocator@PEAVbus_device@@@std@@@std@@@std@@QEAAAEAPEAPEAVbus_device@@XZ ; std::_Vector_alloc<std::_Vec_base_types<bus_device *,std::allocator<bus_device *> > >::_Mylast
	mov	QWORD PTR [rax], 0

; 1920 : 			this->_Myend() = pointer();

	mov	rcx, QWORD PTR this$[rbp]
	call	?_Myend@?$_Vector_alloc@U?$_Vec_base_types@PEAVbus_device@@V?$allocator@PEAVbus_device@@@std@@@std@@@std@@QEAAAEAPEAPEAVbus_device@@XZ ; std::_Vector_alloc<std::_Vec_base_types<bus_device *,std::allocator<bus_device *> > >::_Myend
	mov	QWORD PTR [rax], 0
$LN2@Tidy:

; 1921 : 			}
; 1922 : 		}

	lea	rsp, QWORD PTR [rbp+216]
	pop	rdi
	pop	rbp
	ret	0
?_Tidy@?$vector@PEAVbus_device@@V?$allocator@PEAVbus_device@@@std@@@std@@AEAAXXZ ENDP ; std::vector<bus_device *,std::allocator<bus_device *> >::_Tidy
_TEXT	ENDS
; Function compile flags: /Odtp /RTCsu /ZI
; File c:\program files (x86)\microsoft visual studio\2017\community\vc\tools\msvc\14.16.27023\include\vector
;	COMDAT ?_Change_array@?$vector@PEAVbus_device@@V?$allocator@PEAVbus_device@@@std@@@std@@AEAAXQEAPEAVbus_device@@_K1@Z
_TEXT	SEGMENT
tv161 = 192
tv153 = 192
tv131 = 192
tv82 = 192
tv138 = 200
this$ = 240
_Newvec$ = 248
_Newsize$ = 256
_Newcapacity$ = 264
?_Change_array@?$vector@PEAVbus_device@@V?$allocator@PEAVbus_device@@@std@@@std@@AEAAXQEAPEAVbus_device@@_K1@Z PROC ; std::vector<bus_device *,std::allocator<bus_device *> >::_Change_array, COMDAT

; 1895 : 		{	// orphan all iterators, discard old array, acquire new array

$LN4:
	mov	QWORD PTR [rsp+32], r9
	mov	QWORD PTR [rsp+24], r8
	mov	QWORD PTR [rsp+16], rdx
	mov	QWORD PTR [rsp+8], rcx
	push	rbp
	push	rdi
	sub	rsp, 248				; 000000f8H
	lea	rbp, QWORD PTR [rsp+32]
	mov	rdi, rsp
	mov	ecx, 62					; 0000003eH
	mov	eax, -858993460				; ccccccccH
	rep stosd
	mov	rcx, QWORD PTR [rsp+280]
	lea	rcx, OFFSET FLAT:__FF7D7337_vector
	call	__CheckForDebuggerJustMyCode

; 1896 : 		this->_Orphan_all();

	mov	rcx, QWORD PTR this$[rbp]
	call	?_Orphan_all@?$_Vector_alloc@U?$_Vec_base_types@PEAVbus_device@@V?$allocator@PEAVbus_device@@@std@@@std@@@std@@QEAAXXZ ; std::_Vector_alloc<std::_Vec_base_types<bus_device *,std::allocator<bus_device *> > >::_Orphan_all

; 1897 : 
; 1898 : 		if (this->_Myfirst() != pointer())

	mov	rcx, QWORD PTR this$[rbp]
	call	?_Myfirst@?$_Vector_alloc@U?$_Vec_base_types@PEAVbus_device@@V?$allocator@PEAVbus_device@@@std@@@std@@@std@@QEAAAEAPEAPEAVbus_device@@XZ ; std::_Vector_alloc<std::_Vec_base_types<bus_device *,std::allocator<bus_device *> > >::_Myfirst
	cmp	QWORD PTR [rax], 0
	je	$LN2@Change_arr

; 1899 : 			{	// destroy and deallocate old array
; 1900 : 			_Destroy(this->_Myfirst(), this->_Mylast());

	mov	rcx, QWORD PTR this$[rbp]
	call	?_Mylast@?$_Vector_alloc@U?$_Vec_base_types@PEAVbus_device@@V?$allocator@PEAVbus_device@@@std@@@std@@@std@@QEAAAEAPEAPEAVbus_device@@XZ ; std::_Vector_alloc<std::_Vec_base_types<bus_device *,std::allocator<bus_device *> > >::_Mylast
	mov	QWORD PTR tv82[rbp], rax
	mov	rcx, QWORD PTR this$[rbp]
	call	?_Myfirst@?$_Vector_alloc@U?$_Vec_base_types@PEAVbus_device@@V?$allocator@PEAVbus_device@@@std@@@std@@@std@@QEAAAEAPEAPEAVbus_device@@XZ ; std::_Vector_alloc<std::_Vec_base_types<bus_device *,std::allocator<bus_device *> > >::_Myfirst
	mov	rcx, QWORD PTR tv82[rbp]
	mov	r8, QWORD PTR [rcx]
	mov	rdx, QWORD PTR [rax]
	mov	rcx, QWORD PTR this$[rbp]
	call	?_Destroy@?$vector@PEAVbus_device@@V?$allocator@PEAVbus_device@@@std@@@std@@AEAAXPEAPEAVbus_device@@0@Z ; std::vector<bus_device *,std::allocator<bus_device *> >::_Destroy

; 1901 : 			this->_Getal().deallocate(this->_Myfirst(), capacity());

	mov	rcx, QWORD PTR this$[rbp]
	call	?capacity@?$vector@PEAVbus_device@@V?$allocator@PEAVbus_device@@@std@@@std@@QEBA_KXZ ; std::vector<bus_device *,std::allocator<bus_device *> >::capacity
	mov	QWORD PTR tv131[rbp], rax
	mov	rcx, QWORD PTR this$[rbp]
	call	?_Myfirst@?$_Vector_alloc@U?$_Vec_base_types@PEAVbus_device@@V?$allocator@PEAVbus_device@@@std@@@std@@@std@@QEAAAEAPEAPEAVbus_device@@XZ ; std::_Vector_alloc<std::_Vec_base_types<bus_device *,std::allocator<bus_device *> > >::_Myfirst
	mov	QWORD PTR tv138[rbp], rax
	mov	rcx, QWORD PTR this$[rbp]
	call	?_Getal@?$_Vector_alloc@U?$_Vec_base_types@PEAVbus_device@@V?$allocator@PEAVbus_device@@@std@@@std@@@std@@QEAAAEAV?$allocator@PEAVbus_device@@@2@XZ ; std::_Vector_alloc<std::_Vec_base_types<bus_device *,std::allocator<bus_device *> > >::_Getal
	mov	rcx, QWORD PTR tv131[rbp]
	mov	r8, rcx
	mov	rcx, QWORD PTR tv138[rbp]
	mov	rdx, QWORD PTR [rcx]
	mov	rcx, rax
	call	?deallocate@?$allocator@PEAVbus_device@@@std@@QEAAXQEAPEAVbus_device@@_K@Z ; std::allocator<bus_device *>::deallocate
$LN2@Change_arr:

; 1902 : 			}
; 1903 : 
; 1904 : 		this->_Myfirst() = _Newvec;

	mov	rcx, QWORD PTR this$[rbp]
	call	?_Myfirst@?$_Vector_alloc@U?$_Vec_base_types@PEAVbus_device@@V?$allocator@PEAVbus_device@@@std@@@std@@@std@@QEAAAEAPEAPEAVbus_device@@XZ ; std::_Vector_alloc<std::_Vec_base_types<bus_device *,std::allocator<bus_device *> > >::_Myfirst
	mov	rcx, QWORD PTR _Newvec$[rbp]
	mov	QWORD PTR [rax], rcx

; 1905 : 		this->_Mylast() = _Newvec + _Newsize;

	mov	rax, QWORD PTR _Newvec$[rbp]
	mov	rcx, QWORD PTR _Newsize$[rbp]
	lea	rax, QWORD PTR [rax+rcx*8]
	mov	QWORD PTR tv153[rbp], rax
	mov	rcx, QWORD PTR this$[rbp]
	call	?_Mylast@?$_Vector_alloc@U?$_Vec_base_types@PEAVbus_device@@V?$allocator@PEAVbus_device@@@std@@@std@@@std@@QEAAAEAPEAPEAVbus_device@@XZ ; std::_Vector_alloc<std::_Vec_base_types<bus_device *,std::allocator<bus_device *> > >::_Mylast
	mov	rcx, QWORD PTR tv153[rbp]
	mov	QWORD PTR [rax], rcx

; 1906 : 		this->_Myend() = _Newvec + _Newcapacity;

	mov	rax, QWORD PTR _Newvec$[rbp]
	mov	rcx, QWORD PTR _Newcapacity$[rbp]
	lea	rax, QWORD PTR [rax+rcx*8]
	mov	QWORD PTR tv161[rbp], rax
	mov	rcx, QWORD PTR this$[rbp]
	call	?_Myend@?$_Vector_alloc@U?$_Vec_base_types@PEAVbus_device@@V?$allocator@PEAVbus_device@@@std@@@std@@@std@@QEAAAEAPEAPEAVbus_device@@XZ ; std::_Vector_alloc<std::_Vec_base_types<bus_device *,std::allocator<bus_device *> > >::_Myend
	mov	rcx, QWORD PTR tv161[rbp]
	mov	QWORD PTR [rax], rcx

; 1907 : 		}

	lea	rsp, QWORD PTR [rbp+216]
	pop	rdi
	pop	rbp
	ret	0
?_Change_array@?$vector@PEAVbus_device@@V?$allocator@PEAVbus_device@@@std@@@std@@AEAAXQEAPEAVbus_device@@_K1@Z ENDP ; std::vector<bus_device *,std::allocator<bus_device *> >::_Change_array
_TEXT	ENDS
; Function compile flags: /Odtp /RTCsu /ZI
; File c:\program files (x86)\microsoft visual studio\2017\community\vc\tools\msvc\14.16.27023\include\vector
;	COMDAT ?_Calculate_growth@?$vector@PEAVbus_device@@V?$allocator@PEAVbus_device@@@std@@@std@@AEBA_K_K@Z
_TEXT	SEGMENT
_Oldcapacity$ = 8
_Geometric$ = 40
tv67 = 248
this$ = 288
_Newsize$ = 296
?_Calculate_growth@?$vector@PEAVbus_device@@V?$allocator@PEAVbus_device@@@std@@@std@@AEBA_K_K@Z PROC ; std::vector<bus_device *,std::allocator<bus_device *> >::_Calculate_growth, COMDAT

; 1853 : 		{	// given _Oldcapacity and _Newsize, calculate geometric growth

$LN5:
	mov	QWORD PTR [rsp+16], rdx
	mov	QWORD PTR [rsp+8], rcx
	push	rbp
	push	rdi
	sub	rsp, 296				; 00000128H
	lea	rbp, QWORD PTR [rsp+32]
	mov	rdi, rsp
	mov	ecx, 74					; 0000004aH
	mov	eax, -858993460				; ccccccccH
	rep stosd
	mov	rcx, QWORD PTR [rsp+328]
	lea	rcx, OFFSET FLAT:__FF7D7337_vector
	call	__CheckForDebuggerJustMyCode

; 1854 : 		const size_type _Oldcapacity = capacity();

	mov	rcx, QWORD PTR this$[rbp]
	call	?capacity@?$vector@PEAVbus_device@@V?$allocator@PEAVbus_device@@@std@@@std@@QEBA_KXZ ; std::vector<bus_device *,std::allocator<bus_device *> >::capacity
	mov	QWORD PTR _Oldcapacity$[rbp], rax

; 1855 : 
; 1856 : 		if (_Oldcapacity > max_size() - _Oldcapacity / 2)

	mov	rcx, QWORD PTR this$[rbp]
	call	?max_size@?$vector@PEAVbus_device@@V?$allocator@PEAVbus_device@@@std@@@std@@QEBA_KXZ ; std::vector<bus_device *,std::allocator<bus_device *> >::max_size
	mov	QWORD PTR tv67[rbp], rax
	xor	edx, edx
	mov	rax, QWORD PTR _Oldcapacity$[rbp]
	mov	ecx, 2
	div	rcx
	mov	rcx, QWORD PTR tv67[rbp]
	sub	rcx, rax
	mov	rax, rcx
	cmp	QWORD PTR _Oldcapacity$[rbp], rax
	jbe	SHORT $LN2@Calculate_

; 1857 : 			{
; 1858 : 			return (_Newsize);	// geometric growth would overflow

	mov	rax, QWORD PTR _Newsize$[rbp]
	jmp	SHORT $LN1@Calculate_
$LN2@Calculate_:

; 1859 : 			}
; 1860 : 
; 1861 : 		const size_type _Geometric = _Oldcapacity + _Oldcapacity / 2;

	xor	edx, edx
	mov	rax, QWORD PTR _Oldcapacity$[rbp]
	mov	ecx, 2
	div	rcx
	mov	rcx, QWORD PTR _Oldcapacity$[rbp]
	add	rcx, rax
	mov	rax, rcx
	mov	QWORD PTR _Geometric$[rbp], rax

; 1862 : 
; 1863 : 		if (_Geometric < _Newsize)

	mov	rax, QWORD PTR _Newsize$[rbp]
	cmp	QWORD PTR _Geometric$[rbp], rax
	jae	SHORT $LN3@Calculate_

; 1864 : 			{
; 1865 : 			return (_Newsize);	// geometric growth would be insufficient

	mov	rax, QWORD PTR _Newsize$[rbp]
	jmp	SHORT $LN1@Calculate_
$LN3@Calculate_:

; 1866 : 			}
; 1867 : 
; 1868 : 		return (_Geometric);	// geometric growth is sufficient

	mov	rax, QWORD PTR _Geometric$[rbp]
$LN1@Calculate_:

; 1869 : 		}

	lea	rsp, QWORD PTR [rbp+264]
	pop	rdi
	pop	rbp
	ret	0
?_Calculate_growth@?$vector@PEAVbus_device@@V?$allocator@PEAVbus_device@@@std@@@std@@AEBA_K_K@Z ENDP ; std::vector<bus_device *,std::allocator<bus_device *> >::_Calculate_growth
_TEXT	ENDS
; Function compile flags: /Odtp /RTCsu /ZI
; File c:\program files (x86)\microsoft visual studio\2017\community\vc\tools\msvc\14.16.27023\include\vector
;	COMDAT ?_Destroy@?$vector@PEAVbus_device@@V?$allocator@PEAVbus_device@@@std@@@std@@AEAAXPEAPEAVbus_device@@0@Z
_TEXT	SEGMENT
this$ = 224
_First$ = 232
_Last$ = 240
?_Destroy@?$vector@PEAVbus_device@@V?$allocator@PEAVbus_device@@@std@@@std@@AEAAXPEAPEAVbus_device@@0@Z PROC ; std::vector<bus_device *,std::allocator<bus_device *> >::_Destroy, COMDAT

; 1848 : 		{	// destroy [_First, _Last) using allocator

$LN3:
	mov	QWORD PTR [rsp+24], r8
	mov	QWORD PTR [rsp+16], rdx
	mov	QWORD PTR [rsp+8], rcx
	push	rbp
	push	rdi
	sub	rsp, 232				; 000000e8H
	lea	rbp, QWORD PTR [rsp+32]
	mov	rdi, rsp
	mov	ecx, 58					; 0000003aH
	mov	eax, -858993460				; ccccccccH
	rep stosd
	mov	rcx, QWORD PTR [rsp+264]
	lea	rcx, OFFSET FLAT:__FF7D7337_vector
	call	__CheckForDebuggerJustMyCode

; 1849 : 		_Destroy_range(_First, _Last, this->_Getal());

	mov	rcx, QWORD PTR this$[rbp]
	call	?_Getal@?$_Vector_alloc@U?$_Vec_base_types@PEAVbus_device@@V?$allocator@PEAVbus_device@@@std@@@std@@@std@@QEAAAEAV?$allocator@PEAVbus_device@@@2@XZ ; std::_Vector_alloc<std::_Vec_base_types<bus_device *,std::allocator<bus_device *> > >::_Getal
	mov	r8, rax
	mov	rdx, QWORD PTR _Last$[rbp]
	mov	rcx, QWORD PTR _First$[rbp]
	call	??$_Destroy_range@V?$allocator@PEAVbus_device@@@std@@@std@@YAXPEAPEAVbus_device@@0AEAV?$allocator@PEAVbus_device@@@0@@Z ; std::_Destroy_range<std::allocator<bus_device *> >

; 1850 : 		}

	lea	rsp, QWORD PTR [rbp+200]
	pop	rdi
	pop	rbp
	ret	0
?_Destroy@?$vector@PEAVbus_device@@V?$allocator@PEAVbus_device@@@std@@@std@@AEAAXPEAPEAVbus_device@@0@Z ENDP ; std::vector<bus_device *,std::allocator<bus_device *> >::_Destroy
_TEXT	ENDS
; Function compile flags: /Odtp /RTCsu /ZI
; File c:\program files (x86)\microsoft visual studio\2017\community\vc\tools\msvc\14.16.27023\include\vector
;	COMDAT ?_Umove_if_noexcept@?$vector@PEAVbus_device@@V?$allocator@PEAVbus_device@@@std@@@std@@AEAAXPEAPEAVbus_device@@00@Z
_TEXT	SEGMENT
$T1 = 196
this$ = 256
_First$ = 264
_Last$ = 272
_Dest$ = 280
?_Umove_if_noexcept@?$vector@PEAVbus_device@@V?$allocator@PEAVbus_device@@@std@@@std@@AEAAXPEAPEAVbus_device@@00@Z PROC ; std::vector<bus_device *,std::allocator<bus_device *> >::_Umove_if_noexcept, COMDAT

; 1842 : 		{	// move_if_noexcept [_First, _Last) to raw _Dest, using allocator

$LN3:
	mov	QWORD PTR [rsp+32], r9
	mov	QWORD PTR [rsp+24], r8
	mov	QWORD PTR [rsp+16], rdx
	mov	QWORD PTR [rsp+8], rcx
	push	rbp
	push	rdi
	sub	rsp, 280				; 00000118H
	lea	rbp, QWORD PTR [rsp+48]
	mov	rdi, rsp
	mov	ecx, 70					; 00000046H
	mov	eax, -858993460				; ccccccccH
	rep stosd
	mov	rcx, QWORD PTR [rsp+312]
	lea	rcx, OFFSET FLAT:__FF7D7337_vector
	call	__CheckForDebuggerJustMyCode

; 1843 : 		_Umove_if_noexcept1(_First, _Last, _Dest,

	lea	rax, QWORD PTR $T1[rbp]
	mov	rdi, rax
	xor	eax, eax
	mov	ecx, 1
	rep stosb
	movzx	eax, BYTE PTR $T1[rbp]
	mov	BYTE PTR [rsp+32], al
	mov	r9, QWORD PTR _Dest$[rbp]
	mov	r8, QWORD PTR _Last$[rbp]
	mov	rdx, QWORD PTR _First$[rbp]
	mov	rcx, QWORD PTR this$[rbp]
	call	?_Umove_if_noexcept1@?$vector@PEAVbus_device@@V?$allocator@PEAVbus_device@@@std@@@std@@AEAAXPEAPEAVbus_device@@00U?$integral_constant@_N$00@2@@Z ; std::vector<bus_device *,std::allocator<bus_device *> >::_Umove_if_noexcept1

; 1844 : 			bool_constant<disjunction_v<is_nothrow_move_constructible<_Ty>, negation<is_copy_constructible<_Ty>>>>{});
; 1845 : 		}

	lea	rsp, QWORD PTR [rbp+232]
	pop	rdi
	pop	rbp
	ret	0
?_Umove_if_noexcept@?$vector@PEAVbus_device@@V?$allocator@PEAVbus_device@@@std@@@std@@AEAAXPEAPEAVbus_device@@00@Z ENDP ; std::vector<bus_device *,std::allocator<bus_device *> >::_Umove_if_noexcept
_TEXT	ENDS
; Function compile flags: /Odtp /RTCsu /ZI
; File c:\program files (x86)\microsoft visual studio\2017\community\vc\tools\msvc\14.16.27023\include\vector
;	COMDAT ?_Umove_if_noexcept1@?$vector@PEAVbus_device@@V?$allocator@PEAVbus_device@@@std@@@std@@AEAAXPEAPEAVbus_device@@00U?$integral_constant@_N$00@2@@Z
_TEXT	SEGMENT
this$ = 224
_First$ = 232
_Last$ = 240
_Dest$ = 248
__formal$ = 256
?_Umove_if_noexcept1@?$vector@PEAVbus_device@@V?$allocator@PEAVbus_device@@@std@@@std@@AEAAXPEAPEAVbus_device@@00U?$integral_constant@_N$00@2@@Z PROC ; std::vector<bus_device *,std::allocator<bus_device *> >::_Umove_if_noexcept1, COMDAT

; 1832 : 		{	// move [_First, _Last) to raw _Dest, using allocator

$LN3:
	mov	QWORD PTR [rsp+32], r9
	mov	QWORD PTR [rsp+24], r8
	mov	QWORD PTR [rsp+16], rdx
	mov	QWORD PTR [rsp+8], rcx
	push	rbp
	push	rdi
	sub	rsp, 232				; 000000e8H
	lea	rbp, QWORD PTR [rsp+32]
	mov	rdi, rsp
	mov	ecx, 58					; 0000003aH
	mov	eax, -858993460				; ccccccccH
	rep stosd
	mov	rcx, QWORD PTR [rsp+264]
	lea	rcx, OFFSET FLAT:__FF7D7337_vector
	call	__CheckForDebuggerJustMyCode

; 1833 : 		_Uninitialized_move(_First, _Last, _Dest, this->_Getal());

	mov	rcx, QWORD PTR this$[rbp]
	call	?_Getal@?$_Vector_alloc@U?$_Vec_base_types@PEAVbus_device@@V?$allocator@PEAVbus_device@@@std@@@std@@@std@@QEAAAEAV?$allocator@PEAVbus_device@@@2@XZ ; std::_Vector_alloc<std::_Vec_base_types<bus_device *,std::allocator<bus_device *> > >::_Getal
	mov	r9, rax
	mov	r8, QWORD PTR _Dest$[rbp]
	mov	rdx, QWORD PTR _Last$[rbp]
	mov	rcx, QWORD PTR _First$[rbp]
	call	??$_Uninitialized_move@PEAPEAVbus_device@@PEAPEAV1@V?$allocator@PEAVbus_device@@@std@@@std@@YAPEAPEAVbus_device@@QEAPEAV1@0PEAPEAV1@AEAV?$allocator@PEAVbus_device@@@0@@Z ; std::_Uninitialized_move<bus_device * *,bus_device * *,std::allocator<bus_device *> >

; 1834 : 		}

	lea	rsp, QWORD PTR [rbp+200]
	pop	rdi
	pop	rbp
	ret	0
?_Umove_if_noexcept1@?$vector@PEAVbus_device@@V?$allocator@PEAVbus_device@@@std@@@std@@AEAAXPEAPEAVbus_device@@00U?$integral_constant@_N$00@2@@Z ENDP ; std::vector<bus_device *,std::allocator<bus_device *> >::_Umove_if_noexcept1
_TEXT	ENDS
; Function compile flags: /Odtp /RTCsu /ZI
; File c:\program files (x86)\microsoft visual studio\2017\community\vc\tools\msvc\14.16.27023\include\vector
;	COMDAT ?_Umove@?$vector@PEAVbus_device@@V?$allocator@PEAVbus_device@@@std@@@std@@AEAAPEAPEAVbus_device@@PEAPEAV3@00@Z
_TEXT	SEGMENT
this$ = 224
_First$ = 232
_Last$ = 240
_Dest$ = 248
?_Umove@?$vector@PEAVbus_device@@V?$allocator@PEAVbus_device@@@std@@@std@@AEAAPEAPEAVbus_device@@PEAPEAV3@00@Z PROC ; std::vector<bus_device *,std::allocator<bus_device *> >::_Umove, COMDAT

; 1827 : 		{	// move [_First, _Last) to raw _Dest, using allocator

$LN3:
	mov	QWORD PTR [rsp+32], r9
	mov	QWORD PTR [rsp+24], r8
	mov	QWORD PTR [rsp+16], rdx
	mov	QWORD PTR [rsp+8], rcx
	push	rbp
	push	rdi
	sub	rsp, 232				; 000000e8H
	lea	rbp, QWORD PTR [rsp+32]
	mov	rdi, rsp
	mov	ecx, 58					; 0000003aH
	mov	eax, -858993460				; ccccccccH
	rep stosd
	mov	rcx, QWORD PTR [rsp+264]
	lea	rcx, OFFSET FLAT:__FF7D7337_vector
	call	__CheckForDebuggerJustMyCode

; 1828 : 		return (_Uninitialized_move(_First, _Last, _Dest, this->_Getal()));

	mov	rcx, QWORD PTR this$[rbp]
	call	?_Getal@?$_Vector_alloc@U?$_Vec_base_types@PEAVbus_device@@V?$allocator@PEAVbus_device@@@std@@@std@@@std@@QEAAAEAV?$allocator@PEAVbus_device@@@2@XZ ; std::_Vector_alloc<std::_Vec_base_types<bus_device *,std::allocator<bus_device *> > >::_Getal
	mov	r9, rax
	mov	r8, QWORD PTR _Dest$[rbp]
	mov	rdx, QWORD PTR _Last$[rbp]
	mov	rcx, QWORD PTR _First$[rbp]
	call	??$_Uninitialized_move@PEAPEAVbus_device@@PEAPEAV1@V?$allocator@PEAVbus_device@@@std@@@std@@YAPEAPEAVbus_device@@QEAPEAV1@0PEAPEAV1@AEAV?$allocator@PEAVbus_device@@@0@@Z ; std::_Uninitialized_move<bus_device * *,bus_device * *,std::allocator<bus_device *> >

; 1829 : 		}

	lea	rsp, QWORD PTR [rbp+200]
	pop	rdi
	pop	rbp
	ret	0
?_Umove@?$vector@PEAVbus_device@@V?$allocator@PEAVbus_device@@@std@@@std@@AEAAPEAPEAVbus_device@@PEAPEAV3@00@Z ENDP ; std::vector<bus_device *,std::allocator<bus_device *> >::_Umove
_TEXT	ENDS
; Function compile flags: /Odtp /RTCsu /ZI
; File c:\program files (x86)\microsoft visual studio\2017\community\vc\tools\msvc\14.16.27023\include\vector
;	COMDAT ??A?$vector@PEAVbus_device@@V?$allocator@PEAVbus_device@@@std@@@std@@QEAAAEAPEAVbus_device@@_K@Z
_TEXT	SEGMENT
this$ = 224
_Pos$ = 232
??A?$vector@PEAVbus_device@@V?$allocator@PEAVbus_device@@@std@@@std@@QEAAAEAPEAVbus_device@@_K@Z PROC ; std::vector<bus_device *,std::allocator<bus_device *> >::operator[], COMDAT

; 1731 : 		{	// subscript mutable sequence

$LN12:
	mov	QWORD PTR [rsp+16], rdx
	mov	QWORD PTR [rsp+8], rcx
	push	rbp
	push	rdi
	sub	rsp, 248				; 000000f8H
	lea	rbp, QWORD PTR [rsp+48]
	mov	rdi, rsp
	mov	ecx, 62					; 0000003eH
	mov	eax, -858993460				; ccccccccH
	rep stosd
	mov	rcx, QWORD PTR [rsp+280]
	lea	rcx, OFFSET FLAT:__FF7D7337_vector
	call	__CheckForDebuggerJustMyCode
$LN4@operator:

; 1732 :  #if _ITERATOR_DEBUG_LEVEL != 0
; 1733 : 		_STL_VERIFY(_Pos < size(), "vector subscript out of range");

	mov	rcx, QWORD PTR this$[rbp]
	call	?size@?$vector@PEAVbus_device@@V?$allocator@PEAVbus_device@@@std@@@std@@QEBA_KXZ ; std::vector<bus_device *,std::allocator<bus_device *> >::size
	cmp	QWORD PTR _Pos$[rbp], rax
	jae	SHORT $LN8@operator
	jmp	SHORT $LN9@operator
$LN8@operator:
$LN7@operator:
	lea	rax, OFFSET FLAT:??_C@_0BO@PFKOHNJC@vector?5subscript?5out?5of?5range@
	mov	QWORD PTR [rsp+40], rax
	lea	rax, OFFSET FLAT:??_C@_02DKCKIIND@?$CFs@
	mov	QWORD PTR [rsp+32], rax
	xor	r9d, r9d
	mov	r8d, 1733				; 000006c5H
	lea	rdx, OFFSET FLAT:??_C@_0GH@FKAHJGEE@c?3?2program?5files?5?$CIx86?$CJ?2microsof@
	mov	ecx, 2
	call	QWORD PTR __imp__CrtDbgReport
	cmp	eax, 1
	jne	SHORT $LN11@operator
	int	3
	xor	eax, eax
$LN11@operator:
	mov	QWORD PTR [rsp+32], 0
	mov	r9d, 1733				; 000006c5H
	lea	r8, OFFSET FLAT:??_C@_1MO@OJBMIJHH@?$AAc?$AA?3?$AA?2?$AAp?$AAr?$AAo?$AAg?$AAr?$AAa?$AAm?$AA?5?$AAf?$AAi?$AAl?$AAe@
	lea	rdx, OFFSET FLAT:??_C@_1KO@ONLFOBNG@?$AAs?$AAt?$AAd?$AA?3?$AA?3?$AAv?$AAe?$AAc?$AAt?$AAo?$AAr?$AA?$DM?$AAc?$AAl?$AAa@
	lea	rcx, OFFSET FLAT:??_C@_1EA@LEKOKFNB@?$AA?$CC?$AAv?$AAe?$AAc?$AAt?$AAo?$AAr?$AA?5?$AAs?$AAu?$AAb?$AAs?$AAc?$AAr?$AAi@
	call	QWORD PTR __imp__invalid_parameter
	xor	eax, eax
	test	eax, eax
	jne	SHORT $LN7@operator
$LN9@operator:
	xor	eax, eax
	test	eax, eax
	jne	$LN4@operator

; 1734 :  #endif /* _ITERATOR_DEBUG_LEVEL != 0 */
; 1735 : 
; 1736 : 		return (this->_Myfirst()[_Pos]);

	mov	rcx, QWORD PTR this$[rbp]
	call	?_Myfirst@?$_Vector_alloc@U?$_Vec_base_types@PEAVbus_device@@V?$allocator@PEAVbus_device@@@std@@@std@@@std@@QEAAAEAPEAPEAVbus_device@@XZ ; std::_Vector_alloc<std::_Vec_base_types<bus_device *,std::allocator<bus_device *> > >::_Myfirst
	mov	rax, QWORD PTR [rax]
	mov	rcx, QWORD PTR _Pos$[rbp]
	lea	rax, QWORD PTR [rax+rcx*8]

; 1737 : 		}

	lea	rsp, QWORD PTR [rbp+200]
	pop	rdi
	pop	rbp
	ret	0
??A?$vector@PEAVbus_device@@V?$allocator@PEAVbus_device@@@std@@@std@@QEAAAEAPEAVbus_device@@_K@Z ENDP ; std::vector<bus_device *,std::allocator<bus_device *> >::operator[]
_TEXT	ENDS
; Function compile flags: /Odtp /RTCsu /ZI
; File c:\program files (x86)\microsoft visual studio\2017\community\vc\tools\msvc\14.16.27023\include\vector
;	COMDAT ?_Has_unused_capacity@?$vector@PEAVbus_device@@V?$allocator@PEAVbus_device@@@std@@@std@@AEBA_NXZ
_TEXT	SEGMENT
$T1 = 200
tv69 = 216
tv77 = 224
this$ = 272
?_Has_unused_capacity@?$vector@PEAVbus_device@@V?$allocator@PEAVbus_device@@@std@@@std@@AEBA_NXZ PROC ; std::vector<bus_device *,std::allocator<bus_device *> >::_Has_unused_capacity, COMDAT

; 1725 : 		{	// micro-optimization for capacity() != size()

$LN5:
	mov	QWORD PTR [rsp+8], rcx
	push	rbp
	push	rdi
	sub	rsp, 280				; 00000118H
	lea	rbp, QWORD PTR [rsp+32]
	mov	rdi, rsp
	mov	ecx, 70					; 00000046H
	mov	eax, -858993460				; ccccccccH
	rep stosd
	mov	rcx, QWORD PTR [rsp+312]
	mov	QWORD PTR $T1[rbp], -2
	lea	rcx, OFFSET FLAT:__FF7D7337_vector
	call	__CheckForDebuggerJustMyCode
	npad	1

; 1726 : 		return (this->_Myend() != this->_Mylast());

	mov	rcx, QWORD PTR this$[rbp]
	call	?_Myend@?$_Vector_alloc@U?$_Vec_base_types@PEAVbus_device@@V?$allocator@PEAVbus_device@@@std@@@std@@@std@@QEBAAEBQEAPEAVbus_device@@XZ ; std::_Vector_alloc<std::_Vec_base_types<bus_device *,std::allocator<bus_device *> > >::_Myend
	npad	1
	mov	QWORD PTR tv69[rbp], rax
	mov	rcx, QWORD PTR this$[rbp]
	call	?_Mylast@?$_Vector_alloc@U?$_Vec_base_types@PEAVbus_device@@V?$allocator@PEAVbus_device@@@std@@@std@@@std@@QEBAAEBQEAPEAVbus_device@@XZ ; std::_Vector_alloc<std::_Vec_base_types<bus_device *,std::allocator<bus_device *> > >::_Mylast
	npad	1
	mov	rax, QWORD PTR [rax]
	mov	rcx, QWORD PTR tv69[rbp]
	cmp	QWORD PTR [rcx], rax
	je	SHORT $LN3@Has_unused
	mov	DWORD PTR tv77[rbp], 1
	jmp	SHORT $LN4@Has_unused
$LN3@Has_unused:
	mov	DWORD PTR tv77[rbp], 0
$LN4@Has_unused:
	movzx	eax, BYTE PTR tv77[rbp]

; 1727 : 		}

	lea	rsp, QWORD PTR [rbp+248]
	pop	rdi
	pop	rbp
	ret	0
?_Has_unused_capacity@?$vector@PEAVbus_device@@V?$allocator@PEAVbus_device@@@std@@@std@@AEBA_NXZ ENDP ; std::vector<bus_device *,std::allocator<bus_device *> >::_Has_unused_capacity
_TEXT	ENDS
; Function compile flags: /Odtp /RTCsu /ZI
; File c:\program files (x86)\microsoft visual studio\2017\community\vc\tools\msvc\14.16.27023\include\vector
;	COMDAT ?capacity@?$vector@PEAVbus_device@@V?$allocator@PEAVbus_device@@@std@@@std@@QEBA_KXZ
_TEXT	SEGMENT
$T1 = 200
tv69 = 216
this$ = 256
?capacity@?$vector@PEAVbus_device@@V?$allocator@PEAVbus_device@@@std@@@std@@QEBA_KXZ PROC ; std::vector<bus_device *,std::allocator<bus_device *> >::capacity, COMDAT

; 1714 : 		{	// return current length of allocated storage

$LN3:
	mov	QWORD PTR [rsp+8], rcx
	push	rbp
	push	rdi
	sub	rsp, 264				; 00000108H
	lea	rbp, QWORD PTR [rsp+32]
	mov	rdi, rsp
	mov	ecx, 66					; 00000042H
	mov	eax, -858993460				; ccccccccH
	rep stosd
	mov	rcx, QWORD PTR [rsp+296]
	mov	QWORD PTR $T1[rbp], -2
	lea	rcx, OFFSET FLAT:__FF7D7337_vector
	call	__CheckForDebuggerJustMyCode
	npad	1

; 1715 : 		return (static_cast<size_type>(this->_Myend() - this->_Myfirst()));

	mov	rcx, QWORD PTR this$[rbp]
	call	?_Myend@?$_Vector_alloc@U?$_Vec_base_types@PEAVbus_device@@V?$allocator@PEAVbus_device@@@std@@@std@@@std@@QEBAAEBQEAPEAVbus_device@@XZ ; std::_Vector_alloc<std::_Vec_base_types<bus_device *,std::allocator<bus_device *> > >::_Myend
	npad	1
	mov	QWORD PTR tv69[rbp], rax
	mov	rcx, QWORD PTR this$[rbp]
	call	?_Myfirst@?$_Vector_alloc@U?$_Vec_base_types@PEAVbus_device@@V?$allocator@PEAVbus_device@@@std@@@std@@@std@@QEBAAEBQEAPEAVbus_device@@XZ ; std::_Vector_alloc<std::_Vec_base_types<bus_device *,std::allocator<bus_device *> > >::_Myfirst
	npad	1
	mov	rax, QWORD PTR [rax]
	mov	rcx, QWORD PTR tv69[rbp]
	mov	rcx, QWORD PTR [rcx]
	sub	rcx, rax
	mov	rax, rcx
	sar	rax, 3

; 1716 : 		}

	lea	rsp, QWORD PTR [rbp+232]
	pop	rdi
	pop	rbp
	ret	0
?capacity@?$vector@PEAVbus_device@@V?$allocator@PEAVbus_device@@@std@@@std@@QEBA_KXZ ENDP ; std::vector<bus_device *,std::allocator<bus_device *> >::capacity
_TEXT	ENDS
; Function compile flags: /Odtp /RTCsu /ZI
; File c:\program files (x86)\microsoft visual studio\2017\community\vc\tools\msvc\14.16.27023\include\vector
;	COMDAT ?max_size@?$vector@PEAVbus_device@@V?$allocator@PEAVbus_device@@@std@@@std@@QEBA_KXZ
_TEXT	SEGMENT
$T1 = 200
$T2 = 232
$T3 = 264
this$ = 320
?max_size@?$vector@PEAVbus_device@@V?$allocator@PEAVbus_device@@@std@@@std@@QEBA_KXZ PROC ; std::vector<bus_device *,std::allocator<bus_device *> >::max_size, COMDAT

; 1708 : 		{	// return maximum possible length of sequence

$LN3:
	mov	QWORD PTR [rsp+8], rcx
	push	rbp
	push	rdi
	sub	rsp, 328				; 00000148H
	lea	rbp, QWORD PTR [rsp+32]
	mov	rdi, rsp
	mov	ecx, 82					; 00000052H
	mov	eax, -858993460				; ccccccccH
	rep stosd
	mov	rcx, QWORD PTR [rsp+360]
	mov	QWORD PTR $T3[rbp], -2
	lea	rcx, OFFSET FLAT:__FF7D7337_vector
	call	__CheckForDebuggerJustMyCode
	npad	1

; 1709 : 		return (_Min_value(static_cast<size_type>((numeric_limits<difference_type>::max)()),

	mov	rcx, QWORD PTR this$[rbp]
	call	?_Getal@?$_Vector_alloc@U?$_Vec_base_types@PEAVbus_device@@V?$allocator@PEAVbus_device@@@std@@@std@@@std@@QEBAAEBV?$allocator@PEAVbus_device@@@2@XZ ; std::_Vector_alloc<std::_Vec_base_types<bus_device *,std::allocator<bus_device *> > >::_Getal
	npad	1
	mov	rcx, rax
	call	?max_size@?$_Default_allocator_traits@V?$allocator@PEAVbus_device@@@std@@@std@@SA_KAEBV?$allocator@PEAVbus_device@@@2@@Z ; std::_Default_allocator_traits<std::allocator<bus_device *> >::max_size
	npad	1
	mov	QWORD PTR $T1[rbp], rax
	call	?max@?$numeric_limits@_J@std@@SA_JXZ	; std::numeric_limits<__int64>::max
	npad	1
	mov	QWORD PTR $T2[rbp], rax
	lea	rdx, QWORD PTR $T1[rbp]
	lea	rcx, QWORD PTR $T2[rbp]
	call	??$_Min_value@_K@std@@YAAEB_KAEB_K0@Z	; std::_Min_value<unsigned __int64>
	npad	1
	mov	rax, QWORD PTR [rax]

; 1710 : 			_Alty_traits::max_size(this->_Getal())));
; 1711 : 		}

	lea	rsp, QWORD PTR [rbp+296]
	pop	rdi
	pop	rbp
	ret	0
?max_size@?$vector@PEAVbus_device@@V?$allocator@PEAVbus_device@@@std@@@std@@QEBA_KXZ ENDP ; std::vector<bus_device *,std::allocator<bus_device *> >::max_size
_TEXT	ENDS
; Function compile flags: /Odtp /RTCsu /ZI
; File c:\program files (x86)\microsoft visual studio\2017\community\vc\tools\msvc\14.16.27023\include\vector
;	COMDAT ?size@?$vector@PEAVbus_device@@V?$allocator@PEAVbus_device@@@std@@@std@@QEBA_KXZ
_TEXT	SEGMENT
$T1 = 200
tv69 = 216
this$ = 256
?size@?$vector@PEAVbus_device@@V?$allocator@PEAVbus_device@@@std@@@std@@QEBA_KXZ PROC ; std::vector<bus_device *,std::allocator<bus_device *> >::size, COMDAT

; 1703 : 		{	// return length of sequence

$LN3:
	mov	QWORD PTR [rsp+8], rcx
	push	rbp
	push	rdi
	sub	rsp, 264				; 00000108H
	lea	rbp, QWORD PTR [rsp+32]
	mov	rdi, rsp
	mov	ecx, 66					; 00000042H
	mov	eax, -858993460				; ccccccccH
	rep stosd
	mov	rcx, QWORD PTR [rsp+296]
	mov	QWORD PTR $T1[rbp], -2
	lea	rcx, OFFSET FLAT:__FF7D7337_vector
	call	__CheckForDebuggerJustMyCode
	npad	1

; 1704 : 		return (static_cast<size_type>(this->_Mylast() - this->_Myfirst()));

	mov	rcx, QWORD PTR this$[rbp]
	call	?_Mylast@?$_Vector_alloc@U?$_Vec_base_types@PEAVbus_device@@V?$allocator@PEAVbus_device@@@std@@@std@@@std@@QEBAAEBQEAPEAVbus_device@@XZ ; std::_Vector_alloc<std::_Vec_base_types<bus_device *,std::allocator<bus_device *> > >::_Mylast
	npad	1
	mov	QWORD PTR tv69[rbp], rax
	mov	rcx, QWORD PTR this$[rbp]
	call	?_Myfirst@?$_Vector_alloc@U?$_Vec_base_types@PEAVbus_device@@V?$allocator@PEAVbus_device@@@std@@@std@@@std@@QEBAAEBQEAPEAVbus_device@@XZ ; std::_Vector_alloc<std::_Vec_base_types<bus_device *,std::allocator<bus_device *> > >::_Myfirst
	npad	1
	mov	rax, QWORD PTR [rax]
	mov	rcx, QWORD PTR tv69[rbp]
	mov	rcx, QWORD PTR [rcx]
	sub	rcx, rax
	mov	rax, rcx
	sar	rax, 3

; 1705 : 		}

	lea	rsp, QWORD PTR [rbp+232]
	pop	rdi
	pop	rbp
	ret	0
?size@?$vector@PEAVbus_device@@V?$allocator@PEAVbus_device@@@std@@@std@@QEBA_KXZ ENDP ; std::vector<bus_device *,std::allocator<bus_device *> >::size
_TEXT	ENDS
; Function compile flags: /Odtp /RTCsu /ZI
; File c:\program files (x86)\microsoft visual studio\2017\community\vc\tools\msvc\14.16.27023\include\vector
;	COMDAT ?_Unchecked_end@?$vector@PEAVbus_device@@V?$allocator@PEAVbus_device@@@std@@@std@@QEAAPEAPEAVbus_device@@XZ
_TEXT	SEGMENT
$T1 = 200
this$ = 256
?_Unchecked_end@?$vector@PEAVbus_device@@V?$allocator@PEAVbus_device@@@std@@@std@@QEAAPEAPEAVbus_device@@XZ PROC ; std::vector<bus_device *,std::allocator<bus_device *> >::_Unchecked_end, COMDAT

; 1688 : 		{	// return pointer for end of mutable sequence

$LN3:
	mov	QWORD PTR [rsp+8], rcx
	push	rbp
	push	rdi
	sub	rsp, 264				; 00000108H
	lea	rbp, QWORD PTR [rsp+32]
	mov	rdi, rsp
	mov	ecx, 66					; 00000042H
	mov	eax, -858993460				; ccccccccH
	rep stosd
	mov	rcx, QWORD PTR [rsp+296]
	mov	QWORD PTR $T1[rbp], -2
	lea	rcx, OFFSET FLAT:__FF7D7337_vector
	call	__CheckForDebuggerJustMyCode
	npad	1

; 1689 : 		return (this->_Mylast());

	mov	rcx, QWORD PTR this$[rbp]
	call	?_Mylast@?$_Vector_alloc@U?$_Vec_base_types@PEAVbus_device@@V?$allocator@PEAVbus_device@@@std@@@std@@@std@@QEAAAEAPEAPEAVbus_device@@XZ ; std::_Vector_alloc<std::_Vec_base_types<bus_device *,std::allocator<bus_device *> > >::_Mylast
	npad	1
	mov	rax, QWORD PTR [rax]

; 1690 : 		}

	lea	rsp, QWORD PTR [rbp+232]
	pop	rdi
	pop	rbp
	ret	0
?_Unchecked_end@?$vector@PEAVbus_device@@V?$allocator@PEAVbus_device@@@std@@@std@@QEAAPEAPEAVbus_device@@XZ ENDP ; std::vector<bus_device *,std::allocator<bus_device *> >::_Unchecked_end
_TEXT	ENDS
; Function compile flags: /Odtp /RTCsu /ZI
; File c:\program files (x86)\microsoft visual studio\2017\community\vc\tools\msvc\14.16.27023\include\vector
;	COMDAT ?_Unchecked_begin@?$vector@PEAVbus_device@@V?$allocator@PEAVbus_device@@@std@@@std@@QEAAPEAPEAVbus_device@@XZ
_TEXT	SEGMENT
$T1 = 200
this$ = 256
?_Unchecked_begin@?$vector@PEAVbus_device@@V?$allocator@PEAVbus_device@@@std@@@std@@QEAAPEAPEAVbus_device@@XZ PROC ; std::vector<bus_device *,std::allocator<bus_device *> >::_Unchecked_begin, COMDAT

; 1678 : 		{	// return pointer for beginning of mutable sequence

$LN3:
	mov	QWORD PTR [rsp+8], rcx
	push	rbp
	push	rdi
	sub	rsp, 264				; 00000108H
	lea	rbp, QWORD PTR [rsp+32]
	mov	rdi, rsp
	mov	ecx, 66					; 00000042H
	mov	eax, -858993460				; ccccccccH
	rep stosd
	mov	rcx, QWORD PTR [rsp+296]
	mov	QWORD PTR $T1[rbp], -2
	lea	rcx, OFFSET FLAT:__FF7D7337_vector
	call	__CheckForDebuggerJustMyCode
	npad	1

; 1679 : 		return (this->_Myfirst());

	mov	rcx, QWORD PTR this$[rbp]
	call	?_Myfirst@?$_Vector_alloc@U?$_Vec_base_types@PEAVbus_device@@V?$allocator@PEAVbus_device@@@std@@@std@@@std@@QEAAAEAPEAPEAVbus_device@@XZ ; std::_Vector_alloc<std::_Vec_base_types<bus_device *,std::allocator<bus_device *> > >::_Myfirst
	npad	1
	mov	rax, QWORD PTR [rax]

; 1680 : 		}

	lea	rsp, QWORD PTR [rbp+232]
	pop	rdi
	pop	rbp
	ret	0
?_Unchecked_begin@?$vector@PEAVbus_device@@V?$allocator@PEAVbus_device@@@std@@@std@@QEAAPEAPEAVbus_device@@XZ ENDP ; std::vector<bus_device *,std::allocator<bus_device *> >::_Unchecked_begin
_TEXT	ENDS
; Function compile flags: /Odtp /RTCsu /ZI
; File c:\program files (x86)\microsoft visual studio\2017\community\vc\tools\msvc\14.16.27023\include\vector
;	COMDAT ?begin@?$vector@PEAVbus_device@@V?$allocator@PEAVbus_device@@@std@@@std@@QEAA?AV?$_Vector_iterator@V?$_Vector_val@U?$_Simple_types@PEAVbus_device@@@std@@@std@@@2@XZ
_TEXT	SEGMENT
$T1 = 200
tv69 = 216
this$ = 256
__$ReturnUdt$ = 264
?begin@?$vector@PEAVbus_device@@V?$allocator@PEAVbus_device@@@std@@@std@@QEAA?AV?$_Vector_iterator@V?$_Vector_val@U?$_Simple_types@PEAVbus_device@@@std@@@std@@@2@XZ PROC ; std::vector<bus_device *,std::allocator<bus_device *> >::begin, COMDAT

; 1618 : 		{	// return iterator for beginning of mutable sequence

$LN3:
	mov	QWORD PTR [rsp+16], rdx
	mov	QWORD PTR [rsp+8], rcx
	push	rbp
	push	rdi
	sub	rsp, 264				; 00000108H
	lea	rbp, QWORD PTR [rsp+32]
	mov	rdi, rsp
	mov	ecx, 66					; 00000042H
	mov	eax, -858993460				; ccccccccH
	rep stosd
	mov	rcx, QWORD PTR [rsp+296]
	mov	QWORD PTR $T1[rbp], -2
	lea	rcx, OFFSET FLAT:__FF7D7337_vector
	call	__CheckForDebuggerJustMyCode
	npad	1

; 1619 : 		return (iterator(this->_Myfirst(), _STD addressof(this->_Get_data())));

	mov	rcx, QWORD PTR this$[rbp]
	call	?_Get_data@?$_Vector_alloc@U?$_Vec_base_types@PEAVbus_device@@V?$allocator@PEAVbus_device@@@std@@@std@@@std@@QEAAAEAV?$_Vector_val@U?$_Simple_types@PEAVbus_device@@@std@@@2@XZ ; std::_Vector_alloc<std::_Vec_base_types<bus_device *,std::allocator<bus_device *> > >::_Get_data
	npad	1
	mov	rcx, rax
	call	??$addressof@V?$_Vector_val@U?$_Simple_types@PEAVbus_device@@@std@@@std@@@std@@YAPEAV?$_Vector_val@U?$_Simple_types@PEAVbus_device@@@std@@@0@AEAV10@@Z ; std::addressof<std::_Vector_val<std::_Simple_types<bus_device *> > >
	npad	1
	mov	QWORD PTR tv69[rbp], rax
	mov	rcx, QWORD PTR this$[rbp]
	call	?_Myfirst@?$_Vector_alloc@U?$_Vec_base_types@PEAVbus_device@@V?$allocator@PEAVbus_device@@@std@@@std@@@std@@QEAAAEAPEAPEAVbus_device@@XZ ; std::_Vector_alloc<std::_Vec_base_types<bus_device *,std::allocator<bus_device *> > >::_Myfirst
	npad	1
	mov	rcx, QWORD PTR tv69[rbp]
	mov	r8, rcx
	mov	rdx, QWORD PTR [rax]
	mov	rcx, QWORD PTR __$ReturnUdt$[rbp]
	call	??0?$_Vector_iterator@V?$_Vector_val@U?$_Simple_types@PEAVbus_device@@@std@@@std@@@std@@QEAA@PEAPEAVbus_device@@PEBU_Container_base12@1@@Z ; std::_Vector_iterator<std::_Vector_val<std::_Simple_types<bus_device *> > >::_Vector_iterator<std::_Vector_val<std::_Simple_types<bus_device *> > >
	npad	1
	mov	rax, QWORD PTR __$ReturnUdt$[rbp]

; 1620 : 		}

	lea	rsp, QWORD PTR [rbp+232]
	pop	rdi
	pop	rbp
	ret	0
?begin@?$vector@PEAVbus_device@@V?$allocator@PEAVbus_device@@@std@@@std@@QEAA?AV?$_Vector_iterator@V?$_Vector_val@U?$_Simple_types@PEAVbus_device@@@std@@@std@@@2@XZ ENDP ; std::vector<bus_device *,std::allocator<bus_device *> >::begin
_TEXT	ENDS
; Function compile flags: /Odtp /RTCsu /ZI
; File c:\program files (x86)\microsoft visual studio\2017\community\vc\tools\msvc\14.16.27023\include\vector
;	COMDAT ?erase@?$vector@PEAVbus_device@@V?$allocator@PEAVbus_device@@@std@@@std@@QEAA?AV?$_Vector_iterator@V?$_Vector_val@U?$_Simple_types@PEAVbus_device@@@std@@@std@@@2@V?$_Vector_const_iterator@V?$_Vector_val@U?$_Simple_types@PEAVbus_device@@@std@@@std@@@2@@Z
_TEXT	SEGMENT
$T1 = 196
$T2 = 232
tv193 = 248
tv158 = 248
tv70 = 248
this$ = 288
__$ReturnUdt$ = 296
_Where$ = 304
?erase@?$vector@PEAVbus_device@@V?$allocator@PEAVbus_device@@@std@@@std@@QEAA?AV?$_Vector_iterator@V?$_Vector_val@U?$_Simple_types@PEAVbus_device@@@std@@@std@@@2@V?$_Vector_const_iterator@V?$_Vector_val@U?$_Simple_types@PEAVbus_device@@@std@@@std@@@2@@Z PROC ; std::vector<bus_device *,std::allocator<bus_device *> >::erase, COMDAT

; 1553 : 		{	// erase element at _Where

$LN15:
	mov	QWORD PTR [rsp+24], r8
	mov	QWORD PTR [rsp+16], rdx
	mov	QWORD PTR [rsp+8], rcx
	push	rbp
	push	rdi
	sub	rsp, 312				; 00000138H
	lea	rbp, QWORD PTR [rsp+48]
	mov	rdi, rsp
	mov	ecx, 78					; 0000004eH
	mov	eax, -858993460				; ccccccccH
	rep stosd
	mov	rcx, QWORD PTR [rsp+344]
	mov	QWORD PTR $T2[rbp], -2
	mov	DWORD PTR $T1[rbp], 0
	lea	rcx, OFFSET FLAT:__FF7D7337_vector
	call	__CheckForDebuggerJustMyCode
$LN4@erase:

; 1554 :  #if _ITERATOR_DEBUG_LEVEL == 2
; 1555 : 		_STL_VERIFY(_Where._Getcont() == _STD addressof(this->_Get_data())

	mov	rcx, QWORD PTR _Where$[rbp]
	call	?_Getcont@_Iterator_base12@std@@QEBAPEBU_Container_base12@2@XZ ; std::_Iterator_base12::_Getcont
	mov	QWORD PTR tv70[rbp], rax
	mov	rcx, QWORD PTR this$[rbp]
	call	?_Get_data@?$_Vector_alloc@U?$_Vec_base_types@PEAVbus_device@@V?$allocator@PEAVbus_device@@@std@@@std@@@std@@QEAAAEAV?$_Vector_val@U?$_Simple_types@PEAVbus_device@@@std@@@2@XZ ; std::_Vector_alloc<std::_Vec_base_types<bus_device *,std::allocator<bus_device *> > >::_Get_data
	mov	rcx, rax
	call	??$addressof@V?$_Vector_val@U?$_Simple_types@PEAVbus_device@@@std@@@std@@@std@@YAPEAV?$_Vector_val@U?$_Simple_types@PEAVbus_device@@@std@@@0@AEAV10@@Z ; std::addressof<std::_Vector_val<std::_Simple_types<bus_device *> > >
	mov	rcx, QWORD PTR tv70[rbp]
	cmp	rcx, rax
	jne	SHORT $LN7@erase
	mov	rcx, QWORD PTR this$[rbp]
	call	?_Myfirst@?$_Vector_alloc@U?$_Vec_base_types@PEAVbus_device@@V?$allocator@PEAVbus_device@@@std@@@std@@@std@@QEAAAEAPEAPEAVbus_device@@XZ ; std::_Vector_alloc<std::_Vec_base_types<bus_device *,std::allocator<bus_device *> > >::_Myfirst
	mov	rcx, QWORD PTR _Where$[rbp]
	mov	rax, QWORD PTR [rax]
	cmp	QWORD PTR [rcx+16], rax
	jb	SHORT $LN7@erase
	mov	rcx, QWORD PTR this$[rbp]
	call	?_Mylast@?$_Vector_alloc@U?$_Vec_base_types@PEAVbus_device@@V?$allocator@PEAVbus_device@@@std@@@std@@@std@@QEAAAEAPEAPEAVbus_device@@XZ ; std::_Vector_alloc<std::_Vec_base_types<bus_device *,std::allocator<bus_device *> > >::_Mylast
	mov	rcx, QWORD PTR _Where$[rbp]
	mov	rcx, QWORD PTR [rcx+16]
	cmp	QWORD PTR [rax], rcx
	jbe	SHORT $LN7@erase
	jmp	SHORT $LN9@erase
$LN7@erase:
	lea	rax, OFFSET FLAT:??_C@_0CE@EAMOGAIE@vector?5erase?5iterator?5outside?5r@
	mov	QWORD PTR [rsp+40], rax
	lea	rax, OFFSET FLAT:??_C@_02DKCKIIND@?$CFs@
	mov	QWORD PTR [rsp+32], rax
	xor	r9d, r9d
	mov	r8d, 1557				; 00000615H
	lea	rdx, OFFSET FLAT:??_C@_0GH@FKAHJGEE@c?3?2program?5files?5?$CIx86?$CJ?2microsof@
	mov	ecx, 2
	call	QWORD PTR __imp__CrtDbgReport
	cmp	eax, 1
	jne	SHORT $LN11@erase
	int	3
	xor	eax, eax
$LN11@erase:
	mov	QWORD PTR [rsp+32], 0
	mov	r9d, 1557				; 00000615H
	lea	r8, OFFSET FLAT:??_C@_1MO@OJBMIJHH@?$AAc?$AA?3?$AA?2?$AAp?$AAr?$AAo?$AAg?$AAr?$AAa?$AAm?$AA?5?$AAf?$AAi?$AAl?$AAe@
	lea	rdx, OFFSET FLAT:??_C@_1KC@BCHEBHHN@?$AAs?$AAt?$AAd?$AA?3?$AA?3?$AAv?$AAe?$AAc?$AAt?$AAo?$AAr?$AA?$DM?$AAc?$AAl?$AAa@
	lea	rcx, OFFSET FLAT:??_C@_1EM@BEMPOGMM@?$AA?$CC?$AAv?$AAe?$AAc?$AAt?$AAo?$AAr?$AA?5?$AAe?$AAr?$AAa?$AAs?$AAe?$AA?5?$AAi@
	call	QWORD PTR __imp__invalid_parameter

; 1556 : 			&& _Where._Ptr >= this->_Myfirst()
; 1557 : 			&& this->_Mylast() > _Where._Ptr, "vector erase iterator outside range");

	xor	eax, eax
	test	eax, eax
	jne	SHORT $LN7@erase
$LN9@erase:
	xor	eax, eax
	test	eax, eax
	jne	$LN4@erase

; 1558 : 		_Orphan_range(_Where._Ptr, this->_Mylast());

	mov	rcx, QWORD PTR this$[rbp]
	call	?_Mylast@?$_Vector_alloc@U?$_Vec_base_types@PEAVbus_device@@V?$allocator@PEAVbus_device@@@std@@@std@@@std@@QEAAAEAPEAPEAVbus_device@@XZ ; std::_Vector_alloc<std::_Vec_base_types<bus_device *,std::allocator<bus_device *> > >::_Mylast
	mov	r8, QWORD PTR [rax]
	mov	rax, QWORD PTR _Where$[rbp]
	mov	rdx, QWORD PTR [rax+16]
	mov	rcx, QWORD PTR this$[rbp]
	call	?_Orphan_range@?$vector@PEAVbus_device@@V?$allocator@PEAVbus_device@@@std@@@std@@AEBAXPEAPEAVbus_device@@0@Z ; std::vector<bus_device *,std::allocator<bus_device *> >::_Orphan_range

; 1559 :  #endif /* _ITERATOR_DEBUG_LEVEL == 2 */
; 1560 : 
; 1561 : 		_Move_unchecked(_Where._Ptr + 1, this->_Mylast(), _Where._Ptr);

	mov	rcx, QWORD PTR this$[rbp]
	call	?_Mylast@?$_Vector_alloc@U?$_Vec_base_types@PEAVbus_device@@V?$allocator@PEAVbus_device@@@std@@@std@@@std@@QEAAAEAPEAPEAVbus_device@@XZ ; std::_Vector_alloc<std::_Vec_base_types<bus_device *,std::allocator<bus_device *> > >::_Mylast
	mov	rcx, QWORD PTR _Where$[rbp]
	mov	rcx, QWORD PTR [rcx+16]
	add	rcx, 8
	mov	rdx, QWORD PTR _Where$[rbp]
	mov	r8, QWORD PTR [rdx+16]
	mov	rdx, QWORD PTR [rax]
	call	??$_Move_unchecked@PEAPEAVbus_device@@PEAPEAV1@@std@@YAPEAPEAVbus_device@@PEAPEAV1@00@Z ; std::_Move_unchecked<bus_device * *,bus_device * *>

; 1562 : 		_Alty_traits::destroy(this->_Getal(), _Unfancy(this->_Mylast() - 1));

	mov	rcx, QWORD PTR this$[rbp]
	call	?_Mylast@?$_Vector_alloc@U?$_Vec_base_types@PEAVbus_device@@V?$allocator@PEAVbus_device@@@std@@@std@@@std@@QEAAAEAPEAPEAVbus_device@@XZ ; std::_Vector_alloc<std::_Vec_base_types<bus_device *,std::allocator<bus_device *> > >::_Mylast
	mov	rax, QWORD PTR [rax]
	sub	rax, 8
	mov	rcx, rax
	call	??$_Unfancy@PEAVbus_device@@@std@@YAPEAPEAVbus_device@@PEAPEAV1@@Z ; std::_Unfancy<bus_device *>
	mov	QWORD PTR tv158[rbp], rax
	mov	rcx, QWORD PTR this$[rbp]
	call	?_Getal@?$_Vector_alloc@U?$_Vec_base_types@PEAVbus_device@@V?$allocator@PEAVbus_device@@@std@@@std@@@std@@QEAAAEAV?$allocator@PEAVbus_device@@@2@XZ ; std::_Vector_alloc<std::_Vec_base_types<bus_device *,std::allocator<bus_device *> > >::_Getal
	mov	rcx, QWORD PTR tv158[rbp]
	mov	rdx, rcx
	mov	rcx, rax
	call	??$destroy@PEAVbus_device@@@?$_Default_allocator_traits@V?$allocator@PEAVbus_device@@@std@@@std@@SAXAEAV?$allocator@PEAVbus_device@@@1@QEAPEAVbus_device@@@Z ; std::_Default_allocator_traits<std::allocator<bus_device *> >::destroy<bus_device *>

; 1563 : 		--this->_Mylast();

	mov	rcx, QWORD PTR this$[rbp]
	call	?_Mylast@?$_Vector_alloc@U?$_Vec_base_types@PEAVbus_device@@V?$allocator@PEAVbus_device@@@std@@@std@@@std@@QEAAAEAPEAPEAVbus_device@@XZ ; std::_Vector_alloc<std::_Vec_base_types<bus_device *,std::allocator<bus_device *> > >::_Mylast
	mov	QWORD PTR tv193[rbp], rax
	mov	rax, QWORD PTR tv193[rbp]
	mov	rax, QWORD PTR [rax]
	sub	rax, 8
	mov	rcx, QWORD PTR tv193[rbp]
	mov	QWORD PTR [rcx], rax

; 1564 : 		return (iterator(_Where._Ptr, _STD addressof(this->_Get_data())));

	mov	rcx, QWORD PTR this$[rbp]
	call	?_Get_data@?$_Vector_alloc@U?$_Vec_base_types@PEAVbus_device@@V?$allocator@PEAVbus_device@@@std@@@std@@@std@@QEAAAEAV?$_Vector_val@U?$_Simple_types@PEAVbus_device@@@std@@@2@XZ ; std::_Vector_alloc<std::_Vec_base_types<bus_device *,std::allocator<bus_device *> > >::_Get_data
	mov	rcx, rax
	call	??$addressof@V?$_Vector_val@U?$_Simple_types@PEAVbus_device@@@std@@@std@@@std@@YAPEAV?$_Vector_val@U?$_Simple_types@PEAVbus_device@@@std@@@0@AEAV10@@Z ; std::addressof<std::_Vector_val<std::_Simple_types<bus_device *> > >
	mov	r8, rax
	mov	rax, QWORD PTR _Where$[rbp]
	mov	rdx, QWORD PTR [rax+16]
	mov	rcx, QWORD PTR __$ReturnUdt$[rbp]
	call	??0?$_Vector_iterator@V?$_Vector_val@U?$_Simple_types@PEAVbus_device@@@std@@@std@@@std@@QEAA@PEAPEAVbus_device@@PEBU_Container_base12@1@@Z ; std::_Vector_iterator<std::_Vector_val<std::_Simple_types<bus_device *> > >::_Vector_iterator<std::_Vector_val<std::_Simple_types<bus_device *> > >
	mov	eax, DWORD PTR $T1[rbp]
	or	eax, 1
	mov	DWORD PTR $T1[rbp], eax
	mov	rcx, QWORD PTR _Where$[rbp]
	call	??1?$_Vector_const_iterator@V?$_Vector_val@U?$_Simple_types@PEAVbus_device@@@std@@@std@@@std@@QEAA@XZ
	mov	rax, QWORD PTR __$ReturnUdt$[rbp]

; 1565 : 		}

	lea	rsp, QWORD PTR [rbp+264]
	pop	rdi
	pop	rbp
	ret	0
?erase@?$vector@PEAVbus_device@@V?$allocator@PEAVbus_device@@@std@@@std@@QEAA?AV?$_Vector_iterator@V?$_Vector_val@U?$_Simple_types@PEAVbus_device@@@std@@@std@@@2@V?$_Vector_const_iterator@V?$_Vector_val@U?$_Simple_types@PEAVbus_device@@@std@@@std@@@2@@Z ENDP ; std::vector<bus_device *,std::allocator<bus_device *> >::erase
_TEXT	ENDS
;	COMDAT text$x
text$x	SEGMENT
$T1 = 196
$T2 = 232
tv193 = 248
tv158 = 248
tv70 = 248
this$ = 288
__$ReturnUdt$ = 296
_Where$ = 304
?dtor$0@?0??erase@?$vector@PEAVbus_device@@V?$allocator@PEAVbus_device@@@std@@@std@@QEAA?AV?$_Vector_iterator@V?$_Vector_val@U?$_Simple_types@PEAVbus_device@@@std@@@std@@@2@V?$_Vector_const_iterator@V?$_Vector_val@U?$_Simple_types@PEAVbus_device@@@std@@@std@@@2@@Z@4HA PROC ; `std::vector<bus_device *,std::allocator<bus_device *> >::erase'::`1'::dtor$0
	mov	QWORD PTR [rsp+8], rcx
	mov	QWORD PTR [rsp+16], rdx
	push	rbp
	push	rdi
	sub	rsp, 40					; 00000028H
	lea	rbp, QWORD PTR [rdx+48]
	mov	rcx, QWORD PTR _Where$[rbp]
	call	??1?$_Vector_const_iterator@V?$_Vector_val@U?$_Simple_types@PEAVbus_device@@@std@@@std@@@std@@QEAA@XZ
	add	rsp, 40					; 00000028H
	pop	rdi
	pop	rbp
	ret	0
?dtor$0@?0??erase@?$vector@PEAVbus_device@@V?$allocator@PEAVbus_device@@@std@@@std@@QEAA?AV?$_Vector_iterator@V?$_Vector_val@U?$_Simple_types@PEAVbus_device@@@std@@@std@@@2@V?$_Vector_const_iterator@V?$_Vector_val@U?$_Simple_types@PEAVbus_device@@@std@@@std@@@2@@Z@4HA ENDP ; `std::vector<bus_device *,std::allocator<bus_device *> >::erase'::`1'::dtor$0
text$x	ENDS
; Function compile flags: /Odtp /RTCsu /ZI
;	COMDAT text$x
text$x	SEGMENT
$T1 = 196
$T2 = 232
tv193 = 248
tv158 = 248
tv70 = 248
this$ = 288
__$ReturnUdt$ = 296
_Where$ = 304
?dtor$0@?0??erase@?$vector@PEAVbus_device@@V?$allocator@PEAVbus_device@@@std@@@std@@QEAA?AV?$_Vector_iterator@V?$_Vector_val@U?$_Simple_types@PEAVbus_device@@@std@@@std@@@2@V?$_Vector_const_iterator@V?$_Vector_val@U?$_Simple_types@PEAVbus_device@@@std@@@std@@@2@@Z@4HA PROC ; `std::vector<bus_device *,std::allocator<bus_device *> >::erase'::`1'::dtor$0
	mov	QWORD PTR [rsp+8], rcx
	mov	QWORD PTR [rsp+16], rdx
	push	rbp
	push	rdi
	sub	rsp, 40					; 00000028H
	lea	rbp, QWORD PTR [rdx+48]
	mov	rcx, QWORD PTR _Where$[rbp]
	call	??1?$_Vector_const_iterator@V?$_Vector_val@U?$_Simple_types@PEAVbus_device@@@std@@@std@@@std@@QEAA@XZ
	add	rsp, 40					; 00000028H
	pop	rdi
	pop	rbp
	ret	0
?dtor$0@?0??erase@?$vector@PEAVbus_device@@V?$allocator@PEAVbus_device@@@std@@@std@@QEAA?AV?$_Vector_iterator@V?$_Vector_val@U?$_Simple_types@PEAVbus_device@@@std@@@std@@@2@V?$_Vector_const_iterator@V?$_Vector_val@U?$_Simple_types@PEAVbus_device@@@std@@@std@@@2@@Z@4HA ENDP ; `std::vector<bus_device *,std::allocator<bus_device *> >::erase'::`1'::dtor$0
text$x	ENDS
; Function compile flags: /Odtp /RTCsu /ZI
; File c:\program files (x86)\microsoft visual studio\2017\community\vc\tools\msvc\14.16.27023\include\vector
;	COMDAT ?push_back@?$vector@PEAVbus_device@@V?$allocator@PEAVbus_device@@@std@@@std@@QEAAXAEBQEAVbus_device@@@Z
_TEXT	SEGMENT
this$ = 224
_Val$ = 232
?push_back@?$vector@PEAVbus_device@@V?$allocator@PEAVbus_device@@@std@@@std@@QEAAXAEBQEAVbus_device@@@Z PROC ; std::vector<bus_device *,std::allocator<bus_device *> >::push_back, COMDAT

; 931  : 		{	// insert element at end, provide strong guarantee

$LN3:
	mov	QWORD PTR [rsp+16], rdx
	mov	QWORD PTR [rsp+8], rcx
	push	rbp
	push	rdi
	sub	rsp, 232				; 000000e8H
	lea	rbp, QWORD PTR [rsp+32]
	mov	rdi, rsp
	mov	ecx, 58					; 0000003aH
	mov	eax, -858993460				; ccccccccH
	rep stosd
	mov	rcx, QWORD PTR [rsp+264]
	lea	rcx, OFFSET FLAT:__FF7D7337_vector
	call	__CheckForDebuggerJustMyCode

; 932  : 		emplace_back(_Val);

	mov	rdx, QWORD PTR _Val$[rbp]
	mov	rcx, QWORD PTR this$[rbp]
	call	??$emplace_back@AEBQEAVbus_device@@@?$vector@PEAVbus_device@@V?$allocator@PEAVbus_device@@@std@@@std@@QEAA@AEBQEAVbus_device@@@Z ; std::vector<bus_device *,std::allocator<bus_device *> >::emplace_back<bus_device * const &>

; 933  : 		}

	lea	rsp, QWORD PTR [rbp+200]
	pop	rdi
	pop	rbp
	ret	0
?push_back@?$vector@PEAVbus_device@@V?$allocator@PEAVbus_device@@@std@@@std@@QEAAXAEBQEAVbus_device@@@Z ENDP ; std::vector<bus_device *,std::allocator<bus_device *> >::push_back
_TEXT	ENDS
; Function compile flags: /Odtp /RTCsu /ZI
; File c:\program files (x86)\microsoft visual studio\2017\community\vc\tools\msvc\14.16.27023\include\vector
;	COMDAT ??1?$vector@PEAVbus_device@@V?$allocator@PEAVbus_device@@@std@@@std@@QEAA@XZ
_TEXT	SEGMENT
$T1 = 200
this$ = 256
??1?$vector@PEAVbus_device@@V?$allocator@PEAVbus_device@@@std@@@std@@QEAA@XZ PROC ; std::vector<bus_device *,std::allocator<bus_device *> >::~vector<bus_device *,std::allocator<bus_device *> >, COMDAT

; 893  : 		{	// destroy the object

$LN3:
	mov	QWORD PTR [rsp+8], rcx
	push	rbp
	push	rdi
	sub	rsp, 264				; 00000108H
	lea	rbp, QWORD PTR [rsp+32]
	mov	rdi, rsp
	mov	ecx, 66					; 00000042H
	mov	eax, -858993460				; ccccccccH
	rep stosd
	mov	rcx, QWORD PTR [rsp+296]
	mov	QWORD PTR $T1[rbp], -2
	lea	rcx, OFFSET FLAT:__FF7D7337_vector
	call	__CheckForDebuggerJustMyCode
	npad	1

; 894  : 		_Tidy();

	mov	rcx, QWORD PTR this$[rbp]
	call	?_Tidy@?$vector@PEAVbus_device@@V?$allocator@PEAVbus_device@@@std@@@std@@AEAAXXZ ; std::vector<bus_device *,std::allocator<bus_device *> >::_Tidy
	npad	1

; 895  : 		}

	mov	rcx, QWORD PTR this$[rbp]
	call	??1?$_Vector_alloc@U?$_Vec_base_types@PEAVbus_device@@V?$allocator@PEAVbus_device@@@std@@@std@@@std@@QEAA@XZ ; std::_Vector_alloc<std::_Vec_base_types<bus_device *,std::allocator<bus_device *> > >::~_Vector_alloc<std::_Vec_base_types<bus_device *,std::allocator<bus_device *> > >
	npad	1
	lea	rsp, QWORD PTR [rbp+232]
	pop	rdi
	pop	rbp
	ret	0
??1?$vector@PEAVbus_device@@V?$allocator@PEAVbus_device@@@std@@@std@@QEAA@XZ ENDP ; std::vector<bus_device *,std::allocator<bus_device *> >::~vector<bus_device *,std::allocator<bus_device *> >
_TEXT	ENDS
; Function compile flags: /Odtp /RTCsu /ZI
; File c:\program files (x86)\microsoft visual studio\2017\community\vc\tools\msvc\14.16.27023\include\vector
;	COMDAT ??0?$vector@PEAVbus_device@@V?$allocator@PEAVbus_device@@@std@@@std@@QEAA@XZ
_TEXT	SEGMENT
$T1 = 200
this$ = 256
??0?$vector@PEAVbus_device@@V?$allocator@PEAVbus_device@@@std@@@std@@QEAA@XZ PROC ; std::vector<bus_device *,std::allocator<bus_device *> >::vector<bus_device *,std::allocator<bus_device *> >, COMDAT

; 651  : 		{	// construct empty vector

$LN3:
	mov	QWORD PTR [rsp+8], rcx
	push	rbp
	push	rdi
	sub	rsp, 264				; 00000108H
	lea	rbp, QWORD PTR [rsp+32]
	mov	rdi, rsp
	mov	ecx, 66					; 00000042H
	mov	eax, -858993460				; ccccccccH
	rep stosd
	mov	rcx, QWORD PTR [rsp+296]
	mov	QWORD PTR $T1[rbp], -2
	lea	rcx, OFFSET FLAT:__FF7D7337_vector
	call	__CheckForDebuggerJustMyCode
	npad	1

; 650  : 		: _Mybase()

	mov	rcx, QWORD PTR this$[rbp]
	call	??0?$_Vector_alloc@U?$_Vec_base_types@PEAVbus_device@@V?$allocator@PEAVbus_device@@@std@@@std@@@std@@QEAA@XZ ; std::_Vector_alloc<std::_Vec_base_types<bus_device *,std::allocator<bus_device *> > >::_Vector_alloc<std::_Vec_base_types<bus_device *,std::allocator<bus_device *> > >
	npad	1

; 652  : 		}

	mov	rax, QWORD PTR this$[rbp]
	lea	rsp, QWORD PTR [rbp+232]
	pop	rdi
	pop	rbp
	ret	0
??0?$vector@PEAVbus_device@@V?$allocator@PEAVbus_device@@@std@@@std@@QEAA@XZ ENDP ; std::vector<bus_device *,std::allocator<bus_device *> >::vector<bus_device *,std::allocator<bus_device *> >
_TEXT	ENDS
; Function compile flags: /Odtp /RTCsu /ZI
; File c:\program files (x86)\microsoft visual studio\2017\community\vc\tools\msvc\14.16.27023\include\xutility
;	COMDAT ?_Get_second@?$_Compressed_pair@V?$allocator@PEAVbus_device@@@std@@V?$_Vector_val@U?$_Simple_types@PEAVbus_device@@@std@@@2@$00@std@@QEBAAEBV?$_Vector_val@U?$_Simple_types@PEAVbus_device@@@std@@@2@XZ
_TEXT	SEGMENT
$T1 = 200
this$ = 256
?_Get_second@?$_Compressed_pair@V?$allocator@PEAVbus_device@@@std@@V?$_Vector_val@U?$_Simple_types@PEAVbus_device@@@std@@@2@$00@std@@QEBAAEBV?$_Vector_val@U?$_Simple_types@PEAVbus_device@@@std@@@2@XZ PROC ; std::_Compressed_pair<std::allocator<bus_device *>,std::_Vector_val<std::_Simple_types<bus_device *> >,1>::_Get_second, COMDAT

; 306  : 		{	// return const reference to second

$LN3:
	mov	QWORD PTR [rsp+8], rcx
	push	rbp
	push	rdi
	sub	rsp, 264				; 00000108H
	lea	rbp, QWORD PTR [rsp+32]
	mov	rdi, rsp
	mov	ecx, 66					; 00000042H
	mov	eax, -858993460				; ccccccccH
	rep stosd
	mov	rcx, QWORD PTR [rsp+296]
	mov	QWORD PTR $T1[rbp], -2
	lea	rcx, OFFSET FLAT:__CDB00636_xutility
	call	__CheckForDebuggerJustMyCode
	npad	1

; 307  : 		return (_Myval2);

	mov	rax, QWORD PTR this$[rbp]

; 308  : 		}

	lea	rsp, QWORD PTR [rbp+232]
	pop	rdi
	pop	rbp
	ret	0
?_Get_second@?$_Compressed_pair@V?$allocator@PEAVbus_device@@@std@@V?$_Vector_val@U?$_Simple_types@PEAVbus_device@@@std@@@2@$00@std@@QEBAAEBV?$_Vector_val@U?$_Simple_types@PEAVbus_device@@@std@@@2@XZ ENDP ; std::_Compressed_pair<std::allocator<bus_device *>,std::_Vector_val<std::_Simple_types<bus_device *> >,1>::_Get_second
_TEXT	ENDS
; Function compile flags: /Odtp /RTCsu /ZI
; File c:\program files (x86)\microsoft visual studio\2017\community\vc\tools\msvc\14.16.27023\include\xutility
;	COMDAT ?_Get_second@?$_Compressed_pair@V?$allocator@PEAVbus_device@@@std@@V?$_Vector_val@U?$_Simple_types@PEAVbus_device@@@std@@@2@$00@std@@QEAAAEAV?$_Vector_val@U?$_Simple_types@PEAVbus_device@@@std@@@2@XZ
_TEXT	SEGMENT
$T1 = 200
this$ = 256
?_Get_second@?$_Compressed_pair@V?$allocator@PEAVbus_device@@@std@@V?$_Vector_val@U?$_Simple_types@PEAVbus_device@@@std@@@2@$00@std@@QEAAAEAV?$_Vector_val@U?$_Simple_types@PEAVbus_device@@@std@@@2@XZ PROC ; std::_Compressed_pair<std::allocator<bus_device *>,std::_Vector_val<std::_Simple_types<bus_device *> >,1>::_Get_second, COMDAT

; 301  : 		{	// return reference to second

$LN3:
	mov	QWORD PTR [rsp+8], rcx
	push	rbp
	push	rdi
	sub	rsp, 264				; 00000108H
	lea	rbp, QWORD PTR [rsp+32]
	mov	rdi, rsp
	mov	ecx, 66					; 00000042H
	mov	eax, -858993460				; ccccccccH
	rep stosd
	mov	rcx, QWORD PTR [rsp+296]
	mov	QWORD PTR $T1[rbp], -2
	lea	rcx, OFFSET FLAT:__CDB00636_xutility
	call	__CheckForDebuggerJustMyCode
	npad	1

; 302  : 		return (_Myval2);

	mov	rax, QWORD PTR this$[rbp]

; 303  : 		}

	lea	rsp, QWORD PTR [rbp+232]
	pop	rdi
	pop	rbp
	ret	0
?_Get_second@?$_Compressed_pair@V?$allocator@PEAVbus_device@@@std@@V?$_Vector_val@U?$_Simple_types@PEAVbus_device@@@std@@@2@$00@std@@QEAAAEAV?$_Vector_val@U?$_Simple_types@PEAVbus_device@@@std@@@2@XZ ENDP ; std::_Compressed_pair<std::allocator<bus_device *>,std::_Vector_val<std::_Simple_types<bus_device *> >,1>::_Get_second
_TEXT	ENDS
; Function compile flags: /Odtp /RTCsu /ZI
; File c:\program files (x86)\microsoft visual studio\2017\community\vc\tools\msvc\14.16.27023\include\xutility
;	COMDAT ?_Get_first@?$_Compressed_pair@V?$allocator@PEAVbus_device@@@std@@V?$_Vector_val@U?$_Simple_types@PEAVbus_device@@@std@@@2@$00@std@@QEBAAEBV?$allocator@PEAVbus_device@@@2@XZ
_TEXT	SEGMENT
$T1 = 200
this$ = 256
?_Get_first@?$_Compressed_pair@V?$allocator@PEAVbus_device@@@std@@V?$_Vector_val@U?$_Simple_types@PEAVbus_device@@@std@@@2@$00@std@@QEBAAEBV?$allocator@PEAVbus_device@@@2@XZ PROC ; std::_Compressed_pair<std::allocator<bus_device *>,std::_Vector_val<std::_Simple_types<bus_device *> >,1>::_Get_first, COMDAT

; 296  : 		{	// return const reference to first

$LN3:
	mov	QWORD PTR [rsp+8], rcx
	push	rbp
	push	rdi
	sub	rsp, 264				; 00000108H
	lea	rbp, QWORD PTR [rsp+32]
	mov	rdi, rsp
	mov	ecx, 66					; 00000042H
	mov	eax, -858993460				; ccccccccH
	rep stosd
	mov	rcx, QWORD PTR [rsp+296]
	mov	QWORD PTR $T1[rbp], -2
	lea	rcx, OFFSET FLAT:__CDB00636_xutility
	call	__CheckForDebuggerJustMyCode
	npad	1

; 297  : 		return (*this);

	mov	rax, QWORD PTR this$[rbp]

; 298  : 		}

	lea	rsp, QWORD PTR [rbp+232]
	pop	rdi
	pop	rbp
	ret	0
?_Get_first@?$_Compressed_pair@V?$allocator@PEAVbus_device@@@std@@V?$_Vector_val@U?$_Simple_types@PEAVbus_device@@@std@@@2@$00@std@@QEBAAEBV?$allocator@PEAVbus_device@@@2@XZ ENDP ; std::_Compressed_pair<std::allocator<bus_device *>,std::_Vector_val<std::_Simple_types<bus_device *> >,1>::_Get_first
_TEXT	ENDS
; Function compile flags: /Odtp /RTCsu /ZI
; File c:\program files (x86)\microsoft visual studio\2017\community\vc\tools\msvc\14.16.27023\include\xutility
;	COMDAT ?_Get_first@?$_Compressed_pair@V?$allocator@PEAVbus_device@@@std@@V?$_Vector_val@U?$_Simple_types@PEAVbus_device@@@std@@@2@$00@std@@QEAAAEAV?$allocator@PEAVbus_device@@@2@XZ
_TEXT	SEGMENT
$T1 = 200
this$ = 256
?_Get_first@?$_Compressed_pair@V?$allocator@PEAVbus_device@@@std@@V?$_Vector_val@U?$_Simple_types@PEAVbus_device@@@std@@@2@$00@std@@QEAAAEAV?$allocator@PEAVbus_device@@@2@XZ PROC ; std::_Compressed_pair<std::allocator<bus_device *>,std::_Vector_val<std::_Simple_types<bus_device *> >,1>::_Get_first, COMDAT

; 291  : 		{	// return reference to first

$LN3:
	mov	QWORD PTR [rsp+8], rcx
	push	rbp
	push	rdi
	sub	rsp, 264				; 00000108H
	lea	rbp, QWORD PTR [rsp+32]
	mov	rdi, rsp
	mov	ecx, 66					; 00000042H
	mov	eax, -858993460				; ccccccccH
	rep stosd
	mov	rcx, QWORD PTR [rsp+296]
	mov	QWORD PTR $T1[rbp], -2
	lea	rcx, OFFSET FLAT:__CDB00636_xutility
	call	__CheckForDebuggerJustMyCode
	npad	1

; 292  : 		return (*this);

	mov	rax, QWORD PTR this$[rbp]

; 293  : 		}

	lea	rsp, QWORD PTR [rbp+232]
	pop	rdi
	pop	rbp
	ret	0
?_Get_first@?$_Compressed_pair@V?$allocator@PEAVbus_device@@@std@@V?$_Vector_val@U?$_Simple_types@PEAVbus_device@@@std@@@2@$00@std@@QEAAAEAV?$allocator@PEAVbus_device@@@2@XZ ENDP ; std::_Compressed_pair<std::allocator<bus_device *>,std::_Vector_val<std::_Simple_types<bus_device *> >,1>::_Get_first
_TEXT	ENDS
; Function compile flags: /Odtp /RTCsu /ZI
; File c:\program files (x86)\microsoft visual studio\2017\community\vc\tools\msvc\14.16.27023\include\vector
;	COMDAT ??0?$_Vector_val@U?$_Simple_types@PEAVbus_device@@@std@@@std@@QEAA@XZ
_TEXT	SEGMENT
this$ = 224
??0?$_Vector_val@U?$_Simple_types@PEAVbus_device@@@std@@@std@@QEAA@XZ PROC ; std::_Vector_val<std::_Simple_types<bus_device *> >::_Vector_val<std::_Simple_types<bus_device *> >, COMDAT

; 392  : 		{	// initialize values

$LN3:
	mov	QWORD PTR [rsp+8], rcx
	push	rbp
	push	rdi
	sub	rsp, 232				; 000000e8H
	lea	rbp, QWORD PTR [rsp+32]
	mov	rdi, rsp
	mov	ecx, 58					; 0000003aH
	mov	eax, -858993460				; ccccccccH
	rep stosd
	mov	rcx, QWORD PTR [rsp+264]
	lea	rcx, OFFSET FLAT:__FF7D7337_vector
	call	__CheckForDebuggerJustMyCode
	mov	rcx, QWORD PTR this$[rbp]
	call	??0_Container_base12@std@@QEAA@XZ	; std::_Container_base12::_Container_base12

; 389  : 		: _Myfirst(),

	mov	rax, QWORD PTR this$[rbp]
	mov	QWORD PTR [rax+8], 0

; 390  : 		_Mylast(),

	mov	rax, QWORD PTR this$[rbp]
	mov	QWORD PTR [rax+16], 0

; 391  : 		_Myend()

	mov	rax, QWORD PTR this$[rbp]
	mov	QWORD PTR [rax+24], 0

; 393  : 		}

	mov	rax, QWORD PTR this$[rbp]
	lea	rsp, QWORD PTR [rbp+200]
	pop	rdi
	pop	rbp
	ret	0
??0?$_Vector_val@U?$_Simple_types@PEAVbus_device@@@std@@@std@@QEAA@XZ ENDP ; std::_Vector_val<std::_Simple_types<bus_device *> >::_Vector_val<std::_Simple_types<bus_device *> >
_TEXT	ENDS
; Function compile flags: /Odtp /RTCsu /ZI
; File c:\program files (x86)\microsoft visual studio\2017\community\vc\tools\msvc\14.16.27023\include\vector
;	COMDAT ?_Myend@?$_Vector_alloc@U?$_Vec_base_types@PEAVbus_device@@V?$allocator@PEAVbus_device@@@std@@@std@@@std@@QEBAAEBQEAPEAVbus_device@@XZ
_TEXT	SEGMENT
$T1 = 200
this$ = 256
?_Myend@?$_Vector_alloc@U?$_Vec_base_types@PEAVbus_device@@V?$allocator@PEAVbus_device@@@std@@@std@@@std@@QEBAAEBQEAPEAVbus_device@@XZ PROC ; std::_Vector_alloc<std::_Vec_base_types<bus_device *,std::allocator<bus_device *> > >::_Myend, COMDAT

; 600  : 		{	// return const reference to _Myend

$LN3:
	mov	QWORD PTR [rsp+8], rcx
	push	rbp
	push	rdi
	sub	rsp, 264				; 00000108H
	lea	rbp, QWORD PTR [rsp+32]
	mov	rdi, rsp
	mov	ecx, 66					; 00000042H
	mov	eax, -858993460				; ccccccccH
	rep stosd
	mov	rcx, QWORD PTR [rsp+296]
	mov	QWORD PTR $T1[rbp], -2
	lea	rcx, OFFSET FLAT:__FF7D7337_vector
	call	__CheckForDebuggerJustMyCode
	npad	1

; 601  : 		return (_Get_data()._Myend);

	mov	rcx, QWORD PTR this$[rbp]
	call	?_Get_data@?$_Vector_alloc@U?$_Vec_base_types@PEAVbus_device@@V?$allocator@PEAVbus_device@@@std@@@std@@@std@@QEBAAEBV?$_Vector_val@U?$_Simple_types@PEAVbus_device@@@std@@@2@XZ ; std::_Vector_alloc<std::_Vec_base_types<bus_device *,std::allocator<bus_device *> > >::_Get_data
	npad	1
	add	rax, 24

; 602  : 		}

	lea	rsp, QWORD PTR [rbp+232]
	pop	rdi
	pop	rbp
	ret	0
?_Myend@?$_Vector_alloc@U?$_Vec_base_types@PEAVbus_device@@V?$allocator@PEAVbus_device@@@std@@@std@@@std@@QEBAAEBQEAPEAVbus_device@@XZ ENDP ; std::_Vector_alloc<std::_Vec_base_types<bus_device *,std::allocator<bus_device *> > >::_Myend
_TEXT	ENDS
; Function compile flags: /Odtp /RTCsu /ZI
; File c:\program files (x86)\microsoft visual studio\2017\community\vc\tools\msvc\14.16.27023\include\vector
;	COMDAT ?_Myend@?$_Vector_alloc@U?$_Vec_base_types@PEAVbus_device@@V?$allocator@PEAVbus_device@@@std@@@std@@@std@@QEAAAEAPEAPEAVbus_device@@XZ
_TEXT	SEGMENT
$T1 = 200
this$ = 256
?_Myend@?$_Vector_alloc@U?$_Vec_base_types@PEAVbus_device@@V?$allocator@PEAVbus_device@@@std@@@std@@@std@@QEAAAEAPEAPEAVbus_device@@XZ PROC ; std::_Vector_alloc<std::_Vec_base_types<bus_device *,std::allocator<bus_device *> > >::_Myend, COMDAT

; 595  : 		{	// return reference to _Myend

$LN3:
	mov	QWORD PTR [rsp+8], rcx
	push	rbp
	push	rdi
	sub	rsp, 264				; 00000108H
	lea	rbp, QWORD PTR [rsp+32]
	mov	rdi, rsp
	mov	ecx, 66					; 00000042H
	mov	eax, -858993460				; ccccccccH
	rep stosd
	mov	rcx, QWORD PTR [rsp+296]
	mov	QWORD PTR $T1[rbp], -2
	lea	rcx, OFFSET FLAT:__FF7D7337_vector
	call	__CheckForDebuggerJustMyCode
	npad	1

; 596  : 		return (_Get_data()._Myend);

	mov	rcx, QWORD PTR this$[rbp]
	call	?_Get_data@?$_Vector_alloc@U?$_Vec_base_types@PEAVbus_device@@V?$allocator@PEAVbus_device@@@std@@@std@@@std@@QEAAAEAV?$_Vector_val@U?$_Simple_types@PEAVbus_device@@@std@@@2@XZ ; std::_Vector_alloc<std::_Vec_base_types<bus_device *,std::allocator<bus_device *> > >::_Get_data
	npad	1
	add	rax, 24

; 597  : 		}

	lea	rsp, QWORD PTR [rbp+232]
	pop	rdi
	pop	rbp
	ret	0
?_Myend@?$_Vector_alloc@U?$_Vec_base_types@PEAVbus_device@@V?$allocator@PEAVbus_device@@@std@@@std@@@std@@QEAAAEAPEAPEAVbus_device@@XZ ENDP ; std::_Vector_alloc<std::_Vec_base_types<bus_device *,std::allocator<bus_device *> > >::_Myend
_TEXT	ENDS
; Function compile flags: /Odtp /RTCsu /ZI
; File c:\program files (x86)\microsoft visual studio\2017\community\vc\tools\msvc\14.16.27023\include\vector
;	COMDAT ?_Mylast@?$_Vector_alloc@U?$_Vec_base_types@PEAVbus_device@@V?$allocator@PEAVbus_device@@@std@@@std@@@std@@QEBAAEBQEAPEAVbus_device@@XZ
_TEXT	SEGMENT
$T1 = 200
this$ = 256
?_Mylast@?$_Vector_alloc@U?$_Vec_base_types@PEAVbus_device@@V?$allocator@PEAVbus_device@@@std@@@std@@@std@@QEBAAEBQEAPEAVbus_device@@XZ PROC ; std::_Vector_alloc<std::_Vec_base_types<bus_device *,std::allocator<bus_device *> > >::_Mylast, COMDAT

; 590  : 		{	// return const reference to _Mylast

$LN3:
	mov	QWORD PTR [rsp+8], rcx
	push	rbp
	push	rdi
	sub	rsp, 264				; 00000108H
	lea	rbp, QWORD PTR [rsp+32]
	mov	rdi, rsp
	mov	ecx, 66					; 00000042H
	mov	eax, -858993460				; ccccccccH
	rep stosd
	mov	rcx, QWORD PTR [rsp+296]
	mov	QWORD PTR $T1[rbp], -2
	lea	rcx, OFFSET FLAT:__FF7D7337_vector
	call	__CheckForDebuggerJustMyCode
	npad	1

; 591  : 		return (_Get_data()._Mylast);

	mov	rcx, QWORD PTR this$[rbp]
	call	?_Get_data@?$_Vector_alloc@U?$_Vec_base_types@PEAVbus_device@@V?$allocator@PEAVbus_device@@@std@@@std@@@std@@QEBAAEBV?$_Vector_val@U?$_Simple_types@PEAVbus_device@@@std@@@2@XZ ; std::_Vector_alloc<std::_Vec_base_types<bus_device *,std::allocator<bus_device *> > >::_Get_data
	npad	1
	add	rax, 16

; 592  : 		}

	lea	rsp, QWORD PTR [rbp+232]
	pop	rdi
	pop	rbp
	ret	0
?_Mylast@?$_Vector_alloc@U?$_Vec_base_types@PEAVbus_device@@V?$allocator@PEAVbus_device@@@std@@@std@@@std@@QEBAAEBQEAPEAVbus_device@@XZ ENDP ; std::_Vector_alloc<std::_Vec_base_types<bus_device *,std::allocator<bus_device *> > >::_Mylast
_TEXT	ENDS
; Function compile flags: /Odtp /RTCsu /ZI
; File c:\program files (x86)\microsoft visual studio\2017\community\vc\tools\msvc\14.16.27023\include\vector
;	COMDAT ?_Mylast@?$_Vector_alloc@U?$_Vec_base_types@PEAVbus_device@@V?$allocator@PEAVbus_device@@@std@@@std@@@std@@QEAAAEAPEAPEAVbus_device@@XZ
_TEXT	SEGMENT
$T1 = 200
this$ = 256
?_Mylast@?$_Vector_alloc@U?$_Vec_base_types@PEAVbus_device@@V?$allocator@PEAVbus_device@@@std@@@std@@@std@@QEAAAEAPEAPEAVbus_device@@XZ PROC ; std::_Vector_alloc<std::_Vec_base_types<bus_device *,std::allocator<bus_device *> > >::_Mylast, COMDAT

; 585  : 		{	// return reference to _Mylast

$LN3:
	mov	QWORD PTR [rsp+8], rcx
	push	rbp
	push	rdi
	sub	rsp, 264				; 00000108H
	lea	rbp, QWORD PTR [rsp+32]
	mov	rdi, rsp
	mov	ecx, 66					; 00000042H
	mov	eax, -858993460				; ccccccccH
	rep stosd
	mov	rcx, QWORD PTR [rsp+296]
	mov	QWORD PTR $T1[rbp], -2
	lea	rcx, OFFSET FLAT:__FF7D7337_vector
	call	__CheckForDebuggerJustMyCode
	npad	1

; 586  : 		return (_Get_data()._Mylast);

	mov	rcx, QWORD PTR this$[rbp]
	call	?_Get_data@?$_Vector_alloc@U?$_Vec_base_types@PEAVbus_device@@V?$allocator@PEAVbus_device@@@std@@@std@@@std@@QEAAAEAV?$_Vector_val@U?$_Simple_types@PEAVbus_device@@@std@@@2@XZ ; std::_Vector_alloc<std::_Vec_base_types<bus_device *,std::allocator<bus_device *> > >::_Get_data
	npad	1
	add	rax, 16

; 587  : 		}

	lea	rsp, QWORD PTR [rbp+232]
	pop	rdi
	pop	rbp
	ret	0
?_Mylast@?$_Vector_alloc@U?$_Vec_base_types@PEAVbus_device@@V?$allocator@PEAVbus_device@@@std@@@std@@@std@@QEAAAEAPEAPEAVbus_device@@XZ ENDP ; std::_Vector_alloc<std::_Vec_base_types<bus_device *,std::allocator<bus_device *> > >::_Mylast
_TEXT	ENDS
; Function compile flags: /Odtp /RTCsu /ZI
; File c:\program files (x86)\microsoft visual studio\2017\community\vc\tools\msvc\14.16.27023\include\vector
;	COMDAT ?_Myfirst@?$_Vector_alloc@U?$_Vec_base_types@PEAVbus_device@@V?$allocator@PEAVbus_device@@@std@@@std@@@std@@QEBAAEBQEAPEAVbus_device@@XZ
_TEXT	SEGMENT
$T1 = 200
this$ = 256
?_Myfirst@?$_Vector_alloc@U?$_Vec_base_types@PEAVbus_device@@V?$allocator@PEAVbus_device@@@std@@@std@@@std@@QEBAAEBQEAPEAVbus_device@@XZ PROC ; std::_Vector_alloc<std::_Vec_base_types<bus_device *,std::allocator<bus_device *> > >::_Myfirst, COMDAT

; 580  : 		{	// return const reference to _Myfirst

$LN3:
	mov	QWORD PTR [rsp+8], rcx
	push	rbp
	push	rdi
	sub	rsp, 264				; 00000108H
	lea	rbp, QWORD PTR [rsp+32]
	mov	rdi, rsp
	mov	ecx, 66					; 00000042H
	mov	eax, -858993460				; ccccccccH
	rep stosd
	mov	rcx, QWORD PTR [rsp+296]
	mov	QWORD PTR $T1[rbp], -2
	lea	rcx, OFFSET FLAT:__FF7D7337_vector
	call	__CheckForDebuggerJustMyCode
	npad	1

; 581  : 		return (_Get_data()._Myfirst);

	mov	rcx, QWORD PTR this$[rbp]
	call	?_Get_data@?$_Vector_alloc@U?$_Vec_base_types@PEAVbus_device@@V?$allocator@PEAVbus_device@@@std@@@std@@@std@@QEBAAEBV?$_Vector_val@U?$_Simple_types@PEAVbus_device@@@std@@@2@XZ ; std::_Vector_alloc<std::_Vec_base_types<bus_device *,std::allocator<bus_device *> > >::_Get_data
	npad	1
	add	rax, 8

; 582  : 		}

	lea	rsp, QWORD PTR [rbp+232]
	pop	rdi
	pop	rbp
	ret	0
?_Myfirst@?$_Vector_alloc@U?$_Vec_base_types@PEAVbus_device@@V?$allocator@PEAVbus_device@@@std@@@std@@@std@@QEBAAEBQEAPEAVbus_device@@XZ ENDP ; std::_Vector_alloc<std::_Vec_base_types<bus_device *,std::allocator<bus_device *> > >::_Myfirst
_TEXT	ENDS
; Function compile flags: /Odtp /RTCsu /ZI
; File c:\program files (x86)\microsoft visual studio\2017\community\vc\tools\msvc\14.16.27023\include\vector
;	COMDAT ?_Myfirst@?$_Vector_alloc@U?$_Vec_base_types@PEAVbus_device@@V?$allocator@PEAVbus_device@@@std@@@std@@@std@@QEAAAEAPEAPEAVbus_device@@XZ
_TEXT	SEGMENT
$T1 = 200
this$ = 256
?_Myfirst@?$_Vector_alloc@U?$_Vec_base_types@PEAVbus_device@@V?$allocator@PEAVbus_device@@@std@@@std@@@std@@QEAAAEAPEAPEAVbus_device@@XZ PROC ; std::_Vector_alloc<std::_Vec_base_types<bus_device *,std::allocator<bus_device *> > >::_Myfirst, COMDAT

; 575  : 		{	// return reference to _Myfirst

$LN3:
	mov	QWORD PTR [rsp+8], rcx
	push	rbp
	push	rdi
	sub	rsp, 264				; 00000108H
	lea	rbp, QWORD PTR [rsp+32]
	mov	rdi, rsp
	mov	ecx, 66					; 00000042H
	mov	eax, -858993460				; ccccccccH
	rep stosd
	mov	rcx, QWORD PTR [rsp+296]
	mov	QWORD PTR $T1[rbp], -2
	lea	rcx, OFFSET FLAT:__FF7D7337_vector
	call	__CheckForDebuggerJustMyCode
	npad	1

; 576  : 		return (_Get_data()._Myfirst);

	mov	rcx, QWORD PTR this$[rbp]
	call	?_Get_data@?$_Vector_alloc@U?$_Vec_base_types@PEAVbus_device@@V?$allocator@PEAVbus_device@@@std@@@std@@@std@@QEAAAEAV?$_Vector_val@U?$_Simple_types@PEAVbus_device@@@std@@@2@XZ ; std::_Vector_alloc<std::_Vec_base_types<bus_device *,std::allocator<bus_device *> > >::_Get_data
	npad	1
	add	rax, 8

; 577  : 		}

	lea	rsp, QWORD PTR [rbp+232]
	pop	rdi
	pop	rbp
	ret	0
?_Myfirst@?$_Vector_alloc@U?$_Vec_base_types@PEAVbus_device@@V?$allocator@PEAVbus_device@@@std@@@std@@@std@@QEAAAEAPEAPEAVbus_device@@XZ ENDP ; std::_Vector_alloc<std::_Vec_base_types<bus_device *,std::allocator<bus_device *> > >::_Myfirst
_TEXT	ENDS
; Function compile flags: /Odtp /RTCsu /ZI
; File c:\program files (x86)\microsoft visual studio\2017\community\vc\tools\msvc\14.16.27023\include\vector
;	COMDAT ?_Get_data@?$_Vector_alloc@U?$_Vec_base_types@PEAVbus_device@@V?$allocator@PEAVbus_device@@@std@@@std@@@std@@QEBAAEBV?$_Vector_val@U?$_Simple_types@PEAVbus_device@@@std@@@2@XZ
_TEXT	SEGMENT
$T1 = 200
this$ = 256
?_Get_data@?$_Vector_alloc@U?$_Vec_base_types@PEAVbus_device@@V?$allocator@PEAVbus_device@@@std@@@std@@@std@@QEBAAEBV?$_Vector_val@U?$_Simple_types@PEAVbus_device@@@std@@@2@XZ PROC ; std::_Vector_alloc<std::_Vec_base_types<bus_device *,std::allocator<bus_device *> > >::_Get_data, COMDAT

; 559  : 		{	// return const reference to _Vector_val

$LN3:
	mov	QWORD PTR [rsp+8], rcx
	push	rbp
	push	rdi
	sub	rsp, 264				; 00000108H
	lea	rbp, QWORD PTR [rsp+32]
	mov	rdi, rsp
	mov	ecx, 66					; 00000042H
	mov	eax, -858993460				; ccccccccH
	rep stosd
	mov	rcx, QWORD PTR [rsp+296]
	mov	QWORD PTR $T1[rbp], -2
	lea	rcx, OFFSET FLAT:__FF7D7337_vector
	call	__CheckForDebuggerJustMyCode
	npad	1

; 560  : 		return (_Mypair._Get_second());

	mov	rax, QWORD PTR this$[rbp]
	mov	rcx, rax
	call	?_Get_second@?$_Compressed_pair@V?$allocator@PEAVbus_device@@@std@@V?$_Vector_val@U?$_Simple_types@PEAVbus_device@@@std@@@2@$00@std@@QEBAAEBV?$_Vector_val@U?$_Simple_types@PEAVbus_device@@@std@@@2@XZ ; std::_Compressed_pair<std::allocator<bus_device *>,std::_Vector_val<std::_Simple_types<bus_device *> >,1>::_Get_second
	npad	1

; 561  : 		}

	lea	rsp, QWORD PTR [rbp+232]
	pop	rdi
	pop	rbp
	ret	0
?_Get_data@?$_Vector_alloc@U?$_Vec_base_types@PEAVbus_device@@V?$allocator@PEAVbus_device@@@std@@@std@@@std@@QEBAAEBV?$_Vector_val@U?$_Simple_types@PEAVbus_device@@@std@@@2@XZ ENDP ; std::_Vector_alloc<std::_Vec_base_types<bus_device *,std::allocator<bus_device *> > >::_Get_data
_TEXT	ENDS
; Function compile flags: /Odtp /RTCsu /ZI
; File c:\program files (x86)\microsoft visual studio\2017\community\vc\tools\msvc\14.16.27023\include\vector
;	COMDAT ?_Get_data@?$_Vector_alloc@U?$_Vec_base_types@PEAVbus_device@@V?$allocator@PEAVbus_device@@@std@@@std@@@std@@QEAAAEAV?$_Vector_val@U?$_Simple_types@PEAVbus_device@@@std@@@2@XZ
_TEXT	SEGMENT
$T1 = 200
this$ = 256
?_Get_data@?$_Vector_alloc@U?$_Vec_base_types@PEAVbus_device@@V?$allocator@PEAVbus_device@@@std@@@std@@@std@@QEAAAEAV?$_Vector_val@U?$_Simple_types@PEAVbus_device@@@std@@@2@XZ PROC ; std::_Vector_alloc<std::_Vec_base_types<bus_device *,std::allocator<bus_device *> > >::_Get_data, COMDAT

; 554  : 		{	// return reference to _Vector_val

$LN3:
	mov	QWORD PTR [rsp+8], rcx
	push	rbp
	push	rdi
	sub	rsp, 264				; 00000108H
	lea	rbp, QWORD PTR [rsp+32]
	mov	rdi, rsp
	mov	ecx, 66					; 00000042H
	mov	eax, -858993460				; ccccccccH
	rep stosd
	mov	rcx, QWORD PTR [rsp+296]
	mov	QWORD PTR $T1[rbp], -2
	lea	rcx, OFFSET FLAT:__FF7D7337_vector
	call	__CheckForDebuggerJustMyCode
	npad	1

; 555  : 		return (_Mypair._Get_second());

	mov	rax, QWORD PTR this$[rbp]
	mov	rcx, rax
	call	?_Get_second@?$_Compressed_pair@V?$allocator@PEAVbus_device@@@std@@V?$_Vector_val@U?$_Simple_types@PEAVbus_device@@@std@@@2@$00@std@@QEAAAEAV?$_Vector_val@U?$_Simple_types@PEAVbus_device@@@std@@@2@XZ ; std::_Compressed_pair<std::allocator<bus_device *>,std::_Vector_val<std::_Simple_types<bus_device *> >,1>::_Get_second
	npad	1

; 556  : 		}

	lea	rsp, QWORD PTR [rbp+232]
	pop	rdi
	pop	rbp
	ret	0
?_Get_data@?$_Vector_alloc@U?$_Vec_base_types@PEAVbus_device@@V?$allocator@PEAVbus_device@@@std@@@std@@@std@@QEAAAEAV?$_Vector_val@U?$_Simple_types@PEAVbus_device@@@std@@@2@XZ ENDP ; std::_Vector_alloc<std::_Vec_base_types<bus_device *,std::allocator<bus_device *> > >::_Get_data
_TEXT	ENDS
; Function compile flags: /Odtp /RTCsu /ZI
; File c:\program files (x86)\microsoft visual studio\2017\community\vc\tools\msvc\14.16.27023\include\vector
;	COMDAT ?_Getal@?$_Vector_alloc@U?$_Vec_base_types@PEAVbus_device@@V?$allocator@PEAVbus_device@@@std@@@std@@@std@@QEBAAEBV?$allocator@PEAVbus_device@@@2@XZ
_TEXT	SEGMENT
$T1 = 200
this$ = 256
?_Getal@?$_Vector_alloc@U?$_Vec_base_types@PEAVbus_device@@V?$allocator@PEAVbus_device@@@std@@@std@@@std@@QEBAAEBV?$allocator@PEAVbus_device@@@2@XZ PROC ; std::_Vector_alloc<std::_Vec_base_types<bus_device *,std::allocator<bus_device *> > >::_Getal, COMDAT

; 549  : 		{	// return const reference to allocator

$LN3:
	mov	QWORD PTR [rsp+8], rcx
	push	rbp
	push	rdi
	sub	rsp, 264				; 00000108H
	lea	rbp, QWORD PTR [rsp+32]
	mov	rdi, rsp
	mov	ecx, 66					; 00000042H
	mov	eax, -858993460				; ccccccccH
	rep stosd
	mov	rcx, QWORD PTR [rsp+296]
	mov	QWORD PTR $T1[rbp], -2
	lea	rcx, OFFSET FLAT:__FF7D7337_vector
	call	__CheckForDebuggerJustMyCode
	npad	1

; 550  : 		return (_Mypair._Get_first());

	mov	rax, QWORD PTR this$[rbp]
	mov	rcx, rax
	call	?_Get_first@?$_Compressed_pair@V?$allocator@PEAVbus_device@@@std@@V?$_Vector_val@U?$_Simple_types@PEAVbus_device@@@std@@@2@$00@std@@QEBAAEBV?$allocator@PEAVbus_device@@@2@XZ ; std::_Compressed_pair<std::allocator<bus_device *>,std::_Vector_val<std::_Simple_types<bus_device *> >,1>::_Get_first
	npad	1

; 551  : 		}

	lea	rsp, QWORD PTR [rbp+232]
	pop	rdi
	pop	rbp
	ret	0
?_Getal@?$_Vector_alloc@U?$_Vec_base_types@PEAVbus_device@@V?$allocator@PEAVbus_device@@@std@@@std@@@std@@QEBAAEBV?$allocator@PEAVbus_device@@@2@XZ ENDP ; std::_Vector_alloc<std::_Vec_base_types<bus_device *,std::allocator<bus_device *> > >::_Getal
_TEXT	ENDS
; Function compile flags: /Odtp /RTCsu /ZI
; File c:\program files (x86)\microsoft visual studio\2017\community\vc\tools\msvc\14.16.27023\include\vector
;	COMDAT ?_Getal@?$_Vector_alloc@U?$_Vec_base_types@PEAVbus_device@@V?$allocator@PEAVbus_device@@@std@@@std@@@std@@QEAAAEAV?$allocator@PEAVbus_device@@@2@XZ
_TEXT	SEGMENT
$T1 = 200
this$ = 256
?_Getal@?$_Vector_alloc@U?$_Vec_base_types@PEAVbus_device@@V?$allocator@PEAVbus_device@@@std@@@std@@@std@@QEAAAEAV?$allocator@PEAVbus_device@@@2@XZ PROC ; std::_Vector_alloc<std::_Vec_base_types<bus_device *,std::allocator<bus_device *> > >::_Getal, COMDAT

; 544  : 		{	// return reference to allocator

$LN3:
	mov	QWORD PTR [rsp+8], rcx
	push	rbp
	push	rdi
	sub	rsp, 264				; 00000108H
	lea	rbp, QWORD PTR [rsp+32]
	mov	rdi, rsp
	mov	ecx, 66					; 00000042H
	mov	eax, -858993460				; ccccccccH
	rep stosd
	mov	rcx, QWORD PTR [rsp+296]
	mov	QWORD PTR $T1[rbp], -2
	lea	rcx, OFFSET FLAT:__FF7D7337_vector
	call	__CheckForDebuggerJustMyCode
	npad	1

; 545  : 		return (_Mypair._Get_first());

	mov	rax, QWORD PTR this$[rbp]
	mov	rcx, rax
	call	?_Get_first@?$_Compressed_pair@V?$allocator@PEAVbus_device@@@std@@V?$_Vector_val@U?$_Simple_types@PEAVbus_device@@@std@@@2@$00@std@@QEAAAEAV?$allocator@PEAVbus_device@@@2@XZ ; std::_Compressed_pair<std::allocator<bus_device *>,std::_Vector_val<std::_Simple_types<bus_device *> >,1>::_Get_first
	npad	1

; 546  : 		}

	lea	rsp, QWORD PTR [rbp+232]
	pop	rdi
	pop	rbp
	ret	0
?_Getal@?$_Vector_alloc@U?$_Vec_base_types@PEAVbus_device@@V?$allocator@PEAVbus_device@@@std@@@std@@@std@@QEAAAEAV?$allocator@PEAVbus_device@@@2@XZ ENDP ; std::_Vector_alloc<std::_Vec_base_types<bus_device *,std::allocator<bus_device *> > >::_Getal
_TEXT	ENDS
; Function compile flags: /Odtp /RTCsu /ZI
; File c:\program files (x86)\microsoft visual studio\2017\community\vc\tools\msvc\14.16.27023\include\vector
;	COMDAT ?_Orphan_all@?$_Vector_alloc@U?$_Vec_base_types@PEAVbus_device@@V?$allocator@PEAVbus_device@@@std@@@std@@@std@@QEAAXXZ
_TEXT	SEGMENT
this$ = 224
?_Orphan_all@?$_Vector_alloc@U?$_Vec_base_types@PEAVbus_device@@V?$allocator@PEAVbus_device@@@std@@@std@@@std@@QEAAXXZ PROC ; std::_Vector_alloc<std::_Vec_base_types<bus_device *,std::allocator<bus_device *> > >::_Orphan_all, COMDAT

; 534  : 		{	// orphan all iterators

$LN3:
	mov	QWORD PTR [rsp+8], rcx
	push	rbp
	push	rdi
	sub	rsp, 232				; 000000e8H
	lea	rbp, QWORD PTR [rsp+32]
	mov	rdi, rsp
	mov	ecx, 58					; 0000003aH
	mov	eax, -858993460				; ccccccccH
	rep stosd
	mov	rcx, QWORD PTR [rsp+264]
	lea	rcx, OFFSET FLAT:__FF7D7337_vector
	call	__CheckForDebuggerJustMyCode

; 535  : 		_Get_data()._Orphan_all();

	mov	rcx, QWORD PTR this$[rbp]
	call	?_Get_data@?$_Vector_alloc@U?$_Vec_base_types@PEAVbus_device@@V?$allocator@PEAVbus_device@@@std@@@std@@@std@@QEAAAEAV?$_Vector_val@U?$_Simple_types@PEAVbus_device@@@std@@@2@XZ ; std::_Vector_alloc<std::_Vec_base_types<bus_device *,std::allocator<bus_device *> > >::_Get_data
	mov	rcx, rax
	call	?_Orphan_all@_Container_base12@std@@QEAAXXZ ; std::_Container_base12::_Orphan_all

; 536  : 		}

	lea	rsp, QWORD PTR [rbp+200]
	pop	rdi
	pop	rbp
	ret	0
?_Orphan_all@?$_Vector_alloc@U?$_Vec_base_types@PEAVbus_device@@V?$allocator@PEAVbus_device@@@std@@@std@@@std@@QEAAXXZ ENDP ; std::_Vector_alloc<std::_Vec_base_types<bus_device *,std::allocator<bus_device *> > >::_Orphan_all
_TEXT	ENDS
; Function compile flags: /Odtp /RTCsu /ZI
; File c:\program files (x86)\microsoft visual studio\2017\community\vc\tools\msvc\14.16.27023\include\vector
;	COMDAT ?_Myproxy@?$_Vector_alloc@U?$_Vec_base_types@PEAVbus_device@@V?$allocator@PEAVbus_device@@@std@@@std@@@std@@QEAAAEAPEAU_Container_proxy@2@XZ
_TEXT	SEGMENT
$T1 = 200
this$ = 256
?_Myproxy@?$_Vector_alloc@U?$_Vec_base_types@PEAVbus_device@@V?$allocator@PEAVbus_device@@@std@@@std@@@std@@QEAAAEAPEAU_Container_proxy@2@XZ PROC ; std::_Vector_alloc<std::_Vec_base_types<bus_device *,std::allocator<bus_device *> > >::_Myproxy, COMDAT

; 523  : 		{	// return reference to _Myproxy

$LN3:
	mov	QWORD PTR [rsp+8], rcx
	push	rbp
	push	rdi
	sub	rsp, 264				; 00000108H
	lea	rbp, QWORD PTR [rsp+32]
	mov	rdi, rsp
	mov	ecx, 66					; 00000042H
	mov	eax, -858993460				; ccccccccH
	rep stosd
	mov	rcx, QWORD PTR [rsp+296]
	mov	QWORD PTR $T1[rbp], -2
	lea	rcx, OFFSET FLAT:__FF7D7337_vector
	call	__CheckForDebuggerJustMyCode
	npad	1

; 524  : 		return (_Get_data()._Myproxy);

	mov	rcx, QWORD PTR this$[rbp]
	call	?_Get_data@?$_Vector_alloc@U?$_Vec_base_types@PEAVbus_device@@V?$allocator@PEAVbus_device@@@std@@@std@@@std@@QEAAAEAV?$_Vector_val@U?$_Simple_types@PEAVbus_device@@@std@@@2@XZ ; std::_Vector_alloc<std::_Vec_base_types<bus_device *,std::allocator<bus_device *> > >::_Get_data
	npad	1

; 525  : 		}

	lea	rsp, QWORD PTR [rbp+232]
	pop	rdi
	pop	rbp
	ret	0
?_Myproxy@?$_Vector_alloc@U?$_Vec_base_types@PEAVbus_device@@V?$allocator@PEAVbus_device@@@std@@@std@@@std@@QEAAAEAPEAU_Container_proxy@2@XZ ENDP ; std::_Vector_alloc<std::_Vec_base_types<bus_device *,std::allocator<bus_device *> > >::_Myproxy
_TEXT	ENDS
; Function compile flags: /Odtp /RTCsu /ZI
; File c:\program files (x86)\microsoft visual studio\2017\community\vc\tools\msvc\14.16.27023\include\vector
;	COMDAT ?_Getpfirst@?$_Vector_alloc@U?$_Vec_base_types@PEAVbus_device@@V?$allocator@PEAVbus_device@@@std@@@std@@@std@@QEBAPEAPEAU_Iterator_base12@2@XZ
_TEXT	SEGMENT
this$ = 224
?_Getpfirst@?$_Vector_alloc@U?$_Vec_base_types@PEAVbus_device@@V?$allocator@PEAVbus_device@@@std@@@std@@@std@@QEBAPEAPEAU_Iterator_base12@2@XZ PROC ; std::_Vector_alloc<std::_Vec_base_types<bus_device *,std::allocator<bus_device *> > >::_Getpfirst, COMDAT

; 518  : 		{	// get address of iterator chain

$LN3:
	mov	QWORD PTR [rsp+8], rcx
	push	rbp
	push	rdi
	sub	rsp, 232				; 000000e8H
	lea	rbp, QWORD PTR [rsp+32]
	mov	rdi, rsp
	mov	ecx, 58					; 0000003aH
	mov	eax, -858993460				; ccccccccH
	rep stosd
	mov	rcx, QWORD PTR [rsp+264]
	lea	rcx, OFFSET FLAT:__FF7D7337_vector
	call	__CheckForDebuggerJustMyCode

; 519  : 		return (_Get_data()._Getpfirst());

	mov	rcx, QWORD PTR this$[rbp]
	call	?_Get_data@?$_Vector_alloc@U?$_Vec_base_types@PEAVbus_device@@V?$allocator@PEAVbus_device@@@std@@@std@@@std@@QEBAAEBV?$_Vector_val@U?$_Simple_types@PEAVbus_device@@@std@@@2@XZ ; std::_Vector_alloc<std::_Vec_base_types<bus_device *,std::allocator<bus_device *> > >::_Get_data
	mov	rcx, rax
	call	?_Getpfirst@_Container_base12@std@@QEBAPEAPEAU_Iterator_base12@2@XZ ; std::_Container_base12::_Getpfirst

; 520  : 		}

	lea	rsp, QWORD PTR [rbp+200]
	pop	rdi
	pop	rbp
	ret	0
?_Getpfirst@?$_Vector_alloc@U?$_Vec_base_types@PEAVbus_device@@V?$allocator@PEAVbus_device@@@std@@@std@@@std@@QEBAPEAPEAU_Iterator_base12@2@XZ ENDP ; std::_Vector_alloc<std::_Vec_base_types<bus_device *,std::allocator<bus_device *> > >::_Getpfirst
_TEXT	ENDS
; Function compile flags: /Odtp /RTCsu /ZI
; File c:\program files (x86)\microsoft visual studio\2017\community\vc\tools\msvc\14.16.27023\include\vector
;	COMDAT ?_Free_proxy@?$_Vector_alloc@U?$_Vec_base_types@PEAVbus_device@@V?$allocator@PEAVbus_device@@@std@@@std@@@std@@QEAAXXZ
_TEXT	SEGMENT
_Proxy_allocator$ = 4
__$ArrayPad$ = 216
this$ = 256
?_Free_proxy@?$_Vector_alloc@U?$_Vec_base_types@PEAVbus_device@@V?$allocator@PEAVbus_device@@@std@@@std@@@std@@QEAAXXZ PROC ; std::_Vector_alloc<std::_Vec_base_types<bus_device *,std::allocator<bus_device *> > >::_Free_proxy, COMDAT

; 509  : 		{	// destroy proxy

$LN3:
	mov	QWORD PTR [rsp+8], rcx
	push	rbp
	push	rdi
	sub	rsp, 264				; 00000108H
	lea	rbp, QWORD PTR [rsp+32]
	mov	rdi, rsp
	mov	ecx, 66					; 00000042H
	mov	eax, -858993460				; ccccccccH
	rep stosd
	mov	rcx, QWORD PTR [rsp+296]
	mov	rax, QWORD PTR __security_cookie
	xor	rax, rbp
	mov	QWORD PTR __$ArrayPad$[rbp], rax
	lea	rcx, OFFSET FLAT:__FF7D7337_vector
	call	__CheckForDebuggerJustMyCode

; 510  : 		_Alproxy _Proxy_allocator(_Getal());

	mov	rcx, QWORD PTR this$[rbp]
	call	?_Getal@?$_Vector_alloc@U?$_Vec_base_types@PEAVbus_device@@V?$allocator@PEAVbus_device@@@std@@@std@@@std@@QEAAAEAV?$allocator@PEAVbus_device@@@2@XZ ; std::_Vector_alloc<std::_Vec_base_types<bus_device *,std::allocator<bus_device *> > >::_Getal
	mov	rdx, rax
	lea	rcx, QWORD PTR _Proxy_allocator$[rbp]
	call	??$?0PEAVbus_device@@@?$allocator@U_Container_proxy@std@@@std@@QEAA@AEBV?$allocator@PEAVbus_device@@@1@@Z ; std::allocator<std::_Container_proxy>::allocator<std::_Container_proxy><bus_device *>

; 511  : 		_Orphan_all();

	mov	rcx, QWORD PTR this$[rbp]
	call	?_Orphan_all@?$_Vector_alloc@U?$_Vec_base_types@PEAVbus_device@@V?$allocator@PEAVbus_device@@@std@@@std@@@std@@QEAAXXZ ; std::_Vector_alloc<std::_Vec_base_types<bus_device *,std::allocator<bus_device *> > >::_Orphan_all

; 512  : 		_Alproxy_traits::destroy(_Proxy_allocator, _Myproxy());

	mov	rcx, QWORD PTR this$[rbp]
	call	?_Myproxy@?$_Vector_alloc@U?$_Vec_base_types@PEAVbus_device@@V?$allocator@PEAVbus_device@@@std@@@std@@@std@@QEAAAEAPEAU_Container_proxy@2@XZ ; std::_Vector_alloc<std::_Vec_base_types<bus_device *,std::allocator<bus_device *> > >::_Myproxy
	mov	rdx, QWORD PTR [rax]
	lea	rcx, QWORD PTR _Proxy_allocator$[rbp]
	call	??$destroy@U_Container_proxy@std@@@?$_Default_allocator_traits@V?$allocator@U_Container_proxy@std@@@std@@@std@@SAXAEAV?$allocator@U_Container_proxy@std@@@1@QEAU_Container_proxy@1@@Z ; std::_Default_allocator_traits<std::allocator<std::_Container_proxy> >::destroy<std::_Container_proxy>

; 513  : 		_Deallocate_plain(_Proxy_allocator, _Myproxy());

	mov	rcx, QWORD PTR this$[rbp]
	call	?_Myproxy@?$_Vector_alloc@U?$_Vec_base_types@PEAVbus_device@@V?$allocator@PEAVbus_device@@@std@@@std@@@std@@QEAAAEAPEAU_Container_proxy@2@XZ ; std::_Vector_alloc<std::_Vec_base_types<bus_device *,std::allocator<bus_device *> > >::_Myproxy
	mov	rdx, QWORD PTR [rax]
	lea	rcx, QWORD PTR _Proxy_allocator$[rbp]
	call	??$_Deallocate_plain@V?$allocator@U_Container_proxy@std@@@std@@$0A@@std@@YAXAEAV?$allocator@U_Container_proxy@std@@@0@QEAU_Container_proxy@0@@Z ; std::_Deallocate_plain<std::allocator<std::_Container_proxy>,0>

; 514  : 		_Myproxy() = nullptr;

	mov	rcx, QWORD PTR this$[rbp]
	call	?_Myproxy@?$_Vector_alloc@U?$_Vec_base_types@PEAVbus_device@@V?$allocator@PEAVbus_device@@@std@@@std@@@std@@QEAAAEAPEAU_Container_proxy@2@XZ ; std::_Vector_alloc<std::_Vec_base_types<bus_device *,std::allocator<bus_device *> > >::_Myproxy
	mov	QWORD PTR [rax], 0

; 515  : 		}

	lea	rcx, QWORD PTR [rbp-32]
	lea	rdx, OFFSET FLAT:?_Free_proxy@?$_Vector_alloc@U?$_Vec_base_types@PEAVbus_device@@V?$allocator@PEAVbus_device@@@std@@@std@@@std@@QEAAXXZ$rtcFrameData
	call	_RTC_CheckStackVars
	mov	rcx, QWORD PTR __$ArrayPad$[rbp]
	xor	rcx, rbp
	call	__security_check_cookie
	lea	rsp, QWORD PTR [rbp+232]
	pop	rdi
	pop	rbp
	ret	0
?_Free_proxy@?$_Vector_alloc@U?$_Vec_base_types@PEAVbus_device@@V?$allocator@PEAVbus_device@@@std@@@std@@@std@@QEAAXXZ ENDP ; std::_Vector_alloc<std::_Vec_base_types<bus_device *,std::allocator<bus_device *> > >::_Free_proxy
_TEXT	ENDS
; Function compile flags: /Odtp /RTCsu /ZI
; File c:\program files (x86)\microsoft visual studio\2017\community\vc\tools\msvc\14.16.27023\include\vector
;	COMDAT ?_Alloc_proxy@?$_Vector_alloc@U?$_Vec_base_types@PEAVbus_device@@V?$allocator@PEAVbus_device@@@std@@@std@@@std@@QEAAXXZ
_TEXT	SEGMENT
_Proxy_allocator$ = 4
$T4 = 232
tv91 = 264
tv79 = 264
tv70 = 264
__$ArrayPad$ = 272
this$ = 320
?_Alloc_proxy@?$_Vector_alloc@U?$_Vec_base_types@PEAVbus_device@@V?$allocator@PEAVbus_device@@@std@@@std@@@std@@QEAAXXZ PROC ; std::_Vector_alloc<std::_Vec_base_types<bus_device *,std::allocator<bus_device *> > >::_Alloc_proxy, COMDAT

; 501  : 		{	// construct proxy

$LN3:
	mov	QWORD PTR [rsp+8], rcx
	push	rbp
	push	rdi
	sub	rsp, 328				; 00000148H
	lea	rbp, QWORD PTR [rsp+32]
	mov	rdi, rsp
	mov	ecx, 82					; 00000052H
	mov	eax, -858993460				; ccccccccH
	rep stosd
	mov	rcx, QWORD PTR [rsp+360]
	mov	rax, QWORD PTR __security_cookie
	xor	rax, rbp
	mov	QWORD PTR __$ArrayPad$[rbp], rax
	lea	rcx, OFFSET FLAT:__FF7D7337_vector
	call	__CheckForDebuggerJustMyCode

; 502  : 		_Alproxy _Proxy_allocator(_Getal());

	mov	rcx, QWORD PTR this$[rbp]
	call	?_Getal@?$_Vector_alloc@U?$_Vec_base_types@PEAVbus_device@@V?$allocator@PEAVbus_device@@@std@@@std@@@std@@QEAAAEAV?$allocator@PEAVbus_device@@@2@XZ ; std::_Vector_alloc<std::_Vec_base_types<bus_device *,std::allocator<bus_device *> > >::_Getal
	mov	rdx, rax
	lea	rcx, QWORD PTR _Proxy_allocator$[rbp]
	call	??$?0PEAVbus_device@@@?$allocator@U_Container_proxy@std@@@std@@QEAA@AEBV?$allocator@PEAVbus_device@@@1@@Z ; std::allocator<std::_Container_proxy>::allocator<std::_Container_proxy><bus_device *>

; 503  : 		_Myproxy() = _Unfancy(_Proxy_allocator.allocate(1));

	mov	edx, 1
	lea	rcx, QWORD PTR _Proxy_allocator$[rbp]
	call	?allocate@?$allocator@U_Container_proxy@std@@@std@@QEAAPEAU_Container_proxy@2@_K@Z ; std::allocator<std::_Container_proxy>::allocate
	mov	rcx, rax
	call	??$_Unfancy@U_Container_proxy@std@@@std@@YAPEAU_Container_proxy@0@PEAU10@@Z ; std::_Unfancy<std::_Container_proxy>
	mov	QWORD PTR tv70[rbp], rax
	mov	rcx, QWORD PTR this$[rbp]
	call	?_Myproxy@?$_Vector_alloc@U?$_Vec_base_types@PEAVbus_device@@V?$allocator@PEAVbus_device@@@std@@@std@@@std@@QEAAAEAPEAU_Container_proxy@2@XZ ; std::_Vector_alloc<std::_Vec_base_types<bus_device *,std::allocator<bus_device *> > >::_Myproxy
	mov	rcx, QWORD PTR tv70[rbp]
	mov	QWORD PTR [rax], rcx

; 504  : 		_Alproxy_traits::construct(_Proxy_allocator, _Myproxy(), _Container_proxy());

	lea	rcx, QWORD PTR $T4[rbp]
	call	??0_Container_proxy@std@@QEAA@XZ	; std::_Container_proxy::_Container_proxy
	mov	QWORD PTR tv79[rbp], rax
	mov	rcx, QWORD PTR this$[rbp]
	call	?_Myproxy@?$_Vector_alloc@U?$_Vec_base_types@PEAVbus_device@@V?$allocator@PEAVbus_device@@@std@@@std@@@std@@QEAAAEAPEAU_Container_proxy@2@XZ ; std::_Vector_alloc<std::_Vec_base_types<bus_device *,std::allocator<bus_device *> > >::_Myproxy
	mov	rcx, QWORD PTR tv79[rbp]
	mov	r8, rcx
	mov	rdx, QWORD PTR [rax]
	lea	rcx, QWORD PTR _Proxy_allocator$[rbp]
	call	??$construct@U_Container_proxy@std@@U12@@?$_Default_allocator_traits@V?$allocator@U_Container_proxy@std@@@std@@@std@@SAXAEAV?$allocator@U_Container_proxy@std@@@1@QEAU_Container_proxy@1@$$QEAU31@@Z ; std::_Default_allocator_traits<std::allocator<std::_Container_proxy> >::construct<std::_Container_proxy,std::_Container_proxy>

; 505  : 		_Myproxy()->_Mycont = _STD addressof(_Get_data());

	mov	rcx, QWORD PTR this$[rbp]
	call	?_Get_data@?$_Vector_alloc@U?$_Vec_base_types@PEAVbus_device@@V?$allocator@PEAVbus_device@@@std@@@std@@@std@@QEAAAEAV?$_Vector_val@U?$_Simple_types@PEAVbus_device@@@std@@@2@XZ ; std::_Vector_alloc<std::_Vec_base_types<bus_device *,std::allocator<bus_device *> > >::_Get_data
	mov	rcx, rax
	call	??$addressof@V?$_Vector_val@U?$_Simple_types@PEAVbus_device@@@std@@@std@@@std@@YAPEAV?$_Vector_val@U?$_Simple_types@PEAVbus_device@@@std@@@0@AEAV10@@Z ; std::addressof<std::_Vector_val<std::_Simple_types<bus_device *> > >
	mov	QWORD PTR tv91[rbp], rax
	mov	rcx, QWORD PTR this$[rbp]
	call	?_Myproxy@?$_Vector_alloc@U?$_Vec_base_types@PEAVbus_device@@V?$allocator@PEAVbus_device@@@std@@@std@@@std@@QEAAAEAPEAU_Container_proxy@2@XZ ; std::_Vector_alloc<std::_Vec_base_types<bus_device *,std::allocator<bus_device *> > >::_Myproxy
	mov	rax, QWORD PTR [rax]
	mov	rcx, QWORD PTR tv91[rbp]
	mov	QWORD PTR [rax], rcx

; 506  : 		}

	lea	rcx, QWORD PTR [rbp-32]
	lea	rdx, OFFSET FLAT:?_Alloc_proxy@?$_Vector_alloc@U?$_Vec_base_types@PEAVbus_device@@V?$allocator@PEAVbus_device@@@std@@@std@@@std@@QEAAXXZ$rtcFrameData
	call	_RTC_CheckStackVars
	mov	rcx, QWORD PTR __$ArrayPad$[rbp]
	xor	rcx, rbp
	call	__security_check_cookie
	lea	rsp, QWORD PTR [rbp+296]
	pop	rdi
	pop	rbp
	ret	0
?_Alloc_proxy@?$_Vector_alloc@U?$_Vec_base_types@PEAVbus_device@@V?$allocator@PEAVbus_device@@@std@@@std@@@std@@QEAAXXZ ENDP ; std::_Vector_alloc<std::_Vec_base_types<bus_device *,std::allocator<bus_device *> > >::_Alloc_proxy
_TEXT	ENDS
; Function compile flags: /Odtp /RTCsu /ZI
; File c:\program files (x86)\microsoft visual studio\2017\community\vc\tools\msvc\14.16.27023\include\vector
;	COMDAT ??1?$_Vector_alloc@U?$_Vec_base_types@PEAVbus_device@@V?$allocator@PEAVbus_device@@@std@@@std@@@std@@QEAA@XZ
_TEXT	SEGMENT
$T1 = 200
this$ = 256
??1?$_Vector_alloc@U?$_Vec_base_types@PEAVbus_device@@V?$allocator@PEAVbus_device@@@std@@@std@@@std@@QEAA@XZ PROC ; std::_Vector_alloc<std::_Vec_base_types<bus_device *,std::allocator<bus_device *> > >::~_Vector_alloc<std::_Vec_base_types<bus_device *,std::allocator<bus_device *> > >, COMDAT

; 460  : 		{	// destroy proxy

$LN3:
	mov	QWORD PTR [rsp+8], rcx
	push	rbp
	push	rdi
	sub	rsp, 264				; 00000108H
	lea	rbp, QWORD PTR [rsp+32]
	mov	rdi, rsp
	mov	ecx, 66					; 00000042H
	mov	eax, -858993460				; ccccccccH
	rep stosd
	mov	rcx, QWORD PTR [rsp+296]
	mov	QWORD PTR $T1[rbp], -2
	lea	rcx, OFFSET FLAT:__FF7D7337_vector
	call	__CheckForDebuggerJustMyCode
	npad	1

; 461  : 		_Free_proxy();

	mov	rcx, QWORD PTR this$[rbp]
	call	?_Free_proxy@?$_Vector_alloc@U?$_Vec_base_types@PEAVbus_device@@V?$allocator@PEAVbus_device@@@std@@@std@@@std@@QEAAXXZ ; std::_Vector_alloc<std::_Vec_base_types<bus_device *,std::allocator<bus_device *> > >::_Free_proxy
	npad	1

; 462  : 		}

	lea	rsp, QWORD PTR [rbp+232]
	pop	rdi
	pop	rbp
	ret	0
??1?$_Vector_alloc@U?$_Vec_base_types@PEAVbus_device@@V?$allocator@PEAVbus_device@@@std@@@std@@@std@@QEAA@XZ ENDP ; std::_Vector_alloc<std::_Vec_base_types<bus_device *,std::allocator<bus_device *> > >::~_Vector_alloc<std::_Vec_base_types<bus_device *,std::allocator<bus_device *> > >
_TEXT	ENDS
; Function compile flags: /Odtp /RTCsu /ZI
; File c:\program files (x86)\microsoft visual studio\2017\community\vc\tools\msvc\14.16.27023\include\vector
;	COMDAT ??0?$_Vector_alloc@U?$_Vec_base_types@PEAVbus_device@@V?$allocator@PEAVbus_device@@@std@@@std@@@std@@QEAA@XZ
_TEXT	SEGMENT
$T1 = 196
this$ = 256
??0?$_Vector_alloc@U?$_Vec_base_types@PEAVbus_device@@V?$allocator@PEAVbus_device@@@std@@@std@@@std@@QEAA@XZ PROC ; std::_Vector_alloc<std::_Vec_base_types<bus_device *,std::allocator<bus_device *> > >::_Vector_alloc<std::_Vec_base_types<bus_device *,std::allocator<bus_device *> > >, COMDAT

; 446  : 		{	// default construct allocator

$LN3:
	mov	QWORD PTR [rsp+8], rcx
	push	rbp
	push	rdi
	sub	rsp, 264				; 00000108H
	lea	rbp, QWORD PTR [rsp+32]
	mov	rdi, rsp
	mov	ecx, 66					; 00000042H
	mov	eax, -858993460				; ccccccccH
	rep stosd
	mov	rcx, QWORD PTR [rsp+296]
	lea	rcx, OFFSET FLAT:__FF7D7337_vector
	call	__CheckForDebuggerJustMyCode

; 445  : 		: _Mypair(_Zero_then_variadic_args_t())

	mov	rax, QWORD PTR this$[rbp]
	movzx	edx, BYTE PTR $T1[rbp]
	mov	rcx, rax
	call	??$?0$$V@?$_Compressed_pair@V?$allocator@PEAVbus_device@@@std@@V?$_Vector_val@U?$_Simple_types@PEAVbus_device@@@std@@@2@$00@std@@QEAA@U_Zero_then_variadic_args_t@1@@Z ; std::_Compressed_pair<std::allocator<bus_device *>,std::_Vector_val<std::_Simple_types<bus_device *> >,1>::_Compressed_pair<std::allocator<bus_device *>,std::_Vector_val<std::_Simple_types<bus_device *> >,1><>

; 447  : 		_Alloc_proxy();

	mov	rcx, QWORD PTR this$[rbp]
	call	?_Alloc_proxy@?$_Vector_alloc@U?$_Vec_base_types@PEAVbus_device@@V?$allocator@PEAVbus_device@@@std@@@std@@@std@@QEAAXXZ ; std::_Vector_alloc<std::_Vec_base_types<bus_device *,std::allocator<bus_device *> > >::_Alloc_proxy

; 448  : 		}

	mov	rax, QWORD PTR this$[rbp]
	lea	rsp, QWORD PTR [rbp+232]
	pop	rdi
	pop	rbp
	ret	0
??0?$_Vector_alloc@U?$_Vec_base_types@PEAVbus_device@@V?$allocator@PEAVbus_device@@@std@@@std@@@std@@QEAA@XZ ENDP ; std::_Vector_alloc<std::_Vec_base_types<bus_device *,std::allocator<bus_device *> > >::_Vector_alloc<std::_Vec_base_types<bus_device *,std::allocator<bus_device *> > >
_TEXT	ENDS
; Function compile flags: /Odtp /RTCsu /ZI
; File c:\program files (x86)\microsoft visual studio\2017\community\vc\tools\msvc\14.16.27023\include\xmemory0
;	COMDAT ?max_size@?$_Default_allocator_traits@V?$allocator@PEAVbus_device@@@std@@@std@@SA_KAEBV?$allocator@PEAVbus_device@@@2@@Z
_TEXT	SEGMENT
$T1 = 200
__formal$ = 256
?max_size@?$_Default_allocator_traits@V?$allocator@PEAVbus_device@@@std@@@std@@SA_KAEBV?$allocator@PEAVbus_device@@@2@@Z PROC ; std::_Default_allocator_traits<std::allocator<bus_device *> >::max_size, COMDAT

; 891  : 		{	// get maximum size

$LN3:
	mov	QWORD PTR [rsp+8], rcx
	push	rbp
	push	rdi
	sub	rsp, 264				; 00000108H
	lea	rbp, QWORD PTR [rsp+32]
	mov	rdi, rsp
	mov	ecx, 66					; 00000042H
	mov	eax, -858993460				; ccccccccH
	rep stosd
	mov	rcx, QWORD PTR [rsp+296]
	mov	QWORD PTR $T1[rbp], -2
	lea	rcx, OFFSET FLAT:__1CE3C767_xmemory0
	call	__CheckForDebuggerJustMyCode
	npad	1

; 892  : 		return (static_cast<size_t>(-1) / sizeof(value_type));

	mov	rax, 2305843009213693951		; 1fffffffffffffffH

; 893  : 		}

	lea	rsp, QWORD PTR [rbp+232]
	pop	rdi
	pop	rbp
	ret	0
?max_size@?$_Default_allocator_traits@V?$allocator@PEAVbus_device@@@std@@@std@@SA_KAEBV?$allocator@PEAVbus_device@@@2@@Z ENDP ; std::_Default_allocator_traits<std::allocator<bus_device *> >::max_size
_TEXT	ENDS
; Function compile flags: /Odtp /RTCsu /ZI
; File c:\program files (x86)\microsoft visual studio\2017\community\vc\tools\msvc\14.16.27023\include\xmemory0
;	COMDAT ?allocate@?$allocator@PEAVbus_device@@@std@@QEAAPEAPEAVbus_device@@_K@Z
_TEXT	SEGMENT
this$ = 224
_Count$ = 232
?allocate@?$allocator@PEAVbus_device@@@std@@QEAAPEAPEAVbus_device@@_K@Z PROC ; std::allocator<bus_device *>::allocate, COMDAT

; 996  : 		{	// allocate array of _Count elements

$LN3:
	mov	QWORD PTR [rsp+16], rdx
	mov	QWORD PTR [rsp+8], rcx
	push	rbp
	push	rdi
	sub	rsp, 232				; 000000e8H
	lea	rbp, QWORD PTR [rsp+32]
	mov	rdi, rsp
	mov	ecx, 58					; 0000003aH
	mov	eax, -858993460				; ccccccccH
	rep stosd
	mov	rcx, QWORD PTR [rsp+264]
	lea	rcx, OFFSET FLAT:__1CE3C767_xmemory0
	call	__CheckForDebuggerJustMyCode

; 997  : 		return (static_cast<_Ty *>(_Allocate<_New_alignof<_Ty>>(_Get_size_of_n<sizeof(_Ty)>(_Count))));

	mov	rcx, QWORD PTR _Count$[rbp]
	call	??$_Get_size_of_n@$07@std@@YA_K_K@Z	; std::_Get_size_of_n<8>
	mov	rcx, rax
	call	??$_Allocate@$0BA@U_Default_allocate_traits@std@@$0A@@std@@YAPEAX_K@Z ; std::_Allocate<16,std::_Default_allocate_traits,0>

; 998  : 		}

	lea	rsp, QWORD PTR [rbp+200]
	pop	rdi
	pop	rbp
	ret	0
?allocate@?$allocator@PEAVbus_device@@@std@@QEAAPEAPEAVbus_device@@_K@Z ENDP ; std::allocator<bus_device *>::allocate
_TEXT	ENDS
; Function compile flags: /Odtp /RTCsu /ZI
; File c:\program files (x86)\microsoft visual studio\2017\community\vc\tools\msvc\14.16.27023\include\xmemory0
;	COMDAT ?deallocate@?$allocator@PEAVbus_device@@@std@@QEAAXQEAPEAVbus_device@@_K@Z
_TEXT	SEGMENT
this$ = 224
_Ptr$ = 232
_Count$ = 240
?deallocate@?$allocator@PEAVbus_device@@@std@@QEAAXQEAPEAVbus_device@@_K@Z PROC ; std::allocator<bus_device *>::deallocate, COMDAT

; 990  : 		{	// deallocate object at _Ptr

$LN3:
	mov	QWORD PTR [rsp+24], r8
	mov	QWORD PTR [rsp+16], rdx
	mov	QWORD PTR [rsp+8], rcx
	push	rbp
	push	rdi
	sub	rsp, 232				; 000000e8H
	lea	rbp, QWORD PTR [rsp+32]
	mov	rdi, rsp
	mov	ecx, 58					; 0000003aH
	mov	eax, -858993460				; ccccccccH
	rep stosd
	mov	rcx, QWORD PTR [rsp+264]
	lea	rcx, OFFSET FLAT:__1CE3C767_xmemory0
	call	__CheckForDebuggerJustMyCode

; 991  : 		// no overflow check on the following multiply; we assume _Allocate did that check
; 992  : 		_Deallocate<_New_alignof<_Ty>>(_Ptr, sizeof(_Ty) * _Count);

	mov	rax, QWORD PTR _Count$[rbp]
	shl	rax, 3
	mov	rdx, rax
	mov	rcx, QWORD PTR _Ptr$[rbp]
	call	??$_Deallocate@$0BA@$0A@@std@@YAXPEAX_K@Z ; std::_Deallocate<16,0>

; 993  : 		}

	lea	rsp, QWORD PTR [rbp+200]
	pop	rdi
	pop	rbp
	ret	0
?deallocate@?$allocator@PEAVbus_device@@@std@@QEAAXQEAPEAVbus_device@@_K@Z ENDP ; std::allocator<bus_device *>::deallocate
_TEXT	ENDS
; Function compile flags: /Odtp /RTCsu /ZI
; File c:\program files (x86)\microsoft visual studio\2017\community\vc\tools\msvc\14.16.27023\include\xmemory0
;	COMDAT ??0?$allocator@PEAVbus_device@@@std@@QEAA@XZ
_TEXT	SEGMENT
$T1 = 200
this$ = 256
??0?$allocator@PEAVbus_device@@@std@@QEAA@XZ PROC	; std::allocator<bus_device *>::allocator<bus_device *>, COMDAT

; 979  : 	constexpr allocator() noexcept

$LN3:
	mov	QWORD PTR [rsp+8], rcx
	push	rbp
	push	rdi
	sub	rsp, 264				; 00000108H
	lea	rbp, QWORD PTR [rsp+32]
	mov	rdi, rsp
	mov	ecx, 66					; 00000042H
	mov	eax, -858993460				; ccccccccH
	rep stosd
	mov	rcx, QWORD PTR [rsp+296]
	mov	QWORD PTR $T1[rbp], -2
	lea	rcx, OFFSET FLAT:__1CE3C767_xmemory0
	call	__CheckForDebuggerJustMyCode
	npad	1

; 980  : 		{	// construct default allocator (do nothing)
; 981  : 		}

	mov	rax, QWORD PTR this$[rbp]
	lea	rsp, QWORD PTR [rbp+232]
	pop	rdi
	pop	rbp
	ret	0
??0?$allocator@PEAVbus_device@@@std@@QEAA@XZ ENDP	; std::allocator<bus_device *>::allocator<bus_device *>
_TEXT	ENDS
; Function compile flags: /Odtp /RTCsu /ZI
;	COMDAT ??_Gbus_device@@UEAAPEAXI@Z
_TEXT	SEGMENT
this$ = 224
__flags$ = 232
??_Gbus_device@@UEAAPEAXI@Z PROC			; bus_device::`scalar deleting destructor', COMDAT
$LN4:
	mov	DWORD PTR [rsp+16], edx
	mov	QWORD PTR [rsp+8], rcx
	push	rbp
	push	rdi
	sub	rsp, 232				; 000000e8H
	lea	rbp, QWORD PTR [rsp+32]
	mov	rdi, rsp
	mov	ecx, 58					; 0000003aH
	mov	eax, -858993460				; ccccccccH
	rep stosd
	mov	rcx, QWORD PTR [rsp+264]
	mov	rcx, QWORD PTR this$[rbp]
	call	??1bus_device@@UEAA@XZ			; bus_device::~bus_device
	mov	eax, DWORD PTR __flags$[rbp]
	and	eax, 1
	test	eax, eax
	je	SHORT $LN2@scalar
	mov	edx, 72					; 00000048H
	mov	rcx, QWORD PTR this$[rbp]
	call	??3@YAXPEAX_K@Z				; operator delete
$LN2@scalar:
	mov	rax, QWORD PTR this$[rbp]
	lea	rsp, QWORD PTR [rbp+200]
	pop	rdi
	pop	rbp
	ret	0
??_Gbus_device@@UEAAPEAXI@Z ENDP			; bus_device::`scalar deleting destructor'
_TEXT	ENDS
; Function compile flags: /Odtp /RTCsu /ZI
; File c:\users\nightorius.phibian\source\repos\denveremu\denveremu\bus.cpp
;	COMDAT ?read@bus_device@@UEAAEHH@Z
_TEXT	SEGMENT
this$ = 224
addr$ = 232
addr_from_base$ = 240
?read@bus_device@@UEAAEHH@Z PROC			; bus_device::read, COMDAT

; 174  : byte bus_device::read(int addr, int addr_from_base) {

$LN3:
	mov	DWORD PTR [rsp+24], r8d
	mov	DWORD PTR [rsp+16], edx
	mov	QWORD PTR [rsp+8], rcx
	push	rbp
	push	rdi
	sub	rsp, 232				; 000000e8H
	lea	rbp, QWORD PTR [rsp+32]
	mov	rdi, rsp
	mov	ecx, 58					; 0000003aH
	mov	eax, -858993460				; ccccccccH
	rep stosd
	mov	rcx, QWORD PTR [rsp+264]
	lea	rcx, OFFSET FLAT:__72010E87_bus@cpp
	call	__CheckForDebuggerJustMyCode

; 175  : 	return 0x00;

	xor	al, al

; 176  : }

	lea	rsp, QWORD PTR [rbp+200]
	pop	rdi
	pop	rbp
	ret	0
?read@bus_device@@UEAAEHH@Z ENDP			; bus_device::read
_TEXT	ENDS
; Function compile flags: /Odtp /RTCsu /ZI
; File c:\users\nightorius.phibian\source\repos\denveremu\denveremu\bus.cpp
;	COMDAT ?write@bus_device@@UEAAXHHE@Z
_TEXT	SEGMENT
this$ = 224
addr$ = 232
addr_from_base$ = 240
data$ = 248
?write@bus_device@@UEAAXHHE@Z PROC			; bus_device::write, COMDAT

; 170  : void bus_device::write(int addr, int addr_from_base, byte data) {

$LN3:
	mov	BYTE PTR [rsp+32], r9b
	mov	DWORD PTR [rsp+24], r8d
	mov	DWORD PTR [rsp+16], edx
	mov	QWORD PTR [rsp+8], rcx
	push	rbp
	push	rdi
	sub	rsp, 232				; 000000e8H
	lea	rbp, QWORD PTR [rsp+32]
	mov	rdi, rsp
	mov	ecx, 58					; 0000003aH
	mov	eax, -858993460				; ccccccccH
	rep stosd
	mov	rcx, QWORD PTR [rsp+264]
	lea	rcx, OFFSET FLAT:__72010E87_bus@cpp
	call	__CheckForDebuggerJustMyCode

; 171  : 	
; 172  : }

	lea	rsp, QWORD PTR [rbp+200]
	pop	rdi
	pop	rbp
	ret	0
?write@bus_device@@UEAAXHHE@Z ENDP			; bus_device::write
_TEXT	ENDS
; Function compile flags: /Odtp /RTCsu /ZI
; File c:\users\nightorius.phibian\source\repos\denveremu\denveremu\bus.cpp
;	COMDAT ?resetpins_to_default@bus_device@@QEAAXXZ
_TEXT	SEGMENT
i$1 = 4
this$ = 256
?resetpins_to_default@bus_device@@QEAAXXZ PROC		; bus_device::resetpins_to_default, COMDAT

; 153  : void bus_device::resetpins_to_default() {

$LN6:
	mov	QWORD PTR [rsp+8], rcx
	push	rbp
	push	rdi
	sub	rsp, 264				; 00000108H
	lea	rbp, QWORD PTR [rsp+32]
	mov	rdi, rsp
	mov	ecx, 66					; 00000042H
	mov	eax, -858993460				; ccccccccH
	rep stosd
	mov	rcx, QWORD PTR [rsp+296]
	lea	rcx, OFFSET FLAT:__72010E87_bus@cpp
	call	__CheckForDebuggerJustMyCode

; 154  : 	for (int i = 0; i < 16; i++) pinout.pins[i] = i;

	mov	DWORD PTR i$1[rbp], 0
	jmp	SHORT $LN4@resetpins_
$LN2@resetpins_:
	mov	eax, DWORD PTR i$1[rbp]
	inc	eax
	mov	DWORD PTR i$1[rbp], eax
$LN4@resetpins_:
	cmp	DWORD PTR i$1[rbp], 16
	jge	SHORT $LN3@resetpins_
	movsxd	rax, DWORD PTR i$1[rbp]
	mov	rcx, QWORD PTR this$[rbp]
	movzx	edx, BYTE PTR i$1[rbp]
	mov	BYTE PTR [rcx+rax+56], dl
	jmp	SHORT $LN2@resetpins_
$LN3@resetpins_:

; 155  : 	processlayout = false;

	mov	rax, QWORD PTR this$[rbp]
	mov	BYTE PTR [rax+40], 0

; 156  : }

	lea	rsp, QWORD PTR [rbp+232]
	pop	rdi
	pop	rbp
	ret	0
?resetpins_to_default@bus_device@@QEAAXXZ ENDP		; bus_device::resetpins_to_default
_TEXT	ENDS
; Function compile flags: /Odtp /RTCsu /ZI
; File c:\users\nightorius.phibian\source\repos\denveremu\denveremu\bus.cpp
;	COMDAT ?vccpin@bus_device@@QEAAXH@Z
_TEXT	SEGMENT
this$ = 224
pin$ = 232
?vccpin@bus_device@@QEAAXH@Z PROC			; bus_device::vccpin, COMDAT

; 141  : void bus_device::vccpin(int pin) {

$LN3:
	mov	DWORD PTR [rsp+16], edx
	mov	QWORD PTR [rsp+8], rcx
	push	rbp
	push	rdi
	sub	rsp, 232				; 000000e8H
	lea	rbp, QWORD PTR [rsp+32]
	mov	rdi, rsp
	mov	ecx, 58					; 0000003aH
	mov	eax, -858993460				; ccccccccH
	rep stosd
	mov	rcx, QWORD PTR [rsp+264]
	lea	rcx, OFFSET FLAT:__72010E87_bus@cpp
	call	__CheckForDebuggerJustMyCode

; 142  : 	pinout.pins[pin] = -1;

	movsxd	rax, DWORD PTR pin$[rbp]
	mov	rcx, QWORD PTR this$[rbp]
	mov	BYTE PTR [rcx+rax+56], -1

; 143  : 	processlayout = true;

	mov	rax, QWORD PTR this$[rbp]
	mov	BYTE PTR [rax+40], 1

; 144  : }

	lea	rsp, QWORD PTR [rbp+200]
	pop	rdi
	pop	rbp
	ret	0
?vccpin@bus_device@@QEAAXH@Z ENDP			; bus_device::vccpin
_TEXT	ENDS
; Function compile flags: /Odtp /RTCsu /ZI
; File c:\users\nightorius.phibian\source\repos\denveremu\denveremu\bus.cpp
;	COMDAT ?groundpin@bus_device@@QEAAXH@Z
_TEXT	SEGMENT
this$ = 224
pin$ = 232
?groundpin@bus_device@@QEAAXH@Z PROC			; bus_device::groundpin, COMDAT

; 136  : void bus_device::groundpin(int pin) {

$LN3:
	mov	DWORD PTR [rsp+16], edx
	mov	QWORD PTR [rsp+8], rcx
	push	rbp
	push	rdi
	sub	rsp, 232				; 000000e8H
	lea	rbp, QWORD PTR [rsp+32]
	mov	rdi, rsp
	mov	ecx, 58					; 0000003aH
	mov	eax, -858993460				; ccccccccH
	rep stosd
	mov	rcx, QWORD PTR [rsp+264]
	lea	rcx, OFFSET FLAT:__72010E87_bus@cpp
	call	__CheckForDebuggerJustMyCode

; 137  : 	pinout.pins[pin] = -2;

	movsxd	rax, DWORD PTR pin$[rbp]
	mov	rcx, QWORD PTR this$[rbp]
	mov	BYTE PTR [rcx+rax+56], -2

; 138  : 	processlayout = true;

	mov	rax, QWORD PTR this$[rbp]
	mov	BYTE PTR [rax+40], 1

; 139  : }

	lea	rsp, QWORD PTR [rbp+200]
	pop	rdi
	pop	rbp
	ret	0
?groundpin@bus_device@@QEAAXH@Z ENDP			; bus_device::groundpin
_TEXT	ENDS
; Function compile flags: /Odtp /RTCsu /ZI
; File c:\users\nightorius.phibian\source\repos\denveremu\denveremu\bus.cpp
;	COMDAT ?swappins@bus_device@@QEAAXHH@Z
_TEXT	SEGMENT
p$ = 4
this$ = 256
pin1$ = 264
pin2$ = 272
?swappins@bus_device@@QEAAXHH@Z PROC			; bus_device::swappins, COMDAT

; 146  : void bus_device::swappins(int pin1, int pin2) {

$LN3:
	mov	DWORD PTR [rsp+24], r8d
	mov	DWORD PTR [rsp+16], edx
	mov	QWORD PTR [rsp+8], rcx
	push	rbp
	push	rdi
	sub	rsp, 264				; 00000108H
	lea	rbp, QWORD PTR [rsp+32]
	mov	rdi, rsp
	mov	ecx, 66					; 00000042H
	mov	eax, -858993460				; ccccccccH
	rep stosd
	mov	rcx, QWORD PTR [rsp+296]
	lea	rcx, OFFSET FLAT:__72010E87_bus@cpp
	call	__CheckForDebuggerJustMyCode

; 147  : 	int p = pinout.pins[pin2];

	movsxd	rax, DWORD PTR pin2$[rbp]
	mov	rcx, QWORD PTR this$[rbp]
	movsx	eax, BYTE PTR [rcx+rax+56]
	mov	DWORD PTR p$[rbp], eax

; 148  : 	pinout.pins[pin2] = pinout.pins[pin1];

	movsxd	rax, DWORD PTR pin1$[rbp]
	movsxd	rcx, DWORD PTR pin2$[rbp]
	mov	rdx, QWORD PTR this$[rbp]
	mov	r8, QWORD PTR this$[rbp]
	movzx	eax, BYTE PTR [r8+rax+56]
	mov	BYTE PTR [rdx+rcx+56], al

; 149  : 	pinout.pins[pin1] = p;

	movsxd	rax, DWORD PTR pin1$[rbp]
	mov	rcx, QWORD PTR this$[rbp]
	movzx	edx, BYTE PTR p$[rbp]
	mov	BYTE PTR [rcx+rax+56], dl

; 150  : 	processlayout = true;

	mov	rax, QWORD PTR this$[rbp]
	mov	BYTE PTR [rax+40], 1

; 151  : }

	lea	rsp, QWORD PTR [rbp+232]
	pop	rdi
	pop	rbp
	ret	0
?swappins@bus_device@@QEAAXHH@Z ENDP			; bus_device::swappins
_TEXT	ENDS
; Function compile flags: /Odtp /RTCsu /ZI
; File c:\users\nightorius.phibian\source\repos\denveremu\denveremu\bus.cpp
;	COMDAT ?compute_addr_from_layout@bus_device@@QEAAGG@Z
_TEXT	SEGMENT
cleanaddr$ = 4
i$1 = 36
tv165 = 244
tv160 = 244
this$ = 288
addr$ = 296
?compute_addr_from_layout@bus_device@@QEAAGG@Z PROC	; bus_device::compute_addr_from_layout, COMDAT

; 120  : word bus_device::compute_addr_from_layout(word addr) {

$LN11:
	mov	WORD PTR [rsp+16], dx
	mov	QWORD PTR [rsp+8], rcx
	push	rbp
	push	rdi
	sub	rsp, 296				; 00000128H
	lea	rbp, QWORD PTR [rsp+32]
	mov	rdi, rsp
	mov	ecx, 74					; 0000004aH
	mov	eax, -858993460				; ccccccccH
	rep stosd
	mov	rcx, QWORD PTR [rsp+328]
	lea	rcx, OFFSET FLAT:__72010E87_bus@cpp
	call	__CheckForDebuggerJustMyCode

; 121  : 	if (!processlayout) return addr & devicemask;

	mov	rax, QWORD PTR this$[rbp]
	movzx	eax, BYTE PTR [rax+40]
	test	eax, eax
	jne	SHORT $LN5@compute_ad
	movzx	eax, WORD PTR addr$[rbp]
	mov	rcx, QWORD PTR this$[rbp]
	and	eax, DWORD PTR [rcx+52]
	jmp	$LN1@compute_ad
$LN5@compute_ad:

; 122  : 	word cleanaddr = 0;

	xor	eax, eax
	mov	WORD PTR cleanaddr$[rbp], ax

; 123  : 	for (int i = 0; i < 16; i++) {

	mov	DWORD PTR i$1[rbp], 0
	jmp	SHORT $LN4@compute_ad
$LN2@compute_ad:
	mov	eax, DWORD PTR i$1[rbp]
	inc	eax
	mov	DWORD PTR i$1[rbp], eax
$LN4@compute_ad:
	cmp	DWORD PTR i$1[rbp], 16
	jge	$LN3@compute_ad

; 124  : 		if (pinout.pins[i] == -1) {

	movsxd	rax, DWORD PTR i$1[rbp]
	mov	rcx, QWORD PTR this$[rbp]
	movsx	eax, BYTE PTR [rcx+rax+56]
	cmp	eax, -1
	jne	SHORT $LN6@compute_ad

; 125  : 			cleanaddr |= 0x01 << i;	//-1 force signal enable.

	mov	eax, DWORD PTR i$1[rbp]
	mov	ecx, 1
	mov	DWORD PTR tv160[rbp], ecx
	movzx	ecx, al
	mov	eax, DWORD PTR tv160[rbp]
	shl	eax, cl
	movzx	ecx, WORD PTR cleanaddr$[rbp]
	or	ecx, eax
	mov	eax, ecx
	mov	WORD PTR cleanaddr$[rbp], ax
	jmp	SHORT $LN7@compute_ad
$LN6@compute_ad:

; 126  : 		}
; 127  : 		else if (pinout.pins[i] == -2) {

	movsxd	rax, DWORD PTR i$1[rbp]
	mov	rcx, QWORD PTR this$[rbp]
	movsx	eax, BYTE PTR [rcx+rax+56]
	cmp	eax, -2
	jne	SHORT $LN8@compute_ad

; 128  : 			cleanaddr |= 0x00 << i; //-2 force signal disable.

	mov	eax, DWORD PTR i$1[rbp]
	xor	ecx, ecx
	mov	DWORD PTR tv165[rbp], ecx
	movzx	ecx, al
	mov	eax, DWORD PTR tv165[rbp]
	shl	eax, cl
	movzx	ecx, WORD PTR cleanaddr$[rbp]
	or	ecx, eax
	mov	eax, ecx
	mov	WORD PTR cleanaddr$[rbp], ax

; 129  : 		} else {

	jmp	SHORT $LN9@compute_ad
$LN8@compute_ad:

; 130  : 			cleanaddr |= ((addr >> i) & 0x01) << pinout.pins[i];

	movzx	eax, WORD PTR addr$[rbp]
	mov	ecx, DWORD PTR i$1[rbp]
	sar	eax, cl
	and	eax, 1
	movsxd	rcx, DWORD PTR i$1[rbp]
	mov	rdx, QWORD PTR this$[rbp]
	movsx	ecx, BYTE PTR [rdx+rcx+56]
	shl	eax, cl
	movzx	ecx, WORD PTR cleanaddr$[rbp]
	or	ecx, eax
	mov	eax, ecx
	mov	WORD PTR cleanaddr$[rbp], ax
$LN9@compute_ad:
$LN7@compute_ad:

; 131  : 		}
; 132  : 	}

	jmp	$LN2@compute_ad
$LN3@compute_ad:

; 133  : 	return cleanaddr & devicemask;

	movzx	eax, WORD PTR cleanaddr$[rbp]
	mov	rcx, QWORD PTR this$[rbp]
	and	eax, DWORD PTR [rcx+52]
$LN1@compute_ad:

; 134  : }

	lea	rsp, QWORD PTR [rbp+264]
	pop	rdi
	pop	rbp
	ret	0
?compute_addr_from_layout@bus_device@@QEAAGG@Z ENDP	; bus_device::compute_addr_from_layout
_TEXT	ENDS
; Function compile flags: /Odtp /RTCsu /ZI
; File c:\users\nightorius.phibian\source\repos\denveremu\denveremu\bus.cpp
;	COMDAT ??1bus_device@@UEAA@XZ
_TEXT	SEGMENT
$T1 = 200
this$ = 256
??1bus_device@@UEAA@XZ PROC				; bus_device::~bus_device, COMDAT

; 158  : bus_device::~bus_device() {

$LN3:
	mov	QWORD PTR [rsp+8], rcx
	push	rbp
	push	rdi
	sub	rsp, 264				; 00000108H
	lea	rbp, QWORD PTR [rsp+32]
	mov	rdi, rsp
	mov	ecx, 66					; 00000042H
	mov	eax, -858993460				; ccccccccH
	rep stosd
	mov	rcx, QWORD PTR [rsp+296]
	mov	QWORD PTR $T1[rbp], -2
	lea	rcx, OFFSET FLAT:__72010E87_bus@cpp
	call	__CheckForDebuggerJustMyCode
	npad	1
	mov	rax, QWORD PTR this$[rbp]
	lea	rcx, OFFSET FLAT:??_7bus_device@@6B@
	mov	QWORD PTR [rax], rcx

; 159  : }

	mov	rcx, QWORD PTR this$[rbp]
	call	??1device@@QEAA@XZ			; device::~device
	npad	1
	lea	rsp, QWORD PTR [rbp+232]
	pop	rdi
	pop	rbp
	ret	0
??1bus_device@@UEAA@XZ ENDP				; bus_device::~bus_device
_TEXT	ENDS
; Function compile flags: /Odtp /RTCsu /ZI
; File c:\users\nightorius.phibian\source\repos\denveremu\denveremu\bus.cpp
;	COMDAT ??0bus_device@@QEAA@XZ
_TEXT	SEGMENT
i$1 = 4
$T2 = 232
this$ = 288
??0bus_device@@QEAA@XZ PROC				; bus_device::bus_device, COMDAT

; 112  : bus_device::bus_device() {

$LN7:
	mov	QWORD PTR [rsp+8], rcx
	push	rbp
	push	rdi
	sub	rsp, 296				; 00000128H
	lea	rbp, QWORD PTR [rsp+32]
	mov	rdi, rsp
	mov	ecx, 74					; 0000004aH
	mov	eax, -858993460				; ccccccccH
	rep stosd
	mov	rcx, QWORD PTR [rsp+328]
	mov	QWORD PTR $T2[rbp], -2
	lea	rcx, OFFSET FLAT:__72010E87_bus@cpp
	call	__CheckForDebuggerJustMyCode
	mov	rcx, QWORD PTR this$[rbp]
	call	??0device@@QEAA@XZ			; device::device
	npad	1
	mov	rax, QWORD PTR this$[rbp]
	lea	rcx, OFFSET FLAT:??_7bus_device@@6B@
	mov	QWORD PTR [rax], rcx

; 113  : 	strcpy_s(get_device_descriptor(), MAX_DESCRIPTOR_LENGTH, "Denver Base I/O Device");

	mov	rcx, QWORD PTR this$[rbp]
	call	?get_device_descriptor@device@@QEAAPEADXZ ; device::get_device_descriptor
	lea	r8, OFFSET FLAT:??_C@_0BH@GDKDGNOP@Denver?5Base?5I?1O?5Device@
	mov	edx, 128				; 00000080H
	mov	rcx, rax
	call	QWORD PTR __imp_strcpy_s

; 114  : 	devicestart = 0x0000;

	mov	rax, QWORD PTR this$[rbp]
	mov	DWORD PTR [rax+44], 0

; 115  : 	deviceend = 0xFFFF;

	mov	rax, QWORD PTR this$[rbp]
	mov	DWORD PTR [rax+48], 65535		; 0000ffffH

; 116  : 	devicemask = 0xFFFF;

	mov	rax, QWORD PTR this$[rbp]
	mov	DWORD PTR [rax+52], 65535		; 0000ffffH

; 117  : 	for (int i = 0; i < 16; i++) pinout.pins[i] = i;

	mov	DWORD PTR i$1[rbp], 0
	jmp	SHORT $LN4@bus_device
$LN2@bus_device:
	mov	eax, DWORD PTR i$1[rbp]
	inc	eax
	mov	DWORD PTR i$1[rbp], eax
$LN4@bus_device:
	cmp	DWORD PTR i$1[rbp], 16
	jge	SHORT $LN3@bus_device
	movsxd	rax, DWORD PTR i$1[rbp]
	mov	rcx, QWORD PTR this$[rbp]
	movzx	edx, BYTE PTR i$1[rbp]
	mov	BYTE PTR [rcx+rax+56], dl
	jmp	SHORT $LN2@bus_device
$LN3@bus_device:

; 118  : }

	mov	rax, QWORD PTR this$[rbp]
	lea	rsp, QWORD PTR [rbp+264]
	pop	rdi
	pop	rbp
	ret	0
??0bus_device@@QEAA@XZ ENDP				; bus_device::bus_device
_TEXT	ENDS
;	COMDAT text$x
text$x	SEGMENT
i$1 = 4
$T2 = 232
this$ = 288
?dtor$0@?0???0bus_device@@QEAA@XZ@4HA PROC		; `bus_device::bus_device'::`1'::dtor$0
	mov	QWORD PTR [rsp+8], rcx
	mov	QWORD PTR [rsp+16], rdx
	push	rbp
	push	rdi
	sub	rsp, 40					; 00000028H
	lea	rbp, QWORD PTR [rdx+32]
	mov	rcx, QWORD PTR this$[rbp]
	call	??1device@@QEAA@XZ			; device::~device
	add	rsp, 40					; 00000028H
	pop	rdi
	pop	rbp
	ret	0
?dtor$0@?0???0bus_device@@QEAA@XZ@4HA ENDP		; `bus_device::bus_device'::`1'::dtor$0
text$x	ENDS
; Function compile flags: /Odtp /RTCsu /ZI
;	COMDAT text$x
text$x	SEGMENT
i$1 = 4
$T2 = 232
this$ = 288
?dtor$0@?0???0bus_device@@QEAA@XZ@4HA PROC		; `bus_device::bus_device'::`1'::dtor$0
	mov	QWORD PTR [rsp+8], rcx
	mov	QWORD PTR [rsp+16], rdx
	push	rbp
	push	rdi
	sub	rsp, 40					; 00000028H
	lea	rbp, QWORD PTR [rdx+32]
	mov	rcx, QWORD PTR this$[rbp]
	call	??1device@@QEAA@XZ			; device::~device
	add	rsp, 40					; 00000028H
	pop	rdi
	pop	rbp
	ret	0
?dtor$0@?0???0bus_device@@QEAA@XZ@4HA ENDP		; `bus_device::bus_device'::`1'::dtor$0
text$x	ENDS
; Function compile flags: /Odtp /RTCsu /ZI
; File c:\users\nightorius.phibian\source\repos\denveremu\denveremu\bus.cpp
;	COMDAT ?dma@device@@UEAAXPEAE_N1@Z
_TEXT	SEGMENT
this$ = 224
data$ = 232
is_output$ = 240
started$ = 248
?dma@device@@UEAAXPEAE_N1@Z PROC			; device::dma, COMDAT

; 165  : void device::dma(byte *data, bool is_output, bool started) {

$LN3:
	mov	BYTE PTR [rsp+32], r9b
	mov	BYTE PTR [rsp+24], r8b
	mov	QWORD PTR [rsp+16], rdx
	mov	QWORD PTR [rsp+8], rcx
	push	rbp
	push	rdi
	sub	rsp, 232				; 000000e8H
	lea	rbp, QWORD PTR [rsp+32]
	mov	rdi, rsp
	mov	ecx, 58					; 0000003aH
	mov	eax, -858993460				; ccccccccH
	rep stosd
	mov	rcx, QWORD PTR [rsp+264]
	lea	rcx, OFFSET FLAT:__72010E87_bus@cpp
	call	__CheckForDebuggerJustMyCode

; 166  : 	// dma transfer.
; 167  : }

	lea	rsp, QWORD PTR [rbp+200]
	pop	rdi
	pop	rbp
	ret	0
?dma@device@@UEAAXPEAE_N1@Z ENDP			; device::dma
_TEXT	ENDS
; Function compile flags: /Odtp /RTCsu /ZI
; File c:\users\nightorius.phibian\source\repos\denveremu\denveremu\bus.cpp
;	COMDAT ?get_device_descriptor@device@@QEAAPEADXZ
_TEXT	SEGMENT
this$ = 224
?get_device_descriptor@device@@QEAAPEADXZ PROC		; device::get_device_descriptor, COMDAT

; 161  : char * device::get_device_descriptor() {

$LN3:
	mov	QWORD PTR [rsp+8], rcx
	push	rbp
	push	rdi
	sub	rsp, 232				; 000000e8H
	lea	rbp, QWORD PTR [rsp+32]
	mov	rdi, rsp
	mov	ecx, 58					; 0000003aH
	mov	eax, -858993460				; ccccccccH
	rep stosd
	mov	rcx, QWORD PTR [rsp+264]
	lea	rcx, OFFSET FLAT:__72010E87_bus@cpp
	call	__CheckForDebuggerJustMyCode

; 162  : 	return devicedescriptor;

	mov	rax, QWORD PTR this$[rbp]
	mov	rax, QWORD PTR [rax+8]

; 163  : }

	lea	rsp, QWORD PTR [rbp+200]
	pop	rdi
	pop	rbp
	ret	0
?get_device_descriptor@device@@QEAAPEADXZ ENDP		; device::get_device_descriptor
_TEXT	ENDS
; Function compile flags: /Odtp /RTCsu /ZI
; File c:\users\nightorius.phibian\source\repos\denveremu\denveremu\bus.cpp
;	COMDAT ?rundevice@device@@UEAAHH@Z
_TEXT	SEGMENT
this$ = 224
ticks$ = 232
?rundevice@device@@UEAAHH@Z PROC			; device::rundevice, COMDAT

; 189  : int device::rundevice(int ticks) {

$LN3:
	mov	DWORD PTR [rsp+16], edx
	mov	QWORD PTR [rsp+8], rcx
	push	rbp
	push	rdi
	sub	rsp, 232				; 000000e8H
	lea	rbp, QWORD PTR [rsp+32]
	mov	rdi, rsp
	mov	ecx, 58					; 0000003aH
	mov	eax, -858993460				; ccccccccH
	rep stosd
	mov	rcx, QWORD PTR [rsp+264]
	lea	rcx, OFFSET FLAT:__72010E87_bus@cpp
	call	__CheckForDebuggerJustMyCode

; 190  : 	return ticks;	// dummy device return same amount of ticks as told to process.

	mov	eax, DWORD PTR ticks$[rbp]

; 191  : }

	lea	rsp, QWORD PTR [rbp+200]
	pop	rdi
	pop	rbp
	ret	0
?rundevice@device@@UEAAHH@Z ENDP			; device::rundevice
_TEXT	ENDS
; Function compile flags: /Odtp /RTCsu /ZI
; File c:\users\nightorius.phibian\source\repos\denveremu\denveremu\bus.cpp
;	COMDAT ??1device@@QEAA@XZ
_TEXT	SEGMENT
$T1 = 200
this$ = 256
??1device@@QEAA@XZ PROC					; device::~device, COMDAT

; 185  : device::~device() {

$LN3:
	mov	QWORD PTR [rsp+8], rcx
	push	rbp
	push	rdi
	sub	rsp, 264				; 00000108H
	lea	rbp, QWORD PTR [rsp+32]
	mov	rdi, rsp
	mov	ecx, 66					; 00000042H
	mov	eax, -858993460				; ccccccccH
	rep stosd
	mov	rcx, QWORD PTR [rsp+296]
	mov	QWORD PTR $T1[rbp], -2
	lea	rcx, OFFSET FLAT:__72010E87_bus@cpp
	call	__CheckForDebuggerJustMyCode
	npad	1
	mov	rax, QWORD PTR this$[rbp]
	lea	rcx, OFFSET FLAT:??_7device@@6B@
	mov	QWORD PTR [rax], rcx

; 186  : 	free(devicedescriptor);	// be done with it.

	mov	rax, QWORD PTR this$[rbp]
	mov	rcx, QWORD PTR [rax+8]
	call	QWORD PTR __imp_free
	npad	1

; 187  : }

	lea	rsp, QWORD PTR [rbp+232]
	pop	rdi
	pop	rbp
	ret	0
??1device@@QEAA@XZ ENDP					; device::~device
_TEXT	ENDS
; Function compile flags: /Odtp /RTCsu /ZI
; File c:\users\nightorius.phibian\source\repos\denveremu\denveremu\bus.cpp
;	COMDAT ??0device@@QEAA@XZ
_TEXT	SEGMENT
this$ = 224
??0device@@QEAA@XZ PROC					; device::device, COMDAT

; 178  : device::device() {

$LN3:
	mov	QWORD PTR [rsp+8], rcx
	push	rbp
	push	rdi
	sub	rsp, 232				; 000000e8H
	lea	rbp, QWORD PTR [rsp+32]
	mov	rdi, rsp
	mov	ecx, 58					; 0000003aH
	mov	eax, -858993460				; ccccccccH
	rep stosd
	mov	rcx, QWORD PTR [rsp+264]
	lea	rcx, OFFSET FLAT:__72010E87_bus@cpp
	call	__CheckForDebuggerJustMyCode
	mov	rax, QWORD PTR this$[rbp]
	lea	rcx, OFFSET FLAT:??_7device@@6B@
	mov	QWORD PTR [rax], rcx

; 179  : 	ticksdone = 0;

	mov	rax, QWORD PTR this$[rbp]
	mov	DWORD PTR [rax+32], 0

; 180  : 	tickstodo = 0;

	mov	rax, QWORD PTR this$[rbp]
	mov	DWORD PTR [rax+28], 0

; 181  : 	devicedescriptor = (char *)malloc(MAX_DESCRIPTOR_LENGTH);	// reserve 128 bytes.

	mov	ecx, 128				; 00000080H
	call	QWORD PTR __imp_malloc
	mov	rcx, QWORD PTR this$[rbp]
	mov	QWORD PTR [rcx+8], rax

; 182  : 	strcpy_s(devicedescriptor, MAX_DESCRIPTOR_LENGTH, "Denver Base Device");	// default device name for debugging.

	lea	r8, OFFSET FLAT:??_C@_0BD@MAHCLMLC@Denver?5Base?5Device@
	mov	edx, 128				; 00000080H
	mov	rax, QWORD PTR this$[rbp]
	mov	rcx, QWORD PTR [rax+8]
	call	QWORD PTR __imp_strcpy_s

; 183  : }

	mov	rax, QWORD PTR this$[rbp]
	lea	rsp, QWORD PTR [rbp+200]
	pop	rdi
	pop	rbp
	ret	0
??0device@@QEAA@XZ ENDP					; device::device
_TEXT	ENDS
; Function compile flags: /Odtp /RTCsu /ZI
; File c:\program files (x86)\microsoft visual studio\2017\community\vc\tools\msvc\14.16.27023\include\utility
;	COMDAT ??$_Min_value@_K@std@@YAAEB_KAEB_K0@Z
_TEXT	SEGMENT
$T1 = 200
$T2 = 232
tv65 = 248
_Left$ = 288
_Right$ = 296
??$_Min_value@_K@std@@YAAEB_KAEB_K0@Z PROC		; std::_Min_value<unsigned __int64>, COMDAT

; 23   : 	{	// return smaller of _Left and _Right

$LN5:
	mov	QWORD PTR [rsp+16], rdx
	mov	QWORD PTR [rsp+8], rcx
	push	rbp
	push	rdi
	sub	rsp, 296				; 00000128H
	lea	rbp, QWORD PTR [rsp+32]
	mov	rdi, rsp
	mov	ecx, 74					; 0000004aH
	mov	eax, -858993460				; ccccccccH
	rep stosd
	mov	rcx, QWORD PTR [rsp+328]
	mov	QWORD PTR $T2[rbp], -2
	lea	rcx, OFFSET FLAT:__E53366A2_utility
	call	__CheckForDebuggerJustMyCode
	npad	1

; 24   : 	return (_Right < _Left ? _Right : _Left);

	mov	rax, QWORD PTR _Right$[rbp]
	mov	rcx, QWORD PTR _Left$[rbp]
	mov	rcx, QWORD PTR [rcx]
	cmp	QWORD PTR [rax], rcx
	jae	SHORT $LN3@Min_value
	mov	rax, QWORD PTR _Right$[rbp]
	mov	QWORD PTR tv65[rbp], rax
	jmp	SHORT $LN4@Min_value
$LN3@Min_value:
	mov	rax, QWORD PTR _Left$[rbp]
	mov	QWORD PTR tv65[rbp], rax
$LN4@Min_value:
	mov	rax, QWORD PTR tv65[rbp]
	mov	QWORD PTR $T1[rbp], rax
	mov	rax, QWORD PTR $T1[rbp]

; 25   : 	}

	lea	rsp, QWORD PTR [rbp+264]
	pop	rdi
	pop	rbp
	ret	0
??$_Min_value@_K@std@@YAAEB_KAEB_K0@Z ENDP		; std::_Min_value<unsigned __int64>
_TEXT	ENDS
; Function compile flags: /Odtp /RTCsu /ZI
; File c:\program files (x86)\microsoft visual studio\2017\community\vc\tools\msvc\14.16.27023\include\xmemory0
;	COMDAT ?_Adjust_manually_vector_aligned@std@@YAXAEAPEAXAEA_K@Z
_TEXT	SEGMENT
_Ptr_user$ = 8
_Ptr_container$ = 40
_Min_back_shift$ = 72
_Back_shift$ = 104
_Ptr$ = 352
_Bytes$ = 360
?_Adjust_manually_vector_aligned@std@@YAXAEAPEAXAEA_K@Z PROC ; std::_Adjust_manually_vector_aligned, COMDAT

; 114  : 	{	// adjust parameters from _Allocate_manually_vector_aligned to pass to operator delete

$LN21:
	mov	QWORD PTR [rsp+16], rdx
	mov	QWORD PTR [rsp+8], rcx
	push	rbp
	push	rdi
	sub	rsp, 376				; 00000178H
	lea	rbp, QWORD PTR [rsp+48]
	mov	rdi, rsp
	mov	ecx, 94					; 0000005eH
	mov	eax, -858993460				; ccccccccH
	rep stosd
	mov	rcx, QWORD PTR [rsp+408]
	lea	rcx, OFFSET FLAT:__1CE3C767_xmemory0
	call	__CheckForDebuggerJustMyCode

; 115  : 	_Bytes += _Non_user_size;

	mov	rax, QWORD PTR _Bytes$[rbp]
	mov	rax, QWORD PTR [rax]
	add	rax, 47					; 0000002fH
	mov	rcx, QWORD PTR _Bytes$[rbp]
	mov	QWORD PTR [rcx], rax

; 116  : 
; 117  : 	const uintptr_t * const _Ptr_user = reinterpret_cast<uintptr_t *>(_Ptr);

	mov	rax, QWORD PTR _Ptr$[rbp]
	mov	rax, QWORD PTR [rax]
	mov	QWORD PTR _Ptr_user$[rbp], rax

; 118  : 	const uintptr_t _Ptr_container = _Ptr_user[-1];

	mov	eax, 8
	imul	rax, rax, -1
	mov	rcx, QWORD PTR _Ptr_user$[rbp]
	mov	rax, QWORD PTR [rcx+rax]
	mov	QWORD PTR _Ptr_container$[rbp], rax
$LN4@Adjust_man:

; 119  : 
; 120  : 	// If the following asserts, it likely means that we are performing
; 121  : 	// an aligned delete on memory coming from an unaligned allocation.
; 122  : 	_STL_ASSERT(_Ptr_user[-2] == _Big_allocation_sentinel, "invalid argument");

	mov	eax, 8
	imul	rax, rax, -2
	mov	rcx, QWORD PTR _Ptr_user$[rbp]
	mov	rdx, -361700864190383366		; fafafafafafafafaH
	cmp	QWORD PTR [rcx+rax], rdx
	jne	SHORT $LN14@Adjust_man
	jmp	SHORT $LN15@Adjust_man
$LN14@Adjust_man:
$LN7@Adjust_man:
	mov	eax, DWORD PTR ?__LINE__Var@?0??_Adjust_manually_vector_aligned@std@@YAXAEAPEAXAEA_K@Z@4JA
	add	eax, 8
	lea	rcx, OFFSET FLAT:??_C@_0BB@FCMFBGOM@invalid?5argument@
	mov	QWORD PTR [rsp+40], rcx
	lea	rcx, OFFSET FLAT:??_C@_02DKCKIIND@?$CFs@
	mov	QWORD PTR [rsp+32], rcx
	xor	r9d, r9d
	mov	r8d, eax
	lea	rdx, OFFSET FLAT:??_C@_0GJ@FFDBCFBF@c?3?2program?5files?5?$CIx86?$CJ?2microsof@
	mov	ecx, 2
	call	QWORD PTR __imp__CrtDbgReport
	cmp	eax, 1
	jne	SHORT $LN19@Adjust_man
	int	3
	xor	eax, eax
$LN19@Adjust_man:
	mov	eax, DWORD PTR ?__LINE__Var@?0??_Adjust_manually_vector_aligned@std@@YAXAEAPEAXAEA_K@Z@4JA
	add	eax, 8
	mov	QWORD PTR [rsp+32], 0
	mov	r9d, eax
	lea	r8, OFFSET FLAT:??_C@_1NC@PIOGAKBO@?$AAc?$AA?3?$AA?2?$AAp?$AAr?$AAo?$AAg?$AAr?$AAa?$AAm?$AA?5?$AAf?$AAi?$AAl?$AAe@
	lea	rdx, OFFSET FLAT:??_C@_1EK@NIFDJFDG@?$AAs?$AAt?$AAd?$AA?3?$AA?3?$AA_?$AAA?$AAd?$AAj?$AAu?$AAs?$AAt?$AA_?$AAm?$AAa@
	lea	rcx, OFFSET FLAT:??_C@_1CG@JNLFBNGN@?$AA?$CC?$AAi?$AAn?$AAv?$AAa?$AAl?$AAi?$AAd?$AA?5?$AAa?$AAr?$AAg?$AAu?$AAm?$AAe@
	call	QWORD PTR __imp__invalid_parameter
	xor	eax, eax
	test	eax, eax
	jne	SHORT $LN7@Adjust_man
$LN15@Adjust_man:
	xor	eax, eax
	test	eax, eax
	jne	$LN4@Adjust_man

; 123  : 
; 124  : 	// Extra paranoia on aligned allocation/deallocation; ensure _Ptr_container is
; 125  : 	// in range [_Min_back_shift, _Non_user_size]
; 126  :   #ifdef _DEBUG
; 127  : 	constexpr uintptr_t _Min_back_shift = 2 * sizeof(void *);

	mov	QWORD PTR _Min_back_shift$[rbp], 16

; 128  :   #else /* ^^^ _DEBUG ^^^ // vvv !_DEBUG vvv */
; 129  : 	constexpr uintptr_t _Min_back_shift = sizeof(void *);
; 130  :   #endif /* _DEBUG */
; 131  : 	const uintptr_t _Back_shift = reinterpret_cast<uintptr_t>(_Ptr) - _Ptr_container;

	mov	rax, QWORD PTR _Ptr$[rbp]
	mov	rcx, QWORD PTR _Ptr_container$[rbp]
	mov	rax, QWORD PTR [rax]
	sub	rax, rcx
	mov	QWORD PTR _Back_shift$[rbp], rax
$LN10@Adjust_man:

; 132  : 	_STL_VERIFY(_Back_shift >= _Min_back_shift && _Back_shift <= _Non_user_size, "invalid argument");

	cmp	QWORD PTR _Back_shift$[rbp], 16
	jb	SHORT $LN16@Adjust_man
	cmp	QWORD PTR _Back_shift$[rbp], 47		; 0000002fH
	ja	SHORT $LN16@Adjust_man
	jmp	SHORT $LN17@Adjust_man
$LN16@Adjust_man:
$LN13@Adjust_man:
	mov	eax, DWORD PTR ?__LINE__Var@?0??_Adjust_manually_vector_aligned@std@@YAXAEAPEAXAEA_K@Z@4JA
	add	eax, 18
	lea	rcx, OFFSET FLAT:??_C@_0BB@FCMFBGOM@invalid?5argument@
	mov	QWORD PTR [rsp+40], rcx
	lea	rcx, OFFSET FLAT:??_C@_02DKCKIIND@?$CFs@
	mov	QWORD PTR [rsp+32], rcx
	xor	r9d, r9d
	mov	r8d, eax
	lea	rdx, OFFSET FLAT:??_C@_0GJ@FFDBCFBF@c?3?2program?5files?5?$CIx86?$CJ?2microsof@
	mov	ecx, 2
	call	QWORD PTR __imp__CrtDbgReport
	cmp	eax, 1
	jne	SHORT $LN20@Adjust_man
	int	3
	xor	eax, eax
$LN20@Adjust_man:
	mov	eax, DWORD PTR ?__LINE__Var@?0??_Adjust_manually_vector_aligned@std@@YAXAEAPEAXAEA_K@Z@4JA
	add	eax, 18
	mov	QWORD PTR [rsp+32], 0
	mov	r9d, eax
	lea	r8, OFFSET FLAT:??_C@_1NC@PIOGAKBO@?$AAc?$AA?3?$AA?2?$AAp?$AAr?$AAo?$AAg?$AAr?$AAa?$AAm?$AA?5?$AAf?$AAi?$AAl?$AAe@
	lea	rdx, OFFSET FLAT:??_C@_1EK@NIFDJFDG@?$AAs?$AAt?$AAd?$AA?3?$AA?3?$AA_?$AAA?$AAd?$AAj?$AAu?$AAs?$AAt?$AA_?$AAm?$AAa@
	lea	rcx, OFFSET FLAT:??_C@_1CG@JNLFBNGN@?$AA?$CC?$AAi?$AAn?$AAv?$AAa?$AAl?$AAi?$AAd?$AA?5?$AAa?$AAr?$AAg?$AAu?$AAm?$AAe@
	call	QWORD PTR __imp__invalid_parameter
	xor	eax, eax
	test	eax, eax
	jne	SHORT $LN13@Adjust_man
$LN17@Adjust_man:
	xor	eax, eax
	test	eax, eax
	jne	$LN10@Adjust_man

; 133  : 	_Ptr = reinterpret_cast<void *>(_Ptr_container);

	mov	rax, QWORD PTR _Ptr$[rbp]
	mov	rcx, QWORD PTR _Ptr_container$[rbp]
	mov	QWORD PTR [rax], rcx

; 134  : 	}

	lea	rsp, QWORD PTR [rbp+328]
	pop	rdi
	pop	rbp
	ret	0
?_Adjust_manually_vector_aligned@std@@YAXAEAPEAXAEA_K@Z ENDP ; std::_Adjust_manually_vector_aligned
_TEXT	ENDS
; Function compile flags: /Odtp /RTCsu /ZI
; File c:\program files (x86)\microsoft visual studio\2017\community\vc\tools\msvc\14.16.27023\include\xmemory0
;	COMDAT ?_Allocate@_Default_allocate_traits@std@@SAPEAX_K@Z
_TEXT	SEGMENT
_Bytes$ = 224
?_Allocate@_Default_allocate_traits@std@@SAPEAX_K@Z PROC ; std::_Default_allocate_traits::_Allocate, COMDAT

; 51   : 		{

$LN3:
	mov	QWORD PTR [rsp+8], rcx
	push	rbp
	push	rdi
	sub	rsp, 232				; 000000e8H
	lea	rbp, QWORD PTR [rsp+32]
	mov	rdi, rsp
	mov	ecx, 58					; 0000003aH
	mov	eax, -858993460				; ccccccccH
	rep stosd
	mov	rcx, QWORD PTR [rsp+264]
	lea	rcx, OFFSET FLAT:__1CE3C767_xmemory0
	call	__CheckForDebuggerJustMyCode

; 52   : 		return (::operator new(_Bytes));

	mov	rcx, QWORD PTR _Bytes$[rbp]
	call	??2@YAPEAX_K@Z				; operator new

; 53   : 		}

	lea	rsp, QWORD PTR [rbp+200]
	pop	rdi
	pop	rbp
	ret	0
?_Allocate@_Default_allocate_traits@std@@SAPEAX_K@Z ENDP ; std::_Default_allocate_traits::_Allocate
_TEXT	ENDS
; Function compile flags: /Odtp /RTCsu /ZI
; File c:\program files (x86)\microsoft visual studio\2017\community\vc\tools\msvc\14.16.27023\include\xutility
;	COMDAT ?_Orphan_me@_Iterator_base12@std@@QEAAXXZ
_TEXT	SEGMENT
_Pnext$1 = 8
$T2 = 232
this$ = 288
?_Orphan_me@_Iterator_base12@std@@QEAAXXZ PROC		; std::_Iterator_base12::_Orphan_me, COMDAT

; 191  : 		{	// cut ties with parent

$LN15:
	mov	QWORD PTR [rsp+8], rcx
	push	rbp
	push	rdi
	sub	rsp, 312				; 00000138H
	lea	rbp, QWORD PTR [rsp+48]
	mov	rdi, rsp
	mov	ecx, 78					; 0000004eH
	mov	eax, -858993460				; ccccccccH
	rep stosd
	mov	rcx, QWORD PTR [rsp+344]
	mov	QWORD PTR $T2[rbp], -2
	lea	rcx, OFFSET FLAT:__CDB00636_xutility
	call	__CheckForDebuggerJustMyCode
	npad	1

; 192  :  #if _ITERATOR_DEBUG_LEVEL == 2
; 193  : 		if (_Myproxy != nullptr)

	mov	rax, QWORD PTR this$[rbp]
	cmp	QWORD PTR [rax], 0
	je	$LN10@Orphan_me

; 194  : 			{	// adopted, remove self from list
; 195  : 			_Iterator_base12 **_Pnext = &_Myproxy->_Myfirstiter;

	mov	rax, QWORD PTR this$[rbp]
	mov	rax, QWORD PTR [rax]
	add	rax, 8
	mov	QWORD PTR _Pnext$1[rbp], rax
$LN2@Orphan_me:

; 196  : 			while (*_Pnext != nullptr && *_Pnext != this)

	mov	rax, QWORD PTR _Pnext$1[rbp]
	cmp	QWORD PTR [rax], 0
	je	SHORT $LN6@Orphan_me
	mov	rax, QWORD PTR _Pnext$1[rbp]
	mov	rcx, QWORD PTR this$[rbp]
	cmp	QWORD PTR [rax], rcx
	je	SHORT $LN6@Orphan_me

; 197  : 				_Pnext = &(*_Pnext)->_Mynextiter;

	mov	rax, QWORD PTR _Pnext$1[rbp]
	mov	rax, QWORD PTR [rax]
	add	rax, 8
	mov	QWORD PTR _Pnext$1[rbp], rax
	jmp	SHORT $LN2@Orphan_me
$LN6@Orphan_me:

; 198  : 
; 199  : 			_STL_VERIFY(*_Pnext, "ITERATOR LIST CORRUPTED!");

	mov	rax, QWORD PTR _Pnext$1[rbp]
	cmp	QWORD PTR [rax], 0
	je	SHORT $LN9@Orphan_me
	jmp	SHORT $LN12@Orphan_me
$LN9@Orphan_me:
	lea	rax, OFFSET FLAT:??_C@_0BJ@LFDBABJJ@ITERATOR?5LIST?5CORRUPTED?$CB@
	mov	QWORD PTR [rsp+40], rax
	lea	rax, OFFSET FLAT:??_C@_02DKCKIIND@?$CFs@
	mov	QWORD PTR [rsp+32], rax
	xor	r9d, r9d
	mov	r8d, 199				; 000000c7H
	lea	rdx, OFFSET FLAT:??_C@_0GJ@EJIMBHLG@c?3?2program?5files?5?$CIx86?$CJ?2microsof@
	mov	ecx, 2
	call	QWORD PTR __imp__CrtDbgReport
	npad	1
	cmp	eax, 1
	jne	SHORT $LN14@Orphan_me
	int	3
	xor	eax, eax
$LN14@Orphan_me:
	mov	QWORD PTR [rsp+32], 0
	mov	r9d, 199				; 000000c7H
	lea	r8, OFFSET FLAT:??_C@_1NC@FANNPLN@?$AAc?$AA?3?$AA?2?$AAp?$AAr?$AAo?$AAg?$AAr?$AAa?$AAm?$AA?5?$AAf?$AAi?$AAl?$AAe@
	lea	rdx, OFFSET FLAT:??_C@_1EE@KLDMFDFL@?$AAs?$AAt?$AAd?$AA?3?$AA?3?$AA_?$AAI?$AAt?$AAe?$AAr?$AAa?$AAt?$AAo?$AAr?$AA_@
	lea	rcx, OFFSET FLAT:??_C@_1DG@PLBPCAEM@?$AA?$CC?$AAI?$AAT?$AAE?$AAR?$AAA?$AAT?$AAO?$AAR?$AA?5?$AAL?$AAI?$AAS?$AAT?$AA?5@
	call	QWORD PTR __imp__invalid_parameter
	npad	1
	xor	eax, eax
	test	eax, eax
	jne	SHORT $LN9@Orphan_me
$LN12@Orphan_me:
	xor	eax, eax
	test	eax, eax
	jne	SHORT $LN6@Orphan_me

; 200  : 			*_Pnext = _Mynextiter;

	mov	rax, QWORD PTR _Pnext$1[rbp]
	mov	rcx, QWORD PTR this$[rbp]
	mov	rcx, QWORD PTR [rcx+8]
	mov	QWORD PTR [rax], rcx

; 201  : 			_Myproxy = nullptr;

	mov	rax, QWORD PTR this$[rbp]
	mov	QWORD PTR [rax], 0
$LN10@Orphan_me:

; 202  : 			}
; 203  :  #endif /* _ITERATOR_DEBUG_LEVEL == 2 */
; 204  : 		}

	lea	rsp, QWORD PTR [rbp+264]
	pop	rdi
	pop	rbp
	ret	0
?_Orphan_me@_Iterator_base12@std@@QEAAXXZ ENDP		; std::_Iterator_base12::_Orphan_me
_TEXT	ENDS
; Function compile flags: /Odtp /RTCsu /ZI
; File c:\program files (x86)\microsoft visual studio\2017\community\vc\tools\msvc\14.16.27023\include\xutility
;	COMDAT ?_Getpnext@_Iterator_base12@std@@QEAAPEAPEAU12@XZ
_TEXT	SEGMENT
$T1 = 200
this$ = 256
?_Getpnext@_Iterator_base12@std@@QEAAPEAPEAU12@XZ PROC	; std::_Iterator_base12::_Getpnext, COMDAT

; 186  : 		{	// get address of remaining iterator chain

$LN3:
	mov	QWORD PTR [rsp+8], rcx
	push	rbp
	push	rdi
	sub	rsp, 264				; 00000108H
	lea	rbp, QWORD PTR [rsp+32]
	mov	rdi, rsp
	mov	ecx, 66					; 00000042H
	mov	eax, -858993460				; ccccccccH
	rep stosd
	mov	rcx, QWORD PTR [rsp+296]
	mov	QWORD PTR $T1[rbp], -2
	lea	rcx, OFFSET FLAT:__CDB00636_xutility
	call	__CheckForDebuggerJustMyCode
	npad	1

; 187  : 		return (&_Mynextiter);

	mov	rax, QWORD PTR this$[rbp]
	add	rax, 8

; 188  : 		}

	lea	rsp, QWORD PTR [rbp+232]
	pop	rdi
	pop	rbp
	ret	0
?_Getpnext@_Iterator_base12@std@@QEAAPEAPEAU12@XZ ENDP	; std::_Iterator_base12::_Getpnext
_TEXT	ENDS
; Function compile flags: /Odtp /RTCsu /ZI
; File c:\program files (x86)\microsoft visual studio\2017\community\vc\tools\msvc\14.16.27023\include\xutility
;	COMDAT ?_Getcont@_Iterator_base12@std@@QEBAPEBU_Container_base12@2@XZ
_TEXT	SEGMENT
$T1 = 200
tv68 = 216
this$ = 256
?_Getcont@_Iterator_base12@std@@QEBAPEBU_Container_base12@2@XZ PROC ; std::_Iterator_base12::_Getcont, COMDAT

; 181  : 		{	// get owning container

$LN5:
	mov	QWORD PTR [rsp+8], rcx
	push	rbp
	push	rdi
	sub	rsp, 264				; 00000108H
	lea	rbp, QWORD PTR [rsp+32]
	mov	rdi, rsp
	mov	ecx, 66					; 00000042H
	mov	eax, -858993460				; ccccccccH
	rep stosd
	mov	rcx, QWORD PTR [rsp+296]
	mov	QWORD PTR $T1[rbp], -2
	lea	rcx, OFFSET FLAT:__CDB00636_xutility
	call	__CheckForDebuggerJustMyCode
	npad	1

; 182  : 		return (_Myproxy == nullptr ? nullptr : _Myproxy->_Mycont);

	mov	rax, QWORD PTR this$[rbp]
	cmp	QWORD PTR [rax], 0
	jne	SHORT $LN3@Getcont
	mov	QWORD PTR tv68[rbp], 0
	jmp	SHORT $LN4@Getcont
$LN3@Getcont:
	mov	rax, QWORD PTR this$[rbp]
	mov	rax, QWORD PTR [rax]
	mov	rax, QWORD PTR [rax]
	mov	QWORD PTR tv68[rbp], rax
$LN4@Getcont:
	mov	rax, QWORD PTR tv68[rbp]

; 183  : 		}

	lea	rsp, QWORD PTR [rbp+232]
	pop	rdi
	pop	rbp
	ret	0
?_Getcont@_Iterator_base12@std@@QEBAPEBU_Container_base12@2@XZ ENDP ; std::_Iterator_base12::_Getcont
_TEXT	ENDS
; Function compile flags: /Odtp /RTCsu /ZI
; File c:\program files (x86)\microsoft visual studio\2017\community\vc\tools\msvc\14.16.27023\include\xutility
;	COMDAT ?_Clrcont@_Iterator_base12@std@@QEAAXXZ
_TEXT	SEGMENT
$T1 = 200
this$ = 256
?_Clrcont@_Iterator_base12@std@@QEAAXXZ PROC		; std::_Iterator_base12::_Clrcont, COMDAT

; 176  : 		{	// disown owning container

$LN3:
	mov	QWORD PTR [rsp+8], rcx
	push	rbp
	push	rdi
	sub	rsp, 264				; 00000108H
	lea	rbp, QWORD PTR [rsp+32]
	mov	rdi, rsp
	mov	ecx, 66					; 00000042H
	mov	eax, -858993460				; ccccccccH
	rep stosd
	mov	rcx, QWORD PTR [rsp+296]
	mov	QWORD PTR $T1[rbp], -2
	lea	rcx, OFFSET FLAT:__CDB00636_xutility
	call	__CheckForDebuggerJustMyCode
	npad	1

; 177  : 		_Myproxy = nullptr;

	mov	rax, QWORD PTR this$[rbp]
	mov	QWORD PTR [rax], 0

; 178  : 		}

	lea	rsp, QWORD PTR [rbp+232]
	pop	rdi
	pop	rbp
	ret	0
?_Clrcont@_Iterator_base12@std@@QEAAXXZ ENDP		; std::_Iterator_base12::_Clrcont
_TEXT	ENDS
; Function compile flags: /Odtp /RTCsu /ZI
; File c:\program files (x86)\microsoft visual studio\2017\community\vc\tools\msvc\14.16.27023\include\xutility
;	COMDAT ?_Adopt@_Iterator_base12@std@@QEAAXPEBU_Container_base12@2@@Z
_TEXT	SEGMENT
_Lock$5 = 4
_Parent_proxy$6 = 40
_Lock$7 = 68
$T8 = 296
__$ArrayPad$ = 312
this$ = 352
_Parent$ = 360
?_Adopt@_Iterator_base12@std@@QEAAXPEBU_Container_base12@2@@Z PROC ; std::_Iterator_base12::_Adopt, COMDAT

; 147  : 		{	// adopt this iterator by parent

$LN6:
	mov	QWORD PTR [rsp+16], rdx
	mov	QWORD PTR [rsp+8], rcx
	push	rbp
	push	rdi
	sub	rsp, 360				; 00000168H
	lea	rbp, QWORD PTR [rsp+32]
	mov	rdi, rsp
	mov	ecx, 90					; 0000005aH
	mov	eax, -858993460				; ccccccccH
	rep stosd
	mov	rcx, QWORD PTR [rsp+392]
	mov	QWORD PTR $T8[rbp], -2
	mov	rax, QWORD PTR __security_cookie
	xor	rax, rbp
	mov	QWORD PTR __$ArrayPad$[rbp], rax
	lea	rcx, OFFSET FLAT:__CDB00636_xutility
	call	__CheckForDebuggerJustMyCode
	npad	1

; 148  : 		if (_Parent == nullptr)

	cmp	QWORD PTR _Parent$[rbp], 0
	jne	SHORT $LN2@Adopt

; 149  : 			{	// no future parent, just disown current parent
; 150  :  #if _ITERATOR_DEBUG_LEVEL == 2
; 151  : 			_Lockit _Lock(_LOCK_DEBUG);

	mov	edx, 3
	lea	rcx, QWORD PTR _Lock$5[rbp]
	call	QWORD PTR __imp_??0_Lockit@std@@QEAA@H@Z
	npad	1

; 152  : 			_Orphan_me();

	mov	rcx, QWORD PTR this$[rbp]
	call	?_Orphan_me@_Iterator_base12@std@@QEAAXXZ ; std::_Iterator_base12::_Orphan_me
	npad	1

; 153  :  #endif /* _ITERATOR_DEBUG_LEVEL == 2 */
; 154  : 			}

	lea	rcx, QWORD PTR _Lock$5[rbp]
	call	QWORD PTR __imp_??1_Lockit@std@@QEAA@XZ
	npad	1

; 155  : 		else

	jmp	SHORT $LN3@Adopt
$LN2@Adopt:

; 156  : 			{	// have a parent, do adoption
; 157  : 			_Container_proxy *_Parent_proxy = _Parent->_Myproxy;

	mov	rax, QWORD PTR _Parent$[rbp]
	mov	rax, QWORD PTR [rax]
	mov	QWORD PTR _Parent_proxy$6[rbp], rax

; 158  : 
; 159  :  #if _ITERATOR_DEBUG_LEVEL == 2
; 160  : 			if (_Myproxy != _Parent_proxy)

	mov	rax, QWORD PTR this$[rbp]
	mov	rcx, QWORD PTR _Parent_proxy$6[rbp]
	cmp	QWORD PTR [rax], rcx
	je	SHORT $LN3@Adopt

; 161  : 				{	// change parentage
; 162  : 				_Lockit _Lock(_LOCK_DEBUG);

	mov	edx, 3
	lea	rcx, QWORD PTR _Lock$7[rbp]
	call	QWORD PTR __imp_??0_Lockit@std@@QEAA@H@Z
	npad	1

; 163  : 				_Orphan_me();

	mov	rcx, QWORD PTR this$[rbp]
	call	?_Orphan_me@_Iterator_base12@std@@QEAAXXZ ; std::_Iterator_base12::_Orphan_me
	npad	1

; 164  : 				_Mynextiter = _Parent_proxy->_Myfirstiter;

	mov	rax, QWORD PTR this$[rbp]
	mov	rcx, QWORD PTR _Parent_proxy$6[rbp]
	mov	rcx, QWORD PTR [rcx+8]
	mov	QWORD PTR [rax+8], rcx

; 165  : 				_Parent_proxy->_Myfirstiter = this;

	mov	rax, QWORD PTR _Parent_proxy$6[rbp]
	mov	rcx, QWORD PTR this$[rbp]
	mov	QWORD PTR [rax+8], rcx

; 166  : 				_Myproxy = _Parent_proxy;

	mov	rax, QWORD PTR this$[rbp]
	mov	rcx, QWORD PTR _Parent_proxy$6[rbp]
	mov	QWORD PTR [rax], rcx

; 167  : 				}

	lea	rcx, QWORD PTR _Lock$7[rbp]
	call	QWORD PTR __imp_??1_Lockit@std@@QEAA@XZ
	npad	1
$LN3@Adopt:

; 168  : 
; 169  :  #else /* _ITERATOR_DEBUG_LEVEL == 2 */
; 170  : 			_Myproxy = _Parent_proxy;
; 171  :  #endif /* _ITERATOR_DEBUG_LEVEL == 2 */
; 172  : 			}
; 173  : 		}

	lea	rcx, QWORD PTR [rbp-32]
	lea	rdx, OFFSET FLAT:?_Adopt@_Iterator_base12@std@@QEAAXPEBU_Container_base12@2@@Z$rtcFrameData
	call	_RTC_CheckStackVars
	npad	1
	mov	rcx, QWORD PTR __$ArrayPad$[rbp]
	xor	rcx, rbp
	call	__security_check_cookie
	npad	1
	lea	rsp, QWORD PTR [rbp+328]
	pop	rdi
	pop	rbp
	ret	0
?_Adopt@_Iterator_base12@std@@QEAAXPEBU_Container_base12@2@@Z ENDP ; std::_Iterator_base12::_Adopt
_TEXT	ENDS
; Function compile flags: /Odtp /RTCsu /ZI
; File c:\program files (x86)\microsoft visual studio\2017\community\vc\tools\msvc\14.16.27023\include\xutility
;	COMDAT ??1_Iterator_base12@std@@QEAA@XZ
_TEXT	SEGMENT
_Lock$ = 4
$T4 = 232
__$ArrayPad$ = 248
this$ = 288
??1_Iterator_base12@std@@QEAA@XZ PROC			; std::_Iterator_base12::~_Iterator_base12, COMDAT

; 139  : 		{	// destroy the iterator

$LN3:
	mov	QWORD PTR [rsp+8], rcx
	push	rbp
	push	rdi
	sub	rsp, 296				; 00000128H
	lea	rbp, QWORD PTR [rsp+32]
	mov	rdi, rsp
	mov	ecx, 74					; 0000004aH
	mov	eax, -858993460				; ccccccccH
	rep stosd
	mov	rcx, QWORD PTR [rsp+328]
	mov	QWORD PTR $T4[rbp], -2
	mov	rax, QWORD PTR __security_cookie
	xor	rax, rbp
	mov	QWORD PTR __$ArrayPad$[rbp], rax
	lea	rcx, OFFSET FLAT:__CDB00636_xutility
	call	__CheckForDebuggerJustMyCode
	npad	1

; 140  :  #if _ITERATOR_DEBUG_LEVEL == 2
; 141  : 		_Lockit _Lock(_LOCK_DEBUG);

	mov	edx, 3
	lea	rcx, QWORD PTR _Lock$[rbp]
	call	QWORD PTR __imp_??0_Lockit@std@@QEAA@H@Z
	npad	1

; 142  : 		_Orphan_me();

	mov	rcx, QWORD PTR this$[rbp]
	call	?_Orphan_me@_Iterator_base12@std@@QEAAXXZ ; std::_Iterator_base12::_Orphan_me
	npad	1

; 143  :  #endif /* _ITERATOR_DEBUG_LEVEL == 2 */
; 144  : 		}

	lea	rcx, QWORD PTR _Lock$[rbp]
	call	QWORD PTR __imp_??1_Lockit@std@@QEAA@XZ
	npad	1
	lea	rcx, QWORD PTR [rbp-32]
	lea	rdx, OFFSET FLAT:??1_Iterator_base12@std@@QEAA@XZ$rtcFrameData
	call	_RTC_CheckStackVars
	npad	1
	mov	rcx, QWORD PTR __$ArrayPad$[rbp]
	xor	rcx, rbp
	call	__security_check_cookie
	npad	1
	lea	rsp, QWORD PTR [rbp+264]
	pop	rdi
	pop	rbp
	ret	0
??1_Iterator_base12@std@@QEAA@XZ ENDP			; std::_Iterator_base12::~_Iterator_base12
_TEXT	ENDS
; Function compile flags: /Odtp /RTCsu /ZI
; File c:\program files (x86)\microsoft visual studio\2017\community\vc\tools\msvc\14.16.27023\include\xutility
;	COMDAT ??4_Iterator_base12@std@@QEAAAEAU01@AEBU01@@Z
_TEXT	SEGMENT
_Lock$4 = 4
$T5 = 232
__$ArrayPad$ = 248
this$ = 288
_Right$ = 296
??4_Iterator_base12@std@@QEAAAEAU01@AEBU01@@Z PROC	; std::_Iterator_base12::operator=, COMDAT

; 119  : 		{	// assign an iterator

$LN6:
	mov	QWORD PTR [rsp+16], rdx
	mov	QWORD PTR [rsp+8], rcx
	push	rbp
	push	rdi
	sub	rsp, 296				; 00000128H
	lea	rbp, QWORD PTR [rsp+32]
	mov	rdi, rsp
	mov	ecx, 74					; 0000004aH
	mov	eax, -858993460				; ccccccccH
	rep stosd
	mov	rcx, QWORD PTR [rsp+328]
	mov	QWORD PTR $T5[rbp], -2
	mov	rax, QWORD PTR __security_cookie
	xor	rax, rbp
	mov	QWORD PTR __$ArrayPad$[rbp], rax
	lea	rcx, OFFSET FLAT:__CDB00636_xutility
	call	__CheckForDebuggerJustMyCode
	npad	1

; 120  : 		if (_Myproxy != _Right._Myproxy)

	mov	rax, QWORD PTR this$[rbp]
	mov	rcx, QWORD PTR _Right$[rbp]
	mov	rcx, QWORD PTR [rcx]
	cmp	QWORD PTR [rax], rcx
	je	SHORT $LN2@operator

; 121  : 			{
; 122  : 			if (_Right._Myproxy == nullptr)

	mov	rax, QWORD PTR _Right$[rbp]
	cmp	QWORD PTR [rax], 0
	jne	SHORT $LN3@operator

; 123  : 				{	// becoming invalid, disown current parent
; 124  :  #if _ITERATOR_DEBUG_LEVEL == 2
; 125  : 				_Lockit _Lock(_LOCK_DEBUG);

	mov	edx, 3
	lea	rcx, QWORD PTR _Lock$4[rbp]
	call	QWORD PTR __imp_??0_Lockit@std@@QEAA@H@Z
	npad	1

; 126  : 				_Orphan_me();

	mov	rcx, QWORD PTR this$[rbp]
	call	?_Orphan_me@_Iterator_base12@std@@QEAAXXZ ; std::_Iterator_base12::_Orphan_me
	npad	1

; 127  :  #endif /* _ITERATOR_DEBUG_LEVEL == 2 */
; 128  : 				}

	lea	rcx, QWORD PTR _Lock$4[rbp]
	call	QWORD PTR __imp_??1_Lockit@std@@QEAA@XZ
	npad	1

; 129  : 			else

	jmp	SHORT $LN2@operator
$LN3@operator:

; 130  : 				{
; 131  : 				_Adopt(_Right._Myproxy->_Mycont);

	mov	rax, QWORD PTR _Right$[rbp]
	mov	rax, QWORD PTR [rax]
	mov	rdx, QWORD PTR [rax]
	mov	rcx, QWORD PTR this$[rbp]
	call	?_Adopt@_Iterator_base12@std@@QEAAXPEBU_Container_base12@2@@Z ; std::_Iterator_base12::_Adopt
	npad	1
$LN2@operator:

; 132  : 				}
; 133  : 			}
; 134  : 
; 135  : 		return (*this);

	mov	rax, QWORD PTR this$[rbp]

; 136  : 		}

	mov	rdi, rax
	lea	rcx, QWORD PTR [rbp-32]
	lea	rdx, OFFSET FLAT:??4_Iterator_base12@std@@QEAAAEAU01@AEBU01@@Z$rtcFrameData
	call	_RTC_CheckStackVars
	npad	1
	mov	rax, rdi
	mov	rcx, QWORD PTR __$ArrayPad$[rbp]
	xor	rcx, rbp
	call	__security_check_cookie
	npad	1
	lea	rsp, QWORD PTR [rbp+264]
	pop	rdi
	pop	rbp
	ret	0
??4_Iterator_base12@std@@QEAAAEAU01@AEBU01@@Z ENDP	; std::_Iterator_base12::operator=
_TEXT	ENDS
; Function compile flags: /Odtp /RTCsu /ZI
; File c:\program files (x86)\microsoft visual studio\2017\community\vc\tools\msvc\14.16.27023\include\xutility
;	COMDAT ??0_Iterator_base12@std@@QEAA@AEBU01@@Z
_TEXT	SEGMENT
$T1 = 200
this$ = 256
_Right$ = 264
??0_Iterator_base12@std@@QEAA@AEBU01@@Z PROC		; std::_Iterator_base12::_Iterator_base12, COMDAT

; 114  : 		{	// copy an iterator

$LN3:
	mov	QWORD PTR [rsp+16], rdx
	mov	QWORD PTR [rsp+8], rcx
	push	rbp
	push	rdi
	sub	rsp, 264				; 00000108H
	lea	rbp, QWORD PTR [rsp+32]
	mov	rdi, rsp
	mov	ecx, 66					; 00000042H
	mov	eax, -858993460				; ccccccccH
	rep stosd
	mov	rcx, QWORD PTR [rsp+296]
	mov	QWORD PTR $T1[rbp], -2
	lea	rcx, OFFSET FLAT:__CDB00636_xutility
	call	__CheckForDebuggerJustMyCode
	npad	1

; 113  : 		: _Myproxy(nullptr), _Mynextiter(nullptr)

	mov	rax, QWORD PTR this$[rbp]
	mov	QWORD PTR [rax], 0
	mov	rax, QWORD PTR this$[rbp]
	mov	QWORD PTR [rax+8], 0

; 115  : 		*this = _Right;

	mov	rdx, QWORD PTR _Right$[rbp]
	mov	rcx, QWORD PTR this$[rbp]
	call	??4_Iterator_base12@std@@QEAAAEAU01@AEBU01@@Z ; std::_Iterator_base12::operator=
	npad	1

; 116  : 		}

	mov	rax, QWORD PTR this$[rbp]
	lea	rsp, QWORD PTR [rbp+232]
	pop	rdi
	pop	rbp
	ret	0
??0_Iterator_base12@std@@QEAA@AEBU01@@Z ENDP		; std::_Iterator_base12::_Iterator_base12
_TEXT	ENDS
; Function compile flags: /Odtp /RTCsu /ZI
; File c:\program files (x86)\microsoft visual studio\2017\community\vc\tools\msvc\14.16.27023\include\xutility
;	COMDAT ??0_Iterator_base12@std@@QEAA@XZ
_TEXT	SEGMENT
$T1 = 200
this$ = 256
??0_Iterator_base12@std@@QEAA@XZ PROC			; std::_Iterator_base12::_Iterator_base12, COMDAT

; 109  : 		{	// construct orphaned iterator

$LN3:
	mov	QWORD PTR [rsp+8], rcx
	push	rbp
	push	rdi
	sub	rsp, 264				; 00000108H
	lea	rbp, QWORD PTR [rsp+32]
	mov	rdi, rsp
	mov	ecx, 66					; 00000042H
	mov	eax, -858993460				; ccccccccH
	rep stosd
	mov	rcx, QWORD PTR [rsp+296]
	mov	QWORD PTR $T1[rbp], -2
	lea	rcx, OFFSET FLAT:__CDB00636_xutility
	call	__CheckForDebuggerJustMyCode
	npad	1

; 108  : 		: _Myproxy(nullptr), _Mynextiter(nullptr)

	mov	rax, QWORD PTR this$[rbp]
	mov	QWORD PTR [rax], 0
	mov	rax, QWORD PTR this$[rbp]
	mov	QWORD PTR [rax+8], 0

; 110  : 		}

	mov	rax, QWORD PTR this$[rbp]
	lea	rsp, QWORD PTR [rbp+232]
	pop	rdi
	pop	rbp
	ret	0
??0_Iterator_base12@std@@QEAA@XZ ENDP			; std::_Iterator_base12::_Iterator_base12
_TEXT	ENDS
; Function compile flags: /Odtp /RTCsu /ZI
; File c:\program files (x86)\microsoft visual studio\2017\community\vc\tools\msvc\14.16.27023\include\xutility
;	COMDAT ?_Orphan_all@_Container_base12@std@@QEAAXXZ
_TEXT	SEGMENT
_Lock$4 = 4
_Pnext$5 = 40
$T6 = 264
__$ArrayPad$ = 280
this$ = 320
?_Orphan_all@_Container_base12@std@@QEAAXXZ PROC	; std::_Container_base12::_Orphan_all, COMDAT

; 214  : 	{	// orphan all iterators

$LN7:
	mov	QWORD PTR [rsp+8], rcx
	push	rbp
	push	rdi
	sub	rsp, 328				; 00000148H
	lea	rbp, QWORD PTR [rsp+32]
	mov	rdi, rsp
	mov	ecx, 82					; 00000052H
	mov	eax, -858993460				; ccccccccH
	rep stosd
	mov	rcx, QWORD PTR [rsp+360]
	mov	QWORD PTR $T6[rbp], -2
	mov	rax, QWORD PTR __security_cookie
	xor	rax, rbp
	mov	QWORD PTR __$ArrayPad$[rbp], rax
	lea	rcx, OFFSET FLAT:__CDB00636_xutility
	call	__CheckForDebuggerJustMyCode
	npad	1

; 215  :  #if _ITERATOR_DEBUG_LEVEL == 2
; 216  : 	if (_Myproxy != nullptr)

	mov	rax, QWORD PTR this$[rbp]
	cmp	QWORD PTR [rax], 0
	je	SHORT $LN5@Orphan_all

; 217  : 		{	// proxy allocated, drain it
; 218  : 		_Lockit _Lock(_LOCK_DEBUG);

	mov	edx, 3
	lea	rcx, QWORD PTR _Lock$4[rbp]
	call	QWORD PTR __imp_??0_Lockit@std@@QEAA@H@Z
	npad	1

; 219  : 
; 220  : 		for (_Iterator_base12 **_Pnext = &_Myproxy->_Myfirstiter;

	mov	rax, QWORD PTR this$[rbp]
	mov	rax, QWORD PTR [rax]
	add	rax, 8
	mov	QWORD PTR _Pnext$5[rbp], rax
	jmp	SHORT $LN4@Orphan_all
$LN2@Orphan_all:

; 221  : 			*_Pnext != nullptr; *_Pnext = (*_Pnext)->_Mynextiter)

	mov	rax, QWORD PTR _Pnext$5[rbp]
	mov	rax, QWORD PTR [rax]
	mov	rcx, QWORD PTR _Pnext$5[rbp]
	mov	rax, QWORD PTR [rax+8]
	mov	QWORD PTR [rcx], rax
$LN4@Orphan_all:
	mov	rax, QWORD PTR _Pnext$5[rbp]
	cmp	QWORD PTR [rax], 0
	je	SHORT $LN3@Orphan_all

; 222  : 			(*_Pnext)->_Myproxy = nullptr;

	mov	rax, QWORD PTR _Pnext$5[rbp]
	mov	rax, QWORD PTR [rax]
	mov	QWORD PTR [rax], 0
	jmp	SHORT $LN2@Orphan_all
$LN3@Orphan_all:

; 223  : 		_Myproxy->_Myfirstiter = nullptr;

	mov	rax, QWORD PTR this$[rbp]
	mov	rax, QWORD PTR [rax]
	mov	QWORD PTR [rax+8], 0

; 224  : 		}

	lea	rcx, QWORD PTR _Lock$4[rbp]
	call	QWORD PTR __imp_??1_Lockit@std@@QEAA@XZ
	npad	1
$LN5@Orphan_all:

; 225  :  #endif /* _ITERATOR_DEBUG_LEVEL == 2 */
; 226  : 	}

	lea	rcx, QWORD PTR [rbp-32]
	lea	rdx, OFFSET FLAT:?_Orphan_all@_Container_base12@std@@QEAAXXZ$rtcFrameData
	call	_RTC_CheckStackVars
	npad	1
	mov	rcx, QWORD PTR __$ArrayPad$[rbp]
	xor	rcx, rbp
	call	__security_check_cookie
	npad	1
	lea	rsp, QWORD PTR [rbp+296]
	pop	rdi
	pop	rbp
	ret	0
?_Orphan_all@_Container_base12@std@@QEAAXXZ ENDP	; std::_Container_base12::_Orphan_all
_TEXT	ENDS
; Function compile flags: /Odtp /RTCsu /ZI
; File c:\program files (x86)\microsoft visual studio\2017\community\vc\tools\msvc\14.16.27023\include\xutility
;	COMDAT ?_Getpfirst@_Container_base12@std@@QEBAPEAPEAU_Iterator_base12@2@XZ
_TEXT	SEGMENT
$T1 = 200
tv68 = 216
this$ = 256
?_Getpfirst@_Container_base12@std@@QEBAPEAPEAU_Iterator_base12@2@XZ PROC ; std::_Container_base12::_Getpfirst, COMDAT

; 95   : 		{	// get address of iterator chain

$LN5:
	mov	QWORD PTR [rsp+8], rcx
	push	rbp
	push	rdi
	sub	rsp, 264				; 00000108H
	lea	rbp, QWORD PTR [rsp+32]
	mov	rdi, rsp
	mov	ecx, 66					; 00000042H
	mov	eax, -858993460				; ccccccccH
	rep stosd
	mov	rcx, QWORD PTR [rsp+296]
	mov	QWORD PTR $T1[rbp], -2
	lea	rcx, OFFSET FLAT:__CDB00636_xutility
	call	__CheckForDebuggerJustMyCode
	npad	1

; 96   : 		return (_Myproxy == nullptr ? nullptr : &_Myproxy->_Myfirstiter);

	mov	rax, QWORD PTR this$[rbp]
	cmp	QWORD PTR [rax], 0
	jne	SHORT $LN3@Getpfirst
	mov	QWORD PTR tv68[rbp], 0
	jmp	SHORT $LN4@Getpfirst
$LN3@Getpfirst:
	mov	rax, QWORD PTR this$[rbp]
	mov	rax, QWORD PTR [rax]
	add	rax, 8
	mov	QWORD PTR tv68[rbp], rax
$LN4@Getpfirst:
	mov	rax, QWORD PTR tv68[rbp]

; 97   : 		}

	lea	rsp, QWORD PTR [rbp+232]
	pop	rdi
	pop	rbp
	ret	0
?_Getpfirst@_Container_base12@std@@QEBAPEAPEAU_Iterator_base12@2@XZ ENDP ; std::_Container_base12::_Getpfirst
_TEXT	ENDS
; Function compile flags: /Odtp /RTCsu /ZI
; File c:\program files (x86)\microsoft visual studio\2017\community\vc\tools\msvc\14.16.27023\include\xutility
;	COMDAT ??0_Container_base12@std@@QEAA@XZ
_TEXT	SEGMENT
this$ = 224
??0_Container_base12@std@@QEAA@XZ PROC			; std::_Container_base12::_Container_base12, COMDAT

; 81   : 		{	// construct childless container

$LN3:
	mov	QWORD PTR [rsp+8], rcx
	push	rbp
	push	rdi
	sub	rsp, 232				; 000000e8H
	lea	rbp, QWORD PTR [rsp+32]
	mov	rdi, rsp
	mov	ecx, 58					; 0000003aH
	mov	eax, -858993460				; ccccccccH
	rep stosd
	mov	rcx, QWORD PTR [rsp+264]
	lea	rcx, OFFSET FLAT:__CDB00636_xutility
	call	__CheckForDebuggerJustMyCode

; 80   : 		: _Myproxy(nullptr)

	mov	rax, QWORD PTR this$[rbp]
	mov	QWORD PTR [rax], 0

; 82   : 		}

	mov	rax, QWORD PTR this$[rbp]
	lea	rsp, QWORD PTR [rbp+200]
	pop	rdi
	pop	rbp
	ret	0
??0_Container_base12@std@@QEAA@XZ ENDP			; std::_Container_base12::_Container_base12
_TEXT	ENDS
; Function compile flags: /Odtp /RTCsu /ZI
; File c:\program files (x86)\microsoft visual studio\2017\community\vc\tools\msvc\14.16.27023\include\xutility
;	COMDAT ??0_Container_proxy@std@@QEAA@XZ
_TEXT	SEGMENT
$T1 = 200
this$ = 256
??0_Container_proxy@std@@QEAA@XZ PROC			; std::_Container_proxy::_Container_proxy, COMDAT

; 69   : 		{	// construct from pointers

$LN3:
	mov	QWORD PTR [rsp+8], rcx
	push	rbp
	push	rdi
	sub	rsp, 264				; 00000108H
	lea	rbp, QWORD PTR [rsp+32]
	mov	rdi, rsp
	mov	ecx, 66					; 00000042H
	mov	eax, -858993460				; ccccccccH
	rep stosd
	mov	rcx, QWORD PTR [rsp+296]
	mov	QWORD PTR $T1[rbp], -2
	lea	rcx, OFFSET FLAT:__CDB00636_xutility
	call	__CheckForDebuggerJustMyCode
	npad	1

; 68   : 		: _Mycont(nullptr), _Myfirstiter(nullptr)

	mov	rax, QWORD PTR this$[rbp]
	mov	QWORD PTR [rax], 0
	mov	rax, QWORD PTR this$[rbp]
	mov	QWORD PTR [rax+8], 0

; 70   : 		}

	mov	rax, QWORD PTR this$[rbp]
	lea	rsp, QWORD PTR [rbp+232]
	pop	rdi
	pop	rbp
	ret	0
??0_Container_proxy@std@@QEAA@XZ ENDP			; std::_Container_proxy::_Container_proxy
_TEXT	ENDS
; Function compile flags: /Odtp /RTCsu /ZI
; File c:\program files (x86)\microsoft visual studio\2017\community\vc\tools\msvc\14.16.27023\include\iosfwd
;	COMDAT ?eof@?$char_traits@D@std@@SAHXZ
_TEXT	SEGMENT
$T1 = 200
?eof@?$char_traits@D@std@@SAHXZ PROC			; std::char_traits<char>::eof, COMDAT

; 540  : 		{	// return end-of-file metacharacter

$LN3:
	push	rbp
	push	rdi
	sub	rsp, 264				; 00000108H
	lea	rbp, QWORD PTR [rsp+32]
	mov	rdi, rsp
	mov	ecx, 66					; 00000042H
	mov	eax, -858993460				; ccccccccH
	rep stosd
	mov	QWORD PTR $T1[rbp], -2
	lea	rcx, OFFSET FLAT:__7E39D651_iosfwd
	call	__CheckForDebuggerJustMyCode
	npad	1

; 541  : 		return (EOF);

	mov	eax, -1

; 542  : 		}

	lea	rsp, QWORD PTR [rbp+232]
	pop	rdi
	pop	rbp
	ret	0
?eof@?$char_traits@D@std@@SAHXZ ENDP			; std::char_traits<char>::eof
_TEXT	ENDS
; Function compile flags: /Odtp /RTCsu /ZI
; File c:\program files (x86)\microsoft visual studio\2017\community\vc\tools\msvc\14.16.27023\include\iosfwd
;	COMDAT ?eq_int_type@?$char_traits@D@std@@SA_NAEBH0@Z
_TEXT	SEGMENT
$T1 = 200
tv65 = 212
_Left$ = 256
_Right$ = 264
?eq_int_type@?$char_traits@D@std@@SA_NAEBH0@Z PROC	; std::char_traits<char>::eq_int_type, COMDAT

; 530  : 		{	// test for metacharacter equality

$LN5:
	mov	QWORD PTR [rsp+16], rdx
	mov	QWORD PTR [rsp+8], rcx
	push	rbp
	push	rdi
	sub	rsp, 264				; 00000108H
	lea	rbp, QWORD PTR [rsp+32]
	mov	rdi, rsp
	mov	ecx, 66					; 00000042H
	mov	eax, -858993460				; ccccccccH
	rep stosd
	mov	rcx, QWORD PTR [rsp+296]
	mov	QWORD PTR $T1[rbp], -2
	lea	rcx, OFFSET FLAT:__7E39D651_iosfwd
	call	__CheckForDebuggerJustMyCode
	npad	1

; 531  : 		return (_Left == _Right);

	mov	rax, QWORD PTR _Left$[rbp]
	mov	rcx, QWORD PTR _Right$[rbp]
	mov	ecx, DWORD PTR [rcx]
	cmp	DWORD PTR [rax], ecx
	jne	SHORT $LN3@eq_int_typ
	mov	DWORD PTR tv65[rbp], 1
	jmp	SHORT $LN4@eq_int_typ
$LN3@eq_int_typ:
	mov	DWORD PTR tv65[rbp], 0
$LN4@eq_int_typ:
	movzx	eax, BYTE PTR tv65[rbp]

; 532  : 		}

	lea	rsp, QWORD PTR [rbp+232]
	pop	rdi
	pop	rbp
	ret	0
?eq_int_type@?$char_traits@D@std@@SA_NAEBH0@Z ENDP	; std::char_traits<char>::eq_int_type
_TEXT	ENDS
; Function compile flags: /Odtp /RTCsu /ZI
; File c:\program files (x86)\microsoft visual studio\2017\community\vc\tools\msvc\14.16.27023\include\iosfwd
;	COMDAT ?length@?$char_traits@D@std@@SA_KQEBD@Z
_TEXT	SEGMENT
$T1 = 200
_First$ = 256
?length@?$char_traits@D@std@@SA_KQEBD@Z PROC		; std::char_traits<char>::length, COMDAT

; 460  : 		{	// find length of null-terminated string

$LN3:
	mov	QWORD PTR [rsp+8], rcx
	push	rbp
	push	rdi
	sub	rsp, 264				; 00000108H
	lea	rbp, QWORD PTR [rsp+32]
	mov	rdi, rsp
	mov	ecx, 66					; 00000042H
	mov	eax, -858993460				; ccccccccH
	rep stosd
	mov	rcx, QWORD PTR [rsp+296]
	mov	QWORD PTR $T1[rbp], -2
	lea	rcx, OFFSET FLAT:__7E39D651_iosfwd
	call	__CheckForDebuggerJustMyCode
	npad	1

; 461  : #if _HAS_CXX17
; 462  : 		return (__builtin_strlen(_First));
; 463  : #else /* _HAS_CXX17 */
; 464  : 		return (_CSTD strlen(_First));

	mov	rcx, QWORD PTR _First$[rbp]
	call	strlen
	npad	1

; 465  : #endif /* _HAS_CXX17 */
; 466  : 		}

	lea	rsp, QWORD PTR [rbp+232]
	pop	rdi
	pop	rbp
	ret	0
?length@?$char_traits@D@std@@SA_KQEBD@Z ENDP		; std::char_traits<char>::length
_TEXT	ENDS
; Function compile flags: /Odtp /RTCsu /ZI
; File c:\program files (x86)\microsoft visual studio\2017\community\vc\tools\msvc\14.16.27023\include\limits
;	COMDAT ?max@?$numeric_limits@_J@std@@SA_JXZ
_TEXT	SEGMENT
$T1 = 200
?max@?$numeric_limits@_J@std@@SA_JXZ PROC		; std::numeric_limits<__int64>::max, COMDAT

; 893  : 		{	// return maximum value

$LN3:
	push	rbp
	push	rdi
	sub	rsp, 264				; 00000108H
	lea	rbp, QWORD PTR [rsp+32]
	mov	rdi, rsp
	mov	ecx, 66					; 00000042H
	mov	eax, -858993460				; ccccccccH
	rep stosd
	mov	QWORD PTR $T1[rbp], -2
	lea	rcx, OFFSET FLAT:__B2D003D7_limits
	call	__CheckForDebuggerJustMyCode
	npad	1

; 894  : 		return (LLONG_MAX);

	mov	rax, 9223372036854775807		; 7fffffffffffffffH

; 895  : 		}

	lea	rsp, QWORD PTR [rbp+232]
	pop	rdi
	pop	rbp
	ret	0
?max@?$numeric_limits@_J@std@@SA_JXZ ENDP		; std::numeric_limits<__int64>::max
_TEXT	ENDS
; Function compile flags: /Odtp /RTCsu /ZI
; File c:\program files (x86)\microsoft visual studio\2017\community\vc\tools\msvc\14.16.27023\include\vcruntime_new.h
;	COMDAT ??2@YAPEAX_KPEAX@Z
_TEXT	SEGMENT
$T1 = 200
_Size$ = 256
_Where$ = 264
??2@YAPEAX_KPEAX@Z PROC					; operator new, COMDAT

; 185  :     {

$LN3:
	mov	QWORD PTR [rsp+16], rdx
	mov	QWORD PTR [rsp+8], rcx
	push	rbp
	push	rdi
	sub	rsp, 264				; 00000108H
	lea	rbp, QWORD PTR [rsp+32]
	mov	rdi, rsp
	mov	ecx, 66					; 00000042H
	mov	eax, -858993460				; ccccccccH
	rep stosd
	mov	rcx, QWORD PTR [rsp+296]
	mov	QWORD PTR $T1[rbp], -2
	lea	rcx, OFFSET FLAT:__6BC0FD35_vcruntime_new@h
	call	__CheckForDebuggerJustMyCode
	npad	1

; 186  :         (void)_Size;
; 187  :         return _Where;

	mov	rax, QWORD PTR _Where$[rbp]

; 188  :     }

	lea	rsp, QWORD PTR [rbp+232]
	pop	rdi
	pop	rbp
	ret	0
??2@YAPEAX_KPEAX@Z ENDP					; operator new
_TEXT	ENDS
; Function compile flags: /Odtp /RTCsu /ZI
; File c:\users\nightorius.phibian\source\repos\denveremu\denveremu\bus.cpp
;	COMDAT ?__empty_global_delete@@YAXPEAX_K@Z
_TEXT	SEGMENT
__formal$ = 224
__formal$ = 232
?__empty_global_delete@@YAXPEAX_K@Z PROC		; __empty_global_delete, COMDAT

$LN3:
	mov	QWORD PTR [rsp+16], rdx
	mov	QWORD PTR [rsp+8], rcx
	push	rbp
	push	rdi
	sub	rsp, 232				; 000000e8H
	lea	rbp, QWORD PTR [rsp+32]
	mov	rdi, rsp
	mov	ecx, 58					; 0000003aH
	mov	eax, -858993460				; ccccccccH
	rep stosd
	mov	rcx, QWORD PTR [rsp+264]
	lea	rcx, OFFSET FLAT:__72010E87_bus@cpp
	call	__CheckForDebuggerJustMyCode
	lea	rsp, QWORD PTR [rbp+200]
	pop	rdi
	pop	rbp
	ret	0
?__empty_global_delete@@YAXPEAX_K@Z ENDP		; __empty_global_delete
_TEXT	ENDS
; Function compile flags: /Odtp /RTCsu /ZI
; File c:\users\nightorius.phibian\source\repos\denveremu\denveremu\bus.cpp
;	COMDAT ?__empty_global_delete@@YAXPEAX@Z
_TEXT	SEGMENT
__formal$ = 224
?__empty_global_delete@@YAXPEAX@Z PROC			; __empty_global_delete, COMDAT

$LN3:
	mov	QWORD PTR [rsp+8], rcx
	push	rbp
	push	rdi
	sub	rsp, 232				; 000000e8H
	lea	rbp, QWORD PTR [rsp+32]
	mov	rdi, rsp
	mov	ecx, 58					; 0000003aH
	mov	eax, -858993460				; ccccccccH
	rep stosd
	mov	rcx, QWORD PTR [rsp+264]
	lea	rcx, OFFSET FLAT:__72010E87_bus@cpp
	call	__CheckForDebuggerJustMyCode
	lea	rsp, QWORD PTR [rbp+200]
	pop	rdi
	pop	rbp
	ret	0
?__empty_global_delete@@YAXPEAX@Z ENDP			; __empty_global_delete
_TEXT	ENDS
END
